LIBRARY 	"libSP3301"

EXPORTS
    ; CSP3301
	??0CSP3301@@QEAA@I@Z
	??1CSP3301@@UEAA@XZ
	??4CSP3301@@AEAAAEAV0@AEAV0@@Z
	?Instance@CSP3301@@SAAEAV1@I@Z
	??0RFUInfo@CSP3301@@QEAA@PEBD000@Z
	?GetActive@CSP3301@@QEAA?AUActive@1@XZ
	?GetInfo@CSP3301@@QEAA?AURFUInfo@1@XZ
	?GetOCXO@CSP3301@@QEAAHAEAF@Z
	?Boot@CSP3301@@QEAAHXZ
	?SetLoadBit@CSP3301@@QEAAH_N0PEAD1@Z
	?LoadBit@CSP3301@@QEAAHXZ
	?GetRfPort@CSP3301@@QEAAHXZ
	?GetSN@CSP3301@@QEAAHPEAD@Z
	?GetVer@CSP3301@@QEAAHPEAD@Z
	?GetDriverVer@CSP3301@@QEAAPEBDXZ
	?AssK7Name@CSP3301@@QEAA?AV?$basic_string@DU?$char_traits@D@std@@V?$allocator@D@2@@std@@II@Z
	?AssS6Name@CSP3301@@QEAA?AV?$basic_string@DU?$char_traits@D@std@@V?$allocator@D@2@@std@@I@Z
	?RF_SetTxState@CSP3301@@QEAAHI_N@Z
	?RF_SetTxPower@CSP3301@@QEAAHIM@Z
	?RF_SetTxFreq@CSP3301@@QEAAHI_K@Z
	?RF_SetTxBW@CSP3301@@QEAAHIW4BW@SP1401@@@Z
	?RF_SetTxDelay@CSP3301@@QEAAHIN@Z
	?RF_SetTxSource@CSP3301@@QEAAHIW4DASrc@CSP2401R1A@@@Z
	?RF_SetSrcFreq@CSP3301@@QEAAHI_K@Z
	?ArbLoad@CSP3301@@QEAAHIPEAD@Z
	?RF_SetArbEn@CSP3301@@QEAAHI_N@Z
	?RF_SetArbTrigSrc@CSP3301@@QEAAHIW4ARB_TRIGGERMODE@1@@Z
	?RF_SetArbTrig@CSP3301@@QEAAHI@Z
	?RF_SetArbCount@CSP3301@@QEAAHIH@Z
	?RF_SetRxLevel@CSP3301@@QEAAHIN@Z
	?RF_SetRxFreq@CSP3301@@QEAAHI_K@Z
	?RF_SetRxBW@CSP3301@@QEAAHIW4BW@SP1401@@@Z
	?RF_SetRxDelay@CSP3301@@QEAAHIN@Z
	?RF_SetIOMode@CSP3301@@QEAAHIW4IOMode@SP1401@@@Z
	?RF_SetTrigSrc@CSP3301@@QEAAHIW4RFU_TRIGGERSOURCE@1@@Z
	?RF_SetTrigMode@CSP3301@@QEAAHIW4IQCapSrcs@ISP1401@@@Z
	?RF_SetTrigLevel@CSP3301@@QEAAHIM@Z
	?RF_SetTrigOffset@CSP3301@@QEAAHII@Z
	?RF_SetIQCapLength@CSP3301@@QEAAHII@Z
	?RF_SetIQDataMap@CSP3301@@QEAAHIPEAG@Z
	?RF_InitPowerMeas@CSP3301@@QEAAHI@Z
	?RF_AbortPowerMeas@CSP3301@@QEAAHI@Z
	?RF_GetPowerProc@CSP3301@@QEAAHIAEAW4PowerMeasState@ISP1401@@@Z 
	?RF_GetMeasResult@CSP3301@@QEAAHIAEAM0@Z
	?RF_InitIQCap@CSP3301@@QEAAHI@Z
	?RF_AbortIQCap@CSP3301@@QEAAHI@Z
	?RF_GetTemp@CSP3301@@QEAAHIAEAN0@Z
	??0Active@CSP3301@@QEAA@XZ
