LIBRARY 	"libSP2401"

EXPORTS
    ; CSP2401R1A
	??0CSP2401R1A@@QEAA@I@Z
	?OpenBoard@CSP2401R1A@@QEAAHPEAVviPCIDev@@0@Z
	?OpenBoard@CSP2401R1A@@QEAAHPEAVviPCIDev@@@Z
	?GetS6Ver@CSP2401R1A@@QEAAIAEAI@Z
	?GetRfIdx@CSP2401R1A@@QEAAIXZ
	?FpgaReset@CSP2401R1A@@QEAAHXZ
	?GetK7@CSP2401R1A@@QEAAPEAVIPCIDev@@XZ
	?GetS6@CSP2401R1A@@QEAAPEAVIPCIDev@@XZ
	?SetDAFreqMHz@CSP2401R1A@@QEAAHN@Z
	?SetDASw@CSP2401R1A@@QEAAHW4ADAPort@1@@Z
	?DAReset@CSP2401R1A@@QEAAHXZ
	?SetADFreqMHz@CSP2401R1A@@QEAAHN@Z
	?SetADSw@CSP2401R1A@@QEAAHW4ADAPort@1@@Z
	?SetTxPowerComp@CSP2401R1A@@QEAAHN@Z
	?SetDDSSrc@CSP2401R1A@@QEAAHW4DASrc@1@@Z
	?SetDDS1@CSP2401R1A@@QEAAHN@Z
	?SetDDS2@CSP2401R1A@@QEAAHN@Z
	?SetDDSPowerComp@CSP2401R1A@@QEAAHN@Z
	?SetDUCDDS@CSP2401R1A@@QEAAHN@Z
	?SetTxFilterTruncation@CSP2401R1A@@QEAAHI@Z
	?SetTxFilterSw@CSP2401R1A@@QEAAH_N@Z
	?SetTxFilter@CSP2401R1A@@QEAAHPEAN0@Z
	?SetDDC@CSP2401R1A@@QEAAHN@Z
	?SetRxFilterTruncation@CSP2401R1A@@QEAAHI@Z
	?SetRxFilterSw@CSP2401R1A@@QEAAHW4RxFilter@1@@Z
	?SetRxFilter2I3D@CSP2401R1A@@QEAAHPEAN0@Z
	?SetRxFilter2I3D2Default@CSP2401R1A@@QEAAHXZ
	?SetRxFilter@CSP2401R1A@@QEAAHPEAN0@Z
	?SetRxFilter2NB@CSP2401R1A@@QEAAHXZ
	?SetRxFilter2Default@CSP2401R1A@@QEAAHXZ
	?SetRxPowerComp@CSP2401R1A@@QEAAHH@Z
	?SetTxDCOffset@CSP2401R1A@@QEAAHGG@Z
	?SetTxPhaseRotateI@CSP2401R1A@@QEAAHN@Z
	?SetTxAmplitudeBalance@CSP2401R1A@@QEAAHGG@Z
	?SetFpgaBit@CSP2401R1A@@QEAAHPEBDH@Z
	?SetFpgaBit@@YAHHPEADPEAVviPCIDev@@H@Z
	??1CSP2401R1A@@UEAA@XZ