 libInstr

 Timestamp is 59ddf806 (Wed Oct 11 18:52:54 2017)

 Preferred load address is 0000000180000000

 Start         Length     Name                   Class
 0001:00000000 0001408fH .text                   CODE
 0001:00014090 00001075H .text$00                CODE
 0001:00015110 00002586H .text$x                 CODE
 0001:000176a0 0000101aH .text$yd                CODE
 0002:00000000 00000109H .CRT$XCA                DATA
 0002:00000110 00000109H .CRT$XCZ                DATA
 0002:00000220 00000109H .CRT$XIA                DATA
 0002:00000330 00000109H .CRT$XIAA               DATA
 0002:00000440 00000109H .CRT$XIZ                DATA
 0002:00000550 00003df1H .rdata                  DATA
 0002:00004344 00000146H .rdata$debug            DATA
 0002:00004490 00000f70H .rdata$r                DATA
 0002:00005400 00000109H .rtc$IAA                DATA
 0002:00005510 00000109H .rtc$IZZ                DATA
 0002:00005620 00000109H .rtc$TAA                DATA
 0002:00005730 00000109H .rtc$TZZ                DATA
 0002:00005840 000026b9H .xdata                  DATA
 0002:00007f00 0000030dH .xdata$x                DATA
 0002:00008210 00000be3H .edata                  DATA
 0003:00000000 00000547H .data                   DATA
 0003:00000550 000006e8H .bss                    DATA
 0004:00000000 00001914H .pdata                  DATA
 0005:00000000 00000078H .idata$2                DATA
 0005:00000078 00000014H .idata$3                DATA
 0005:00000090 00000590H .idata$4                DATA
 0005:00000620 00000590H .idata$5                DATA
 0005:00000bb0 00000b33H .idata$6                DATA

  Address         Publics by Value              Rva+Base               Lib:Object

 0000:00000000       ___safe_se_handler_table   0000000000000000     <absolute>
 0000:00000000       ___safe_se_handler_count   0000000000000000     <absolute>
 0000:00000000       __ImageBase                0000000180000000     <linker-defined>
 0001:00001230       ??0E4438C@@QEAA@XZ         0000000180002230 f   E4438C.obj
 0001:00001270       ??1E4438C@@UEAA@XZ         0000000180002270 f   E4438C.obj
 0001:000012a0       ?GetDes@E4438C@@UEAAPEADXZ 00000001800022a0 f   E4438C.obj
 0001:000012d0       ??_EE4438C@@UEAAPEAXI@Z    00000001800022d0 f i E4438C.obj
 0001:000012d0       ??_GE4438C@@UEAAPEAXI@Z    00000001800022d0 f i E4438C.obj
 0001:00001320       ??0E4440A@@QEAA@XZ         0000000180002320 f   E4440A.obj
 0001:00001360       ??1E4440A@@UEAA@XZ         0000000180002360 f   E4440A.obj
 0001:00001390       ?GetDes@E4440A@@UEAAPEADXZ 0000000180002390 f   E4440A.obj
 0001:000013c0       ??_EE4440A@@UEAAPEAXI@Z    00000001800023c0 f i E4440A.obj
 0001:000013c0       ??_GE4440A@@UEAAPEAXI@Z    00000001800023c0 f i E4440A.obj
 0001:00001410       ??0E4443A@@QEAA@XZ         0000000180002410 f   E4443A.obj
 0001:00001450       ??1E4443A@@UEAA@XZ         0000000180002450 f   E4443A.obj
 0001:00001480       ?GetDes@E4443A@@UEAAPEADXZ 0000000180002480 f   E4443A.obj
 0001:000014b0       ??_EE4443A@@UEAAPEAXI@Z    00000001800024b0 f i E4443A.obj
 0001:000014b0       ??_GE4443A@@UEAAPEAXI@Z    00000001800024b0 f i E4443A.obj
 0001:00001500       ??0E4445A@@QEAA@XZ         0000000180002500 f   E4445A.obj
 0001:00001540       ??1E4445A@@UEAA@XZ         0000000180002540 f   E4445A.obj
 0001:00001570       ?GetDes@E4445A@@UEAAPEADXZ 0000000180002570 f   E4445A.obj
 0001:00001590       ?SetEnablePreamp@E4445A@@UEAA_N_N@Z 0000000180002590 f   E4445A.obj
 0001:00001630       ??_EE4445A@@UEAAPEAXI@Z    0000000180002630 f i E4445A.obj
 0001:00001630       ??_GE4445A@@UEAAPEAXI@Z    0000000180002630 f i E4445A.obj
 0001:00001680       ??0E8267D@@QEAA@XZ         0000000180002680 f   E8267D.obj
 0001:000016c0       ??1E8267D@@UEAA@XZ         00000001800026c0 f   E8267D.obj
 0001:000016f0       ?GetDes@E8267D@@UEAAPEADXZ 00000001800026f0 f   E8267D.obj
 0001:00001720       ??_EE8267D@@UEAAPEAXI@Z    0000000180002720 f i E8267D.obj
 0001:00001720       ??_GE8267D@@UEAAPEAXI@Z    0000000180002720 f i E8267D.obj
 0001:00001770       ??0FSUP@@QEAA@XZ           0000000180002770 f   FSUP.obj
 0001:000017b0       ??1FSUP@@UEAA@XZ           00000001800027b0 f   FSUP.obj
 0001:000017e0       ?GetDefaultPriAddr@FSUP@@UEAAHXZ 00000001800027e0 f   FSUP.obj
 0001:00001800       ?GetDefaultSecAddr@FSUP@@UEAAHXZ 0000000180002800 f   FSUP.obj
 0001:00001820       ?GetDes@FSUP@@UEAAPEADXZ   0000000180002820 f   FSUP.obj
 0001:00001840       ?Reset@FSUP@@UEAA_NXZ      0000000180002840 f   FSUP.obj
 0001:00001870       ?SetCF@FSUP@@UEAA_NN@Z     0000000180002870 f   FSUP.obj
 0001:000018b0       ?SetSpan@FSUP@@UEAA_NN@Z   00000001800028b0 f   FSUP.obj
 0001:000018f0       ?SetRBW@FSUP@@UEAA_NN_N@Z  00000001800028f0 f   FSUP.obj
 0001:00001960       ?SetVBW@FSUP@@UEAA_NN_N@Z  0000000180002960 f   FSUP.obj
 0001:000019d0       ?SetDectector@FSUP@@UEAA_NW4DetectorTypes@ISA@@@Z 00000001800029d0 f   FSUP.obj
 0001:00001ad0       ?SetPeakSearch@FSUP@@UEAA_NW4PeakSearchTypes@ISA@@@Z 0000000180002ad0 f   FSUP.obj
 0001:00001b80       ?SetRefLevel@FSUP@@UEAA_NN@Z 0000000180002b80 f   FSUP.obj
 0001:00001bc0       ?GetRefLevel@FSUP@@UEAA_NAEAN@Z 0000000180002bc0 f   FSUP.obj
 0001:00001c90       ?SetMarker@FSUP@@UEAA_NW4MarkerTypes@ISA@@@Z 0000000180002c90 f   FSUP.obj
 0001:00001d20       ?SetEnablePreamp@FSUP@@UEAA_N_N@Z 0000000180002d20 f   FSUP.obj
 0001:00001db0       ?GetMarkerPwr@FSUP@@UEAA_NAEAN@Z 0000000180002db0 f   FSUP.obj
 0001:00001ed0       ?GetMarkerFrequency@FSUP@@UEAA_NAEAN@Z 0000000180002ed0 f   FSUP.obj
 0001:00001fb0       ?WaitForContinue@FSUP@@UEAA_NXZ 0000000180002fb0 f   FSUP.obj
 0001:00001fe0       ?SweepOnce@FSUP@@UEAA_NXZ  0000000180002fe0 f   FSUP.obj
 0001:00002040       ?MarkerMove@FSUP@@UEAA_NW4MarkerMoveTypes@ISA@@@Z 0000000180003040 f   FSUP.obj
 0001:000020b0       ?MarkerMove@FSUP@@UEAA_NN@Z 00000001800030b0 f   FSUP.obj
 0001:000020f0       ?SetCalibration@FSUP@@UEAA_NW4CalibrationTypes@ISA@@@Z 00000001800030f0 f   FSUP.obj
 0001:00002120       ?SetAverTrace@FSUP@@UEAA_N_NH@Z 0000000180003120 f   FSUP.obj
 0001:000021c0       ?SetAverTraceAndGetData@FSUP@@UEAA_NHHPEAN@Z 00000001800031c0 f   FSUP.obj
 0001:000023c0       ?SetMechAtten@FSUP@@UEAA_N_NH@Z 00000001800033c0 f   FSUP.obj
 0001:000026f0       ??_GFSUP@@UEAAPEAXI@Z      00000001800036f0 f i FSUP.obj
 0001:000026f0       ??_EFSUP@@UEAAPEAXI@Z      00000001800036f0 f i FSUP.obj
 0001:00002740       ??0CInstrExpt@@QEAA@PEBDZZ 0000000180003740 f   Instrument.obj
 0001:000027b0       ?GetExpt@CInstrExpt@@QEAAPEADXZ 00000001800037b0 f   Instrument.obj
 0001:000027d0       ??0CInstrument@@IEAA@XZ    00000001800037d0 f   Instrument.obj
 0001:00002f00       ?Instance@CInstrument@@SAAEAV1@XZ 0000000180003f00 f   Instrument.obj
 0001:00002f60       ??1CInstrument@@UEAA@XZ    0000000180003f60 f   Instrument.obj
 0001:00003270       ?SetEnableExpt@CInstrument@@QEAAX_N@Z 0000000180004270 f   Instrument.obj
 0001:00003290       ?Init@CInstrument@@UEAA_NXZ 0000000180004290 f   Instrument.obj
 0001:000037f0       ?InsInstr@CInstrument@@EEAA_NPEAD0@Z 00000001800047f0 f   Instrument.obj
 0001:00003be0       ?Close@CInstrument@@UEAA_NXZ 0000000180004be0 f   Instrument.obj
 0001:00003ca0       ?HasSA@CInstrument@@UEAA_NXZ 0000000180004ca0 f   Instrument.obj
 0001:00003d80       ?HasSG@CInstrument@@UEAA_NXZ 0000000180004d80 f   Instrument.obj
 0001:00003e60       ?HasPM@CInstrument@@UEAA_NXZ 0000000180004e60 f   Instrument.obj
 0001:00003f40       ?SetSA@CInstrument@@UEAAXPEAD@Z 0000000180004f40 f   Instrument.obj
 0001:00003f70       ?SetSG@CInstrument@@UEAAXPEAD@Z 0000000180004f70 f   Instrument.obj
 0001:00003fa0       ?SetPM@CInstrument@@UEAAXPEAD@Z 0000000180004fa0 f   Instrument.obj
 0001:00003fd0       ?SA_Reset@CInstrument@@UEAA_NXZ 0000000180004fd0 f   Instrument.obj
 0001:000040a0       ?SA_SetCF@CInstrument@@UEAA_NN@Z 00000001800050a0 f   Instrument.obj
 0001:00004180       ?SA_SetSpan@CInstrument@@UEAA_NN@Z 0000000180005180 f   Instrument.obj
 0001:00004260       ?SA_SetRBW@CInstrument@@UEAA_NN_N@Z 0000000180005260 f   Instrument.obj
 0001:00004350       ?SA_SetVBW@CInstrument@@UEAA_NN_N@Z 0000000180005350 f   Instrument.obj
 0001:00004440       ?SA_SetDectector@CInstrument@@UEAA_NW4DetectorTypes@ISA@@@Z 0000000180005440 f   Instrument.obj
 0001:00004520       ?SA_SetPeakSearch@CInstrument@@UEAA_NW4PeakSearchTypes@ISA@@@Z 0000000180005520 f   Instrument.obj
 0001:00004600       ?SA_SetRefLevel@CInstrument@@UEAA_NN@Z 0000000180005600 f   Instrument.obj
 0001:000046e0       ?SA_GetRefLevel@CInstrument@@UEAA_NAEAN@Z 00000001800056e0 f   Instrument.obj
 0001:000047c0       ?SA_SetRefAuto@CInstrument@@UEAA_NXZ 00000001800057c0 f   Instrument.obj
 0001:00004890       ?SA_SetMarker@CInstrument@@UEAA_NW4MarkerTypes@ISA@@@Z 0000000180005890 f   Instrument.obj
 0001:00004970       ?SA_GetMarkerPwr@CInstrument@@UEAA_NAEAN@Z 0000000180005970 f   Instrument.obj
 0001:00004a50       ?SA_GetMarkerFrequency@CInstrument@@UEAA_NAEAN@Z 0000000180005a50 f   Instrument.obj
 0001:00004b30       ?SA_SetEnablePreamp@CInstrument@@UEAA_N_N@Z 0000000180005b30 f   Instrument.obj
 0001:00004c10       ?SA_MarkerMove@CInstrument@@UEAA_NW4MarkerMoveTypes@ISA@@@Z 0000000180005c10 f   Instrument.obj
 0001:00004cf0       ?SA_MarkerMove@CInstrument@@UEAA_NN@Z 0000000180005cf0 f   Instrument.obj
 0001:00004dd0       ?SA_SweepOnce@CInstrument@@UEAA_NXZ 0000000180005dd0 f   Instrument.obj
 0001:00004ea0       ?SA_SetCalibration@CInstrument@@UEAA_NW4CalibrationTypes@ISA@@@Z 0000000180005ea0 f   Instrument.obj
 0001:00004f80       ?SA_SetAverTrace@CInstrument@@UEAA_N_NH@Z 0000000180005f80 f   Instrument.obj
 0001:00005070       ?SA_SetAverTraceAndGetData@CInstrument@@UEAA_NHHPEAN@Z 0000000180006070 f   Instrument.obj
 0001:00005170       ?SA_SetMechAtten@CInstrument@@UEAA_N_NH@Z 0000000180006170 f   Instrument.obj
 0001:00005260       ?SG_Reset@CInstrument@@UEAA_NXZ 0000000180006260 f   Instrument.obj
 0001:00005330       ?SG_SetCW@CInstrument@@UEAA_NN@Z 0000000180006330 f   Instrument.obj
 0001:00005410       ?SG_GetCW@CInstrument@@UEAA_NAEAN@Z 0000000180006410 f   Instrument.obj
 0001:000054f0       ?SG_SetPL@CInstrument@@UEAA_NN@Z 00000001800064f0 f   Instrument.obj
 0001:000055d0       ?SG_GetPL@CInstrument@@UEAA_NAEAN@Z 00000001800065d0 f   Instrument.obj
 0001:000056b0       ?SG_SetOutputEnable@CInstrument@@UEAA_N_N@Z 00000001800066b0 f   Instrument.obj
 0001:00005790       ?SG_SetModEnable@CInstrument@@UEAA_N_N@Z 0000000180006790 f   Instrument.obj
 0001:00005870       ?PM_Reset@CInstrument@@UEAA_NXZ 0000000180006870 f   Instrument.obj
 0001:00005940       ?PM_SetFrequency@CInstrument@@UEAA_NN@Z 0000000180006940 f   Instrument.obj
 0001:00005a20       ?PM_GetPwr@CInstrument@@UEAA_NAEAN@Z 0000000180006a20 f   Instrument.obj
 0001:00005b00       ?PM_GetPwr@CInstrument@@UEAA_NNAEAN@Z 0000000180006b00 f   Instrument.obj
 0001:00006910       ??_ECInstrument@@UEAAPEAXI@Z 0000000180007910 f i Instrument.obj
 0001:00006910       ??_GCInstrument@@UEAAPEAXI@Z 0000000180007910 f i Instrument.obj
 0001:00006960       ?strstr@@YAPEADPEADPEBD@Z  0000000180007960 f i Instrument.obj
 0001:00006990       ??0?$vector@PEAVISA@@V?$allocator@PEAVISA@@@std@@@std@@QEAA@XZ 0000000180007990 f i Instrument.obj
 0001:000069f0       ??1?$vector@PEAVISA@@V?$allocator@PEAVISA@@@std@@@std@@QEAA@XZ 00000001800079f0 f i Instrument.obj
 0001:00006a30       ?size@?$vector@PEAVISA@@V?$allocator@PEAVISA@@@std@@@std@@QEBA_KXZ 0000000180007a30 f i Instrument.obj
 0001:00006a60       ?at@?$vector@PEAVISA@@V?$allocator@PEAVISA@@@std@@@std@@QEAAAEAPEAVISA@@_K@Z 0000000180007a60 f i Instrument.obj
 0001:00006b40       ?push_back@?$vector@PEAVISA@@V?$allocator@PEAVISA@@@std@@@std@@QEAAXAEBQEAVISA@@@Z 0000000180007b40 f i Instrument.obj
 0001:00006cb0       ?clear@?$vector@PEAVISA@@V?$allocator@PEAVISA@@@std@@@std@@QEAAXXZ 0000000180007cb0 f i Instrument.obj
 0001:00006e10       ??0?$vector@PEAVISG@@V?$allocator@PEAVISG@@@std@@@std@@QEAA@XZ 0000000180007e10 f i Instrument.obj
 0001:00006e70       ??1?$vector@PEAVISG@@V?$allocator@PEAVISG@@@std@@@std@@QEAA@XZ 0000000180007e70 f i Instrument.obj
 0001:00006eb0       ?size@?$vector@PEAVISG@@V?$allocator@PEAVISG@@@std@@@std@@QEBA_KXZ 0000000180007eb0 f i Instrument.obj
 0001:00006ee0       ?at@?$vector@PEAVISG@@V?$allocator@PEAVISG@@@std@@@std@@QEAAAEAPEAVISG@@_K@Z 0000000180007ee0 f i Instrument.obj
 0001:00006fc0       ?push_back@?$vector@PEAVISG@@V?$allocator@PEAVISG@@@std@@@std@@QEAAXAEBQEAVISG@@@Z 0000000180007fc0 f i Instrument.obj
 0001:00007130       ?clear@?$vector@PEAVISG@@V?$allocator@PEAVISG@@@std@@@std@@QEAAXXZ 0000000180008130 f i Instrument.obj
 0001:00007290       ??0?$vector@PEAVIPM@@V?$allocator@PEAVIPM@@@std@@@std@@QEAA@XZ 0000000180008290 f i Instrument.obj
 0001:000072f0       ??1?$vector@PEAVIPM@@V?$allocator@PEAVIPM@@@std@@@std@@QEAA@XZ 00000001800082f0 f i Instrument.obj
 0001:00007330       ?size@?$vector@PEAVIPM@@V?$allocator@PEAVIPM@@@std@@@std@@QEBA_KXZ 0000000180008330 f i Instrument.obj
 0001:00007360       ?at@?$vector@PEAVIPM@@V?$allocator@PEAVIPM@@@std@@@std@@QEAAAEAPEAVIPM@@_K@Z 0000000180008360 f i Instrument.obj
 0001:00007440       ?push_back@?$vector@PEAVIPM@@V?$allocator@PEAVIPM@@@std@@@std@@QEAAXAEBQEAVIPM@@@Z 0000000180008440 f i Instrument.obj
 0001:000075b0       ?clear@?$vector@PEAVIPM@@V?$allocator@PEAVIPM@@@std@@@std@@QEAAXXZ 00000001800085b0 f i Instrument.obj
 0001:00007710       ??1?$_Vector_val@PEAVISA@@V?$allocator@PEAVISA@@@std@@@std@@QEAA@XZ 0000000180008710 f i Instrument.obj
 0001:00007730       ??1?$_Vector_iterator@PEAVISA@@V?$allocator@PEAVISA@@@std@@@std@@QEAA@XZ 0000000180008730 f i Instrument.obj
 0001:00007750       ??0?$_Vector_const_iterator@PEAVISA@@V?$allocator@PEAVISA@@@std@@@std@@QEAA@AEBV01@@Z 0000000180008750 f i Instrument.obj
 0001:000077a0       ??1?$_Vector_const_iterator@PEAVISA@@V?$allocator@PEAVISA@@@std@@@std@@QEAA@XZ 00000001800087a0 f i Instrument.obj
 0001:000077c0       ??1?$_Vector_val@PEAVISG@@V?$allocator@PEAVISG@@@std@@@std@@QEAA@XZ 00000001800087c0 f i Instrument.obj
 0001:000077e0       ??1?$_Vector_iterator@PEAVISG@@V?$allocator@PEAVISG@@@std@@@std@@QEAA@XZ 00000001800087e0 f i Instrument.obj
 0001:00007800       ??0?$_Vector_const_iterator@PEAVISG@@V?$allocator@PEAVISG@@@std@@@std@@QEAA@AEBV01@@Z 0000000180008800 f i Instrument.obj
 0001:00007850       ??1?$_Vector_const_iterator@PEAVISG@@V?$allocator@PEAVISG@@@std@@@std@@QEAA@XZ 0000000180008850 f i Instrument.obj
 0001:00007870       ??1?$_Vector_val@PEAVIPM@@V?$allocator@PEAVIPM@@@std@@@std@@QEAA@XZ 0000000180008870 f i Instrument.obj
 0001:00007890       ??1?$_Vector_iterator@PEAVIPM@@V?$allocator@PEAVIPM@@@std@@@std@@QEAA@XZ 0000000180008890 f i Instrument.obj
 0001:000078b0       ??0?$_Vector_const_iterator@PEAVIPM@@V?$allocator@PEAVIPM@@@std@@@std@@QEAA@AEBV01@@Z 00000001800088b0 f i Instrument.obj
 0001:00007900       ??1?$_Vector_const_iterator@PEAVIPM@@V?$allocator@PEAVIPM@@@std@@@std@@QEAA@XZ 0000000180008900 f i Instrument.obj
 0001:00007920       ??0?$_Ranit@PEAVISA@@_JPEBQEAV1@AEBQEAV1@@std@@QEAA@AEBU01@@Z 0000000180008920 f i Instrument.obj
 0001:00007950       ??1?$_Ranit@PEAVISA@@_JPEBQEAV1@AEBQEAV1@@std@@QEAA@XZ 0000000180008950 f i Instrument.obj
 0001:00007970       ??0?$_Ranit@PEAVISG@@_JPEBQEAV1@AEBQEAV1@@std@@QEAA@AEBU01@@Z 0000000180008970 f i Instrument.obj
 0001:000079a0       ??1?$_Ranit@PEAVISG@@_JPEBQEAV1@AEBQEAV1@@std@@QEAA@XZ 00000001800089a0 f i Instrument.obj
 0001:000079c0       ??0?$_Ranit@PEAVIPM@@_JPEBQEAV1@AEBQEAV1@@std@@QEAA@AEBU01@@Z 00000001800089c0 f i Instrument.obj
 0001:000079f0       ??1?$_Ranit@PEAVIPM@@_JPEBQEAV1@AEBQEAV1@@std@@QEAA@XZ 00000001800089f0 f i Instrument.obj
 0001:00007a10       ??0?$_Iterator_with_base@Urandom_access_iterator_tag@std@@PEAVISA@@_JPEBQEAV3@AEBQEAV3@V_Iterator_base@2@@std@@QEAA@AEBU01@@Z 0000000180008a10 f i Instrument.obj
 0001:00007a40       ??0_Iterator_base@std@@QEAA@AEBV01@@Z 0000000180008a40 f i Instrument.obj
 0001:00007a90       ??4_Iterator_base@std@@QEAAAEAV01@AEBV01@@Z 0000000180008a90 f i Instrument.obj
 0001:00007b20       ?_Adopt@_Iterator_base@std@@QEAAXPEBV_Container_base_secure@2@@Z 0000000180008b20 f i Instrument.obj
 0001:00007be0       ?_Orphan_me@_Iterator_base@std@@QEAAXXZ 0000000180008be0 f i Instrument.obj
 0001:00007cb0       ??1?$_Iterator_with_base@Urandom_access_iterator_tag@std@@PEAVISA@@_JPEBQEAV3@AEBQEAV3@V_Iterator_base@2@@std@@QEAA@XZ 0000000180008cb0 f i Instrument.obj
 0001:00007cd0       ??1_Iterator_base@std@@QEAA@XZ 0000000180008cd0 f i Instrument.obj
 0001:00007d20       ??0?$_Iterator_with_base@Urandom_access_iterator_tag@std@@PEAVISG@@_JPEBQEAV3@AEBQEAV3@V_Iterator_base@2@@std@@QEAA@AEBU01@@Z 0000000180008d20 f i Instrument.obj
 0001:00007d50       ??1?$_Iterator_with_base@Urandom_access_iterator_tag@std@@PEAVISG@@_JPEBQEAV3@AEBQEAV3@V_Iterator_base@2@@std@@QEAA@XZ 0000000180008d50 f i Instrument.obj
 0001:00007d70       ??0?$_Iterator_with_base@Urandom_access_iterator_tag@std@@PEAVIPM@@_JPEBQEAV3@AEBQEAV3@V_Iterator_base@2@@std@@QEAA@AEBU01@@Z 0000000180008d70 f i Instrument.obj
 0001:00007da0       ??1?$_Iterator_with_base@Urandom_access_iterator_tag@std@@PEAVIPM@@_JPEBQEAV3@AEBQEAV3@V_Iterator_base@2@@std@@QEAA@XZ 0000000180008da0 f i Instrument.obj
 0001:00007dc0       ?capacity@?$vector@PEAVISA@@V?$allocator@PEAVISA@@@std@@@std@@QEBA_KXZ 0000000180008dc0 f i Instrument.obj
 0001:00007e20       ?begin@?$vector@PEAVISA@@V?$allocator@PEAVISA@@@std@@@std@@QEAA?AV?$_Vector_iterator@PEAVISA@@V?$allocator@PEAVISA@@@std@@@2@XZ 0000000180008e20 f i Instrument.obj
 0001:00007e80       ?end@?$vector@PEAVISA@@V?$allocator@PEAVISA@@@std@@@std@@QEAA?AV?$_Vector_iterator@PEAVISA@@V?$allocator@PEAVISA@@@std@@@2@XZ 0000000180008e80 f i Instrument.obj
 0001:00007ee0       ?insert@?$vector@PEAVISA@@V?$allocator@PEAVISA@@@std@@@std@@QEAA?AV?$_Vector_iterator@PEAVISA@@V?$allocator@PEAVISA@@@std@@@2@V?$_Vector_const_iterator@PEAVISA@@V?$allocator@PEAVISA@@@std@@@2@AEBQEAVISA@@@Z 0000000180008ee0 f i Instrument.obj
 0001:000080d0       ?erase@?$vector@PEAVISA@@V?$allocator@PEAVISA@@@std@@@std@@QEAA?AV?$_Vector_iterator@PEAVISA@@V?$allocator@PEAVISA@@@std@@@2@V?$_Vector_const_iterator@PEAVISA@@V?$allocator@PEAVISA@@@std@@@2@0@Z 00000001800090d0 f i Instrument.obj
 0001:00008370       ?_Buy@?$vector@PEAVISA@@V?$allocator@PEAVISA@@@std@@@std@@IEAA_N_K@Z 0000000180009370 f i Instrument.obj
 0001:00008450       ?_Tidy@?$vector@PEAVISA@@V?$allocator@PEAVISA@@@std@@@std@@IEAAXXZ 0000000180009450 f i Instrument.obj
 0001:00008510       ?_Ufill@?$vector@PEAVISA@@V?$allocator@PEAVISA@@@std@@@std@@IEAAPEAPEAVISA@@PEAPEAV3@_KAEBQEAV3@@Z 0000000180009510 f i Instrument.obj
 0001:00008570       ?_Xran@?$vector@PEAVISA@@V?$allocator@PEAVISA@@@std@@@std@@KAXXZ 0000000180009570 f i Instrument.obj
 0001:000085f0       ??0out_of_range@std@@QEAA@AEBV?$basic_string@DU?$char_traits@D@std@@V?$allocator@D@2@@1@@Z 00000001800095f0 f i Instrument.obj
 0001:00008640       ??0logic_error@std@@QEAA@AEBV?$basic_string@DU?$char_traits@D@std@@V?$allocator@D@2@@1@@Z 0000000180009640 f i Instrument.obj
 0001:000086b0       ?what@logic_error@std@@UEBAPEBDXZ 00000001800096b0 f i Instrument.obj
 0001:000086e0       ??_Glogic_error@std@@UEAAPEAXI@Z 00000001800096e0 f i Instrument.obj
 0001:000086e0       ??_Elogic_error@std@@UEAAPEAXI@Z 00000001800096e0 f i Instrument.obj
 0001:00008730       ??1logic_error@std@@UEAA@XZ 0000000180009730 f i Instrument.obj
 0001:00008780       ??1out_of_range@std@@UEAA@XZ 0000000180009780 f i Instrument.obj
 0001:000087b0       ??_Gout_of_range@std@@UEAAPEAXI@Z 00000001800097b0 f i Instrument.obj
 0001:000087b0       ??_Eout_of_range@std@@UEAAPEAXI@Z 00000001800097b0 f i Instrument.obj
 0001:00008800       ??0out_of_range@std@@QEAA@AEBV01@@Z 0000000180009800 f i Instrument.obj
 0001:00008850       ??0logic_error@std@@QEAA@AEBV01@@Z 0000000180009850 f i Instrument.obj
 0001:000088c0       ?_Orphan_range@?$vector@PEAVISA@@V?$allocator@PEAVISA@@@std@@@std@@IEBAXPEAPEAVISA@@0@Z 00000001800098c0 f i Instrument.obj
 0001:00008990       ??0?$_Vector_val@PEAVISA@@V?$allocator@PEAVISA@@@std@@@std@@IEAA@V?$allocator@PEAVISA@@@1@@Z 0000000180009990 f i Instrument.obj
 0001:00008a00       ??1?$_Container_base_aux_alloc_empty@V?$allocator@PEAVISA@@@std@@@std@@IEAA@XZ 0000000180009a00 f i Instrument.obj
 0001:00008a20       ??0?$allocator@PEAVISA@@@std@@QEAA@XZ 0000000180009a20 f i Instrument.obj
 0001:00008a30       ?capacity@?$vector@PEAVISG@@V?$allocator@PEAVISG@@@std@@@std@@QEBA_KXZ 0000000180009a30 f i Instrument.obj
 0001:00008a90       ?begin@?$vector@PEAVISG@@V?$allocator@PEAVISG@@@std@@@std@@QEAA?AV?$_Vector_iterator@PEAVISG@@V?$allocator@PEAVISG@@@std@@@2@XZ 0000000180009a90 f i Instrument.obj
 0001:00008af0       ?end@?$vector@PEAVISG@@V?$allocator@PEAVISG@@@std@@@std@@QEAA?AV?$_Vector_iterator@PEAVISG@@V?$allocator@PEAVISG@@@std@@@2@XZ 0000000180009af0 f i Instrument.obj
 0001:00008b50       ?insert@?$vector@PEAVISG@@V?$allocator@PEAVISG@@@std@@@std@@QEAA?AV?$_Vector_iterator@PEAVISG@@V?$allocator@PEAVISG@@@std@@@2@V?$_Vector_const_iterator@PEAVISG@@V?$allocator@PEAVISG@@@std@@@2@AEBQEAVISG@@@Z 0000000180009b50 f i Instrument.obj
 0001:00008d40       ?erase@?$vector@PEAVISG@@V?$allocator@PEAVISG@@@std@@@std@@QEAA?AV?$_Vector_iterator@PEAVISG@@V?$allocator@PEAVISG@@@std@@@2@V?$_Vector_const_iterator@PEAVISG@@V?$allocator@PEAVISG@@@std@@@2@0@Z 0000000180009d40 f i Instrument.obj
 0001:00008fe0       ?_Buy@?$vector@PEAVISG@@V?$allocator@PEAVISG@@@std@@@std@@IEAA_N_K@Z 0000000180009fe0 f i Instrument.obj
 0001:000090c0       ?_Tidy@?$vector@PEAVISG@@V?$allocator@PEAVISG@@@std@@@std@@IEAAXXZ 000000018000a0c0 f i Instrument.obj
 0001:00009180       ?_Ufill@?$vector@PEAVISG@@V?$allocator@PEAVISG@@@std@@@std@@IEAAPEAPEAVISG@@PEAPEAV3@_KAEBQEAV3@@Z 000000018000a180 f i Instrument.obj
 0001:000091e0       ?_Xran@?$vector@PEAVISG@@V?$allocator@PEAVISG@@@std@@@std@@KAXXZ 000000018000a1e0 f i Instrument.obj
 0001:00009260       ?_Orphan_range@?$vector@PEAVISG@@V?$allocator@PEAVISG@@@std@@@std@@IEBAXPEAPEAVISG@@0@Z 000000018000a260 f i Instrument.obj
 0001:00009330       ??0?$_Vector_val@PEAVISG@@V?$allocator@PEAVISG@@@std@@@std@@IEAA@V?$allocator@PEAVISG@@@1@@Z 000000018000a330 f i Instrument.obj
 0001:000093a0       ??1?$_Container_base_aux_alloc_empty@V?$allocator@PEAVISG@@@std@@@std@@IEAA@XZ 000000018000a3a0 f i Instrument.obj
 0001:000093c0       ??0?$allocator@PEAVISG@@@std@@QEAA@XZ 000000018000a3c0 f i Instrument.obj
 0001:000093d0       ?capacity@?$vector@PEAVIPM@@V?$allocator@PEAVIPM@@@std@@@std@@QEBA_KXZ 000000018000a3d0 f i Instrument.obj
 0001:00009430       ?begin@?$vector@PEAVIPM@@V?$allocator@PEAVIPM@@@std@@@std@@QEAA?AV?$_Vector_iterator@PEAVIPM@@V?$allocator@PEAVIPM@@@std@@@2@XZ 000000018000a430 f i Instrument.obj
 0001:00009490       ?end@?$vector@PEAVIPM@@V?$allocator@PEAVIPM@@@std@@@std@@QEAA?AV?$_Vector_iterator@PEAVIPM@@V?$allocator@PEAVIPM@@@std@@@2@XZ 000000018000a490 f i Instrument.obj
 0001:000094f0       ?insert@?$vector@PEAVIPM@@V?$allocator@PEAVIPM@@@std@@@std@@QEAA?AV?$_Vector_iterator@PEAVIPM@@V?$allocator@PEAVIPM@@@std@@@2@V?$_Vector_const_iterator@PEAVIPM@@V?$allocator@PEAVIPM@@@std@@@2@AEBQEAVIPM@@@Z 000000018000a4f0 f i Instrument.obj
 0001:000096e0       ?erase@?$vector@PEAVIPM@@V?$allocator@PEAVIPM@@@std@@@std@@QEAA?AV?$_Vector_iterator@PEAVIPM@@V?$allocator@PEAVIPM@@@std@@@2@V?$_Vector_const_iterator@PEAVIPM@@V?$allocator@PEAVIPM@@@std@@@2@0@Z 000000018000a6e0 f i Instrument.obj
 0001:00009980       ?_Buy@?$vector@PEAVIPM@@V?$allocator@PEAVIPM@@@std@@@std@@IEAA_N_K@Z 000000018000a980 f i Instrument.obj
 0001:00009a60       ?_Tidy@?$vector@PEAVIPM@@V?$allocator@PEAVIPM@@@std@@@std@@IEAAXXZ 000000018000aa60 f i Instrument.obj
 0001:00009b20       ?_Ufill@?$vector@PEAVIPM@@V?$allocator@PEAVIPM@@@std@@@std@@IEAAPEAPEAVIPM@@PEAPEAV3@_KAEBQEAV3@@Z 000000018000ab20 f i Instrument.obj
 0001:00009b80       ?_Xran@?$vector@PEAVIPM@@V?$allocator@PEAVIPM@@@std@@@std@@KAXXZ 000000018000ab80 f i Instrument.obj
 0001:00009c00       ?_Orphan_range@?$vector@PEAVIPM@@V?$allocator@PEAVIPM@@@std@@@std@@IEBAXPEAPEAVIPM@@0@Z 000000018000ac00 f i Instrument.obj
 0001:00009cd0       ??0?$_Vector_val@PEAVIPM@@V?$allocator@PEAVIPM@@@std@@@std@@IEAA@V?$allocator@PEAVIPM@@@1@@Z 000000018000acd0 f i Instrument.obj
 0001:00009d40       ??1?$_Container_base_aux_alloc_empty@V?$allocator@PEAVIPM@@@std@@@std@@IEAA@XZ 000000018000ad40 f i Instrument.obj
 0001:00009d60       ??0?$allocator@PEAVIPM@@@std@@QEAA@XZ 000000018000ad60 f i Instrument.obj
 0001:00009d70       ??D?$_Vector_iterator@PEAVISA@@V?$allocator@PEAVISA@@@std@@@std@@QEBAAEAPEAVISA@@XZ 000000018000ad70 f i Instrument.obj
 0001:00009d90       ??H?$_Vector_iterator@PEAVISA@@V?$allocator@PEAVISA@@@std@@@std@@QEBA?AV01@_J@Z 000000018000ad90 f i Instrument.obj
 0001:00009e20       ??D?$_Vector_iterator@PEAVISG@@V?$allocator@PEAVISG@@@std@@@std@@QEBAAEAPEAVISG@@XZ 000000018000ae20 f i Instrument.obj
 0001:00009e40       ??H?$_Vector_iterator@PEAVISG@@V?$allocator@PEAVISG@@@std@@@std@@QEBA?AV01@_J@Z 000000018000ae40 f i Instrument.obj
 0001:00009ed0       ??D?$_Vector_iterator@PEAVIPM@@V?$allocator@PEAVIPM@@@std@@@std@@QEBAAEAPEAVIPM@@XZ 000000018000aed0 f i Instrument.obj
 0001:00009ef0       ??H?$_Vector_iterator@PEAVIPM@@V?$allocator@PEAVIPM@@@std@@@std@@QEBA?AV01@_J@Z 000000018000aef0 f i Instrument.obj
 0001:00009f80       ??0?$_Vector_iterator@PEAVISA@@V?$allocator@PEAVISA@@@std@@@std@@QEAA@AEBV01@@Z 000000018000af80 f i Instrument.obj
 0001:00009fb0       ??0?$_Vector_iterator@PEAVISG@@V?$allocator@PEAVISG@@@std@@@std@@QEAA@AEBV01@@Z 000000018000afb0 f i Instrument.obj
 0001:00009fe0       ??0?$_Vector_iterator@PEAVIPM@@V?$allocator@PEAVIPM@@@std@@@std@@QEAA@AEBV01@@Z 000000018000afe0 f i Instrument.obj
 0001:0000a010       ?_Make_iter@?$vector@PEAVISA@@V?$allocator@PEAVISA@@@std@@@std@@QEBA?AV?$_Vector_iterator@PEAVISA@@V?$allocator@PEAVISA@@@std@@@2@V?$_Vector_const_iterator@PEAVISA@@V?$allocator@PEAVISA@@@std@@@2@@Z 000000018000b010 f i Instrument.obj
 0001:0000a090       ?max_size@?$vector@PEAVISA@@V?$allocator@PEAVISA@@@std@@@std@@QEBA_KXZ 000000018000b090 f i Instrument.obj
 0001:0000a0c0       ?_Destroy@?$vector@PEAVISA@@V?$allocator@PEAVISA@@@std@@@std@@IEAAXPEAPEAVISA@@0@Z 000000018000b0c0 f i Instrument.obj
 0001:0000a100       ?_Insert_n@?$vector@PEAVISA@@V?$allocator@PEAVISA@@@std@@@std@@IEAAXV?$_Vector_const_iterator@PEAVISA@@V?$allocator@PEAVISA@@@std@@@2@_KAEBQEAVISA@@@Z 000000018000b100 f i Instrument.obj
 0001:0000a810       ?_Xlen@?$vector@PEAVISA@@V?$allocator@PEAVISA@@@std@@@std@@KAXXZ 000000018000b810 f i Instrument.obj
 0001:0000a890       ??0length_error@std@@QEAA@AEBV?$basic_string@DU?$char_traits@D@std@@V?$allocator@D@2@@1@@Z 000000018000b890 f i Instrument.obj
 0001:0000a8e0       ??1length_error@std@@UEAA@XZ 000000018000b8e0 f i Instrument.obj
 0001:0000a910       ??_Glength_error@std@@UEAAPEAXI@Z 000000018000b910 f i Instrument.obj
 0001:0000a910       ??_Elength_error@std@@UEAAPEAXI@Z 000000018000b910 f i Instrument.obj
 0001:0000a960       ??0?$_Container_base_aux_alloc_empty@V?$allocator@PEAVISA@@@std@@@std@@IEAA@V?$allocator@PEAVISA@@@1@@Z 000000018000b960 f i Instrument.obj
 0001:0000a990       ??0?$allocator@PEAVISA@@@std@@QEAA@AEBV01@@Z 000000018000b990 f i Instrument.obj
 0001:0000a9b0       ?deallocate@?$allocator@PEAVISA@@@std@@QEAAXPEAPEAVISA@@_K@Z 000000018000b9b0 f i Instrument.obj
 0001:0000a9e0       ?allocate@?$allocator@PEAVISA@@@std@@QEAAPEAPEAVISA@@_K@Z 000000018000b9e0 f i Instrument.obj
 0001:0000aa10       ?_Make_iter@?$vector@PEAVISG@@V?$allocator@PEAVISG@@@std@@@std@@QEBA?AV?$_Vector_iterator@PEAVISG@@V?$allocator@PEAVISG@@@std@@@2@V?$_Vector_const_iterator@PEAVISG@@V?$allocator@PEAVISG@@@std@@@2@@Z 000000018000ba10 f i Instrument.obj
 0001:0000aa90       ?max_size@?$vector@PEAVISG@@V?$allocator@PEAVISG@@@std@@@std@@QEBA_KXZ 000000018000ba90 f i Instrument.obj
 0001:0000aac0       ?_Destroy@?$vector@PEAVISG@@V?$allocator@PEAVISG@@@std@@@std@@IEAAXPEAPEAVISG@@0@Z 000000018000bac0 f i Instrument.obj
 0001:0000ab00       ?_Insert_n@?$vector@PEAVISG@@V?$allocator@PEAVISG@@@std@@@std@@IEAAXV?$_Vector_const_iterator@PEAVISG@@V?$allocator@PEAVISG@@@std@@@2@_KAEBQEAVISG@@@Z 000000018000bb00 f i Instrument.obj
 0001:0000b210       ?_Xlen@?$vector@PEAVISG@@V?$allocator@PEAVISG@@@std@@@std@@KAXXZ 000000018000c210 f i Instrument.obj
 0001:0000b290       ??0?$_Container_base_aux_alloc_empty@V?$allocator@PEAVISG@@@std@@@std@@IEAA@V?$allocator@PEAVISG@@@1@@Z 000000018000c290 f i Instrument.obj
 0001:0000b2c0       ??0?$allocator@PEAVISG@@@std@@QEAA@AEBV01@@Z 000000018000c2c0 f i Instrument.obj
 0001:0000b2e0       ?deallocate@?$allocator@PEAVISG@@@std@@QEAAXPEAPEAVISG@@_K@Z 000000018000c2e0 f i Instrument.obj
 0001:0000b310       ?allocate@?$allocator@PEAVISG@@@std@@QEAAPEAPEAVISG@@_K@Z 000000018000c310 f i Instrument.obj
 0001:0000b340       ?_Make_iter@?$vector@PEAVIPM@@V?$allocator@PEAVIPM@@@std@@@std@@QEBA?AV?$_Vector_iterator@PEAVIPM@@V?$allocator@PEAVIPM@@@std@@@2@V?$_Vector_const_iterator@PEAVIPM@@V?$allocator@PEAVIPM@@@std@@@2@@Z 000000018000c340 f i Instrument.obj
 0001:0000b3c0       ?max_size@?$vector@PEAVIPM@@V?$allocator@PEAVIPM@@@std@@@std@@QEBA_KXZ 000000018000c3c0 f i Instrument.obj
 0001:0000b3f0       ?_Destroy@?$vector@PEAVIPM@@V?$allocator@PEAVIPM@@@std@@@std@@IEAAXPEAPEAVIPM@@0@Z 000000018000c3f0 f i Instrument.obj
 0001:0000b430       ?_Insert_n@?$vector@PEAVIPM@@V?$allocator@PEAVIPM@@@std@@@std@@IEAAXV?$_Vector_const_iterator@PEAVIPM@@V?$allocator@PEAVIPM@@@std@@@2@_KAEBQEAVIPM@@@Z 000000018000c430 f i Instrument.obj
 0001:0000bb40       ?_Xlen@?$vector@PEAVIPM@@V?$allocator@PEAVIPM@@@std@@@std@@KAXXZ 000000018000cb40 f i Instrument.obj
 0001:0000bbc0       ??0?$_Container_base_aux_alloc_empty@V?$allocator@PEAVIPM@@@std@@@std@@IEAA@V?$allocator@PEAVIPM@@@1@@Z 000000018000cbc0 f i Instrument.obj
 0001:0000bbf0       ??0?$allocator@PEAVIPM@@@std@@QEAA@AEBV01@@Z 000000018000cbf0 f i Instrument.obj
 0001:0000bc10       ?deallocate@?$allocator@PEAVIPM@@@std@@QEAAXPEAPEAVIPM@@_K@Z 000000018000cc10 f i Instrument.obj
 0001:0000bc40       ?allocate@?$allocator@PEAVIPM@@@std@@QEAAPEAPEAVIPM@@_K@Z 000000018000cc40 f i Instrument.obj
 0001:0000bc70       ??0?$_Vector_iterator@PEAVISA@@V?$allocator@PEAVISA@@@std@@@std@@QEAA@PEAPEAVISA@@PEBV_Container_base_secure@1@@Z 000000018000cc70 f i Instrument.obj
 0001:0000bcb0       ??Y?$_Vector_iterator@PEAVISA@@V?$allocator@PEAVISA@@@std@@@std@@QEAAAEAV01@_J@Z 000000018000ccb0 f i Instrument.obj
 0001:0000bce0       ??D?$_Vector_const_iterator@PEAVISA@@V?$allocator@PEAVISA@@@std@@@std@@QEBAAEBQEAVISA@@XZ 000000018000cce0 f i Instrument.obj
 0001:0000bde0       ??G?$_Vector_const_iterator@PEAVISA@@V?$allocator@PEAVISA@@@std@@@std@@QEBA_JAEBV01@@Z 000000018000cde0 f i Instrument.obj
 0001:0000be30       ??9?$_Vector_const_iterator@PEAVISA@@V?$allocator@PEAVISA@@@std@@@std@@QEBA_NAEBV01@@Z 000000018000ce30 f i Instrument.obj
 0001:0000be80       ??M?$_Vector_const_iterator@PEAVISA@@V?$allocator@PEAVISA@@@std@@@std@@QEBA_NAEBV01@@Z 000000018000ce80 f i Instrument.obj
 0001:0000bee0       ??0?$_Vector_iterator@PEAVISG@@V?$allocator@PEAVISG@@@std@@@std@@QEAA@PEAPEAVISG@@PEBV_Container_base_secure@1@@Z 000000018000cee0 f i Instrument.obj
 0001:0000bf20       ??Y?$_Vector_iterator@PEAVISG@@V?$allocator@PEAVISG@@@std@@@std@@QEAAAEAV01@_J@Z 000000018000cf20 f i Instrument.obj
 0001:0000bf50       ??D?$_Vector_const_iterator@PEAVISG@@V?$allocator@PEAVISG@@@std@@@std@@QEBAAEBQEAVISG@@XZ 000000018000cf50 f i Instrument.obj
 0001:0000c050       ??G?$_Vector_const_iterator@PEAVISG@@V?$allocator@PEAVISG@@@std@@@std@@QEBA_JAEBV01@@Z 000000018000d050 f i Instrument.obj
 0001:0000c0a0       ??9?$_Vector_const_iterator@PEAVISG@@V?$allocator@PEAVISG@@@std@@@std@@QEBA_NAEBV01@@Z 000000018000d0a0 f i Instrument.obj
 0001:0000c0f0       ??M?$_Vector_const_iterator@PEAVISG@@V?$allocator@PEAVISG@@@std@@@std@@QEBA_NAEBV01@@Z 000000018000d0f0 f i Instrument.obj
 0001:0000c150       ??0?$_Vector_iterator@PEAVIPM@@V?$allocator@PEAVIPM@@@std@@@std@@QEAA@PEAPEAVIPM@@PEBV_Container_base_secure@1@@Z 000000018000d150 f i Instrument.obj
 0001:0000c190       ??Y?$_Vector_iterator@PEAVIPM@@V?$allocator@PEAVIPM@@@std@@@std@@QEAAAEAV01@_J@Z 000000018000d190 f i Instrument.obj
 0001:0000c1c0       ??D?$_Vector_const_iterator@PEAVIPM@@V?$allocator@PEAVIPM@@@std@@@std@@QEBAAEBQEAVIPM@@XZ 000000018000d1c0 f i Instrument.obj
 0001:0000c2c0       ??G?$_Vector_const_iterator@PEAVIPM@@V?$allocator@PEAVIPM@@@std@@@std@@QEBA_JAEBV01@@Z 000000018000d2c0 f i Instrument.obj
 0001:0000c310       ??9?$_Vector_const_iterator@PEAVIPM@@V?$allocator@PEAVIPM@@@std@@@std@@QEBA_NAEBV01@@Z 000000018000d310 f i Instrument.obj
 0001:0000c360       ??M?$_Vector_const_iterator@PEAVIPM@@V?$allocator@PEAVIPM@@@std@@@std@@QEBA_NAEBV01@@Z 000000018000d360 f i Instrument.obj
 0001:0000c3c0       ??0length_error@std@@QEAA@AEBV01@@Z 000000018000d3c0 f i Instrument.obj
 0001:0000c410       ?max_size@?$allocator@PEAVISA@@@std@@QEBA_KXZ 000000018000d410 f i Instrument.obj
 0001:0000c460       ?max_size@?$allocator@PEAVISG@@@std@@QEBA_KXZ 000000018000d460 f i Instrument.obj
 0001:0000c4b0       ?max_size@?$allocator@PEAVIPM@@@std@@QEBA_KXZ 000000018000d4b0 f i Instrument.obj
 0001:0000c500       ??0?$_Vector_const_iterator@PEAVISA@@V?$allocator@PEAVISA@@@std@@@std@@QEAA@PEAPEAVISA@@PEBV_Container_base_secure@1@@Z 000000018000d500 f i Instrument.obj
 0001:0000c610       ??Y?$_Vector_const_iterator@PEAVISA@@V?$allocator@PEAVISA@@@std@@@std@@QEAAAEAV01@_J@Z 000000018000d610 f i Instrument.obj
 0001:0000c7b0       ?_Getmycont@_Iterator_base@std@@QEBAPEBV_Container_base_secure@2@XZ 000000018000d7b0 f i Instrument.obj
 0001:0000c7d0       ?_Has_container@_Iterator_base@std@@QEBA_NXZ 000000018000d7d0 f i Instrument.obj
 0001:0000c810       ??8?$_Vector_const_iterator@PEAVISA@@V?$allocator@PEAVISA@@@std@@@std@@QEBA_NAEBV01@@Z 000000018000d810 f i Instrument.obj
 0001:0000c870       ?_Compat@?$_Vector_const_iterator@PEAVISA@@V?$allocator@PEAVISA@@@std@@@std@@QEBAXAEBV12@@Z 000000018000d870 f i Instrument.obj
 0001:0000c950       ??0?$_Vector_const_iterator@PEAVISG@@V?$allocator@PEAVISG@@@std@@@std@@QEAA@PEAPEAVISG@@PEBV_Container_base_secure@1@@Z 000000018000d950 f i Instrument.obj
 0001:0000ca60       ??Y?$_Vector_const_iterator@PEAVISG@@V?$allocator@PEAVISG@@@std@@@std@@QEAAAEAV01@_J@Z 000000018000da60 f i Instrument.obj
 0001:0000cc00       ??8?$_Vector_const_iterator@PEAVISG@@V?$allocator@PEAVISG@@@std@@@std@@QEBA_NAEBV01@@Z 000000018000dc00 f i Instrument.obj
 0001:0000cc60       ?_Compat@?$_Vector_const_iterator@PEAVISG@@V?$allocator@PEAVISG@@@std@@@std@@QEBAXAEBV12@@Z 000000018000dc60 f i Instrument.obj
 0001:0000cd40       ??0?$_Vector_const_iterator@PEAVIPM@@V?$allocator@PEAVIPM@@@std@@@std@@QEAA@PEAPEAVIPM@@PEBV_Container_base_secure@1@@Z 000000018000dd40 f i Instrument.obj
 0001:0000ce50       ??Y?$_Vector_const_iterator@PEAVIPM@@V?$allocator@PEAVIPM@@@std@@@std@@QEAAAEAV01@_J@Z 000000018000de50 f i Instrument.obj
 0001:0000cff0       ??8?$_Vector_const_iterator@PEAVIPM@@V?$allocator@PEAVIPM@@@std@@@std@@QEBA_NAEBV01@@Z 000000018000dff0 f i Instrument.obj
 0001:0000d050       ?_Compat@?$_Vector_const_iterator@PEAVIPM@@V?$allocator@PEAVIPM@@@std@@@std@@QEBAXAEBV12@@Z 000000018000e050 f i Instrument.obj
 0001:0000d130       ??0?$_Ranit@PEAVISA@@_JPEBQEAV1@AEBQEAV1@@std@@QEAA@XZ 000000018000e130 f i Instrument.obj
 0001:0000d160       ??0?$_Ranit@PEAVISG@@_JPEBQEAV1@AEBQEAV1@@std@@QEAA@XZ 000000018000e160 f i Instrument.obj
 0001:0000d190       ??0?$_Ranit@PEAVIPM@@_JPEBQEAV1@AEBQEAV1@@std@@QEAA@XZ 000000018000e190 f i Instrument.obj
 0001:0000d1c0       ??0?$_Iterator_with_base@Urandom_access_iterator_tag@std@@PEAVISA@@_JPEBQEAV3@AEBQEAV3@V_Iterator_base@2@@std@@QEAA@XZ 000000018000e1c0 f i Instrument.obj
 0001:0000d1f0       ??0_Iterator_base@std@@QEAA@XZ 000000018000e1f0 f i Instrument.obj
 0001:0000d220       ??0?$_Iterator_with_base@Urandom_access_iterator_tag@std@@PEAVISG@@_JPEBQEAV3@AEBQEAV3@V_Iterator_base@2@@std@@QEAA@XZ 000000018000e220 f i Instrument.obj
 0001:0000d250       ??0?$_Iterator_with_base@Urandom_access_iterator_tag@std@@PEAVIPM@@_JPEBQEAV3@AEBQEAV3@V_Iterator_base@2@@std@@QEAA@XZ 000000018000e250 f i Instrument.obj
 0001:0000d280       ??$vsprintf_s@$0BAA@@@YAHAEAY0BAA@DPEBDPEAD@Z 000000018000e280 f i Instrument.obj
 0001:0000d2c0       ??$strcpy_s@$0BA@@@YAHAEAY0BA@DPEBD@Z 000000018000e2c0 f i Instrument.obj
 0001:0000d300       ??$unchecked_copy@PEAPEAVISA@@PEAPEAV1@@stdext@@YAPEAPEAVISA@@PEAPEAV1@00@Z 000000018000e300 f i Instrument.obj
 0001:0000d3c0       ??$unchecked_uninitialized_fill_n@PEAPEAVISA@@_KPEAV1@V?$allocator@PEAVISA@@@std@@@stdext@@YAXPEAPEAVISA@@_KAEBQEAV1@AEAV?$allocator@PEAVISA@@@std@@@Z 000000018000e3c0 f i Instrument.obj
 0001:0000d450       ??$unchecked_copy@PEAPEAVISG@@PEAPEAV1@@stdext@@YAPEAPEAVISG@@PEAPEAV1@00@Z 000000018000e450 f i Instrument.obj
 0001:0000d510       ??$unchecked_uninitialized_fill_n@PEAPEAVISG@@_KPEAV1@V?$allocator@PEAVISG@@@std@@@stdext@@YAXPEAPEAVISG@@_KAEBQEAV1@AEAV?$allocator@PEAVISG@@@std@@@Z 000000018000e510 f i Instrument.obj
 0001:0000d5a0       ??$unchecked_copy@PEAPEAVIPM@@PEAPEAV1@@stdext@@YAPEAPEAVIPM@@PEAPEAV1@00@Z 000000018000e5a0 f i Instrument.obj
 0001:0000d660       ??$unchecked_uninitialized_fill_n@PEAPEAVIPM@@_KPEAV1@V?$allocator@PEAVIPM@@@std@@@stdext@@YAXPEAPEAVIPM@@_KAEBQEAV1@AEAV?$allocator@PEAVIPM@@@std@@@Z 000000018000e660 f i Instrument.obj
 0001:0000d6f0       ??$_Destroy_range@V?$allocator@PEAVISA@@@std@@@std@@YAXPEAPEAVISA@@0AEAV?$allocator@PEAVISA@@@0@@Z 000000018000e6f0 f i Instrument.obj
 0001:0000d750       ??$_Umove@PEAPEAVISA@@@?$vector@PEAVISA@@V?$allocator@PEAVISA@@@std@@@std@@IEAAPEAPEAVISA@@PEAPEAV2@00@Z 000000018000e750 f i Instrument.obj
 0001:0000d7a0       ??$fill@PEAPEAVISA@@PEAV1@@std@@YAXPEAPEAVISA@@0AEBQEAV1@@Z 000000018000e7a0 f i Instrument.obj
 0001:0000d800       ??$_Unchecked_move_backward@PEAPEAVISA@@PEAPEAV1@@stdext@@YAPEAPEAVISA@@PEAPEAV1@00@Z 000000018000e800 f i Instrument.obj
 0001:0000d8b0       ??$_Allocate@PEAVISA@@@std@@YAPEAPEAVISA@@_KPEAPEAV1@@Z 000000018000e8b0 f i Instrument.obj
 0001:0000d930       ??0bad_alloc@std@@QEAA@PEBD@Z 000000018000e930 f i Instrument.obj
 0001:0000d980       ??1bad_alloc@std@@UEAA@XZ  000000018000e980 f i Instrument.obj
 0001:0000d9c0       ??_Gbad_alloc@std@@UEAAPEAXI@Z 000000018000e9c0 f i Instrument.obj
 0001:0000d9c0       ??_Ebad_alloc@std@@UEAAPEAXI@Z 000000018000e9c0 f i Instrument.obj
 0001:0000da10       ??0bad_alloc@std@@QEAA@AEBV01@@Z 000000018000ea10 f i Instrument.obj
 0001:0000da60       ??$_Destroy_range@V?$allocator@PEAVISG@@@std@@@std@@YAXPEAPEAVISG@@0AEAV?$allocator@PEAVISG@@@0@@Z 000000018000ea60 f i Instrument.obj
 0001:0000dac0       ??$_Umove@PEAPEAVISG@@@?$vector@PEAVISG@@V?$allocator@PEAVISG@@@std@@@std@@IEAAPEAPEAVISG@@PEAPEAV2@00@Z 000000018000eac0 f i Instrument.obj
 0001:0000db10       ??$fill@PEAPEAVISG@@PEAV1@@std@@YAXPEAPEAVISG@@0AEBQEAV1@@Z 000000018000eb10 f i Instrument.obj
 0001:0000db70       ??$_Unchecked_move_backward@PEAPEAVISG@@PEAPEAV1@@stdext@@YAPEAPEAVISG@@PEAPEAV1@00@Z 000000018000eb70 f i Instrument.obj
 0001:0000dc20       ??$_Allocate@PEAVISG@@@std@@YAPEAPEAVISG@@_KPEAPEAV1@@Z 000000018000ec20 f i Instrument.obj
 0001:0000dca0       ??$_Destroy_range@V?$allocator@PEAVIPM@@@std@@@std@@YAXPEAPEAVIPM@@0AEAV?$allocator@PEAVIPM@@@0@@Z 000000018000eca0 f i Instrument.obj
 0001:0000dd00       ??$_Umove@PEAPEAVIPM@@@?$vector@PEAVIPM@@V?$allocator@PEAVIPM@@@std@@@std@@IEAAPEAPEAVIPM@@PEAPEAV2@00@Z 000000018000ed00 f i Instrument.obj
 0001:0000dd50       ??$fill@PEAPEAVIPM@@PEAV1@@std@@YAXPEAPEAVIPM@@0AEBQEAV1@@Z 000000018000ed50 f i Instrument.obj
 0001:0000ddb0       ??$_Unchecked_move_backward@PEAPEAVIPM@@PEAPEAV1@@stdext@@YAPEAPEAVIPM@@PEAPEAV1@00@Z 000000018000edb0 f i Instrument.obj
 0001:0000de60       ??$_Allocate@PEAVIPM@@@std@@YAPEAPEAVIPM@@_KPEAPEAV1@@Z 000000018000ee60 f i Instrument.obj
 0001:0000dee0       ??$_Checked_base@PEAPEAVISA@@@std@@YAPEAPEAVISA@@AEAPEAPEAV1@@Z 000000018000eee0 f i Instrument.obj
 0001:0000df10       ??$_Iter_random@PEAPEAVISA@@PEAPEAV1@@std@@YA?AUrandom_access_iterator_tag@0@AEBQEAPEAVISA@@0@Z 000000018000ef10 f i Instrument.obj
 0001:0000df40       ??$_Ptr_cat@PEAPEAVISA@@PEAPEAV1@@std@@YA?AU_Scalar_ptr_iterator_tag@0@AEAPEAPEAVISA@@0@Z 000000018000ef40 f i Instrument.obj
 0001:0000df60       ??$_Copy_opt@PEAPEAVISA@@PEAPEAV1@Urandom_access_iterator_tag@std@@@std@@YAPEAPEAVISA@@PEAPEAV1@00Urandom_access_iterator_tag@0@U_Scalar_ptr_iterator_tag@0@U_Range_checked_iterator_tag@0@@Z 000000018000ef60 f i Instrument.obj
 0001:0000e050       ??$_Uninit_fill_n@PEAPEAVISA@@_KPEAV1@V?$allocator@PEAVISA@@@std@@@std@@YAXPEAPEAVISA@@_KAEBQEAV1@AEAV?$allocator@PEAVISA@@@0@U_Scalar_ptr_iterator_tag@0@U_Range_checked_iterator_tag@0@@Z 000000018000f050 f i Instrument.obj
 0001:0000e090       ??$_Checked_base@PEAPEAVISG@@@std@@YAPEAPEAVISG@@AEAPEAPEAV1@@Z 000000018000f090 f i Instrument.obj
 0001:0000e0c0       ??$_Iter_random@PEAPEAVISG@@PEAPEAV1@@std@@YA?AUrandom_access_iterator_tag@0@AEBQEAPEAVISG@@0@Z 000000018000f0c0 f i Instrument.obj
 0001:0000e0f0       ??$_Ptr_cat@PEAPEAVISG@@PEAPEAV1@@std@@YA?AU_Scalar_ptr_iterator_tag@0@AEAPEAPEAVISG@@0@Z 000000018000f0f0 f i Instrument.obj
 0001:0000e110       ??$_Copy_opt@PEAPEAVISG@@PEAPEAV1@Urandom_access_iterator_tag@std@@@std@@YAPEAPEAVISG@@PEAPEAV1@00Urandom_access_iterator_tag@0@U_Scalar_ptr_iterator_tag@0@U_Range_checked_iterator_tag@0@@Z 000000018000f110 f i Instrument.obj
 0001:0000e200       ??$_Uninit_fill_n@PEAPEAVISG@@_KPEAV1@V?$allocator@PEAVISG@@@std@@@std@@YAXPEAPEAVISG@@_KAEBQEAV1@AEAV?$allocator@PEAVISG@@@0@U_Scalar_ptr_iterator_tag@0@U_Range_checked_iterator_tag@0@@Z 000000018000f200 f i Instrument.obj
 0001:0000e240       ??$_Checked_base@PEAPEAVIPM@@@std@@YAPEAPEAVIPM@@AEAPEAPEAV1@@Z 000000018000f240 f i Instrument.obj
 0001:0000e270       ??$_Iter_random@PEAPEAVIPM@@PEAPEAV1@@std@@YA?AUrandom_access_iterator_tag@0@AEBQEAPEAVIPM@@0@Z 000000018000f270 f i Instrument.obj
 0001:0000e2a0       ??$_Ptr_cat@PEAPEAVIPM@@PEAPEAV1@@std@@YA?AU_Scalar_ptr_iterator_tag@0@AEAPEAPEAVIPM@@0@Z 000000018000f2a0 f i Instrument.obj
 0001:0000e2c0       ??$_Copy_opt@PEAPEAVIPM@@PEAPEAV1@Urandom_access_iterator_tag@std@@@std@@YAPEAPEAVIPM@@PEAPEAV1@00Urandom_access_iterator_tag@0@U_Scalar_ptr_iterator_tag@0@U_Range_checked_iterator_tag@0@@Z 000000018000f2c0 f i Instrument.obj
 0001:0000e3b0       ??$_Uninit_fill_n@PEAPEAVIPM@@_KPEAV1@V?$allocator@PEAVIPM@@@std@@@std@@YAXPEAPEAVIPM@@_KAEBQEAV1@AEAV?$allocator@PEAVIPM@@@0@U_Scalar_ptr_iterator_tag@0@U_Range_checked_iterator_tag@0@@Z 000000018000f3b0 f i Instrument.obj
 0001:0000e3f0       ??$_Destroy_range@V?$allocator@PEAVISA@@@std@@@std@@YAXPEAPEAVISA@@0AEAV?$allocator@PEAVISA@@@0@U_Scalar_ptr_iterator_tag@0@@Z 000000018000f3f0 f i Instrument.obj
 0001:0000e410       ??$_Unchecked_uninitialized_move@PEAPEAVISA@@PEAPEAV1@V?$allocator@PEAVISA@@@std@@@stdext@@YAPEAPEAVISA@@PEAPEAV1@00AEAV?$allocator@PEAVISA@@@std@@@Z 000000018000f410 f i Instrument.obj
 0001:0000e4b0       ??$_Fill@PEAPEAVISA@@PEAV1@@std@@YAXPEAPEAVISA@@0AEBQEAV1@@Z 000000018000f4b0 f i Instrument.obj
 0001:0000e530       ??$_Move_cat@PEAPEAVISA@@@std@@YA?AU_Undefined_move_tag@0@AEBQEAPEAVISA@@@Z 000000018000f530 f i Instrument.obj
 0001:0000e550       ??$_Move_backward_opt@PEAPEAVISA@@PEAPEAV1@Urandom_access_iterator_tag@std@@U_Undefined_move_tag@3@@std@@YAPEAPEAVISA@@PEAPEAV1@00Urandom_access_iterator_tag@0@U_Undefined_move_tag@0@U_Range_checked_iterator_tag@0@@Z 000000018000f550 f i Instrument.obj
 0001:0000e5e0       ??$_Destroy_range@V?$allocator@PEAVISG@@@std@@@std@@YAXPEAPEAVISG@@0AEAV?$allocator@PEAVISG@@@0@U_Scalar_ptr_iterator_tag@0@@Z 000000018000f5e0 f i Instrument.obj
 0001:0000e600       ??$_Unchecked_uninitialized_move@PEAPEAVISG@@PEAPEAV1@V?$allocator@PEAVISG@@@std@@@stdext@@YAPEAPEAVISG@@PEAPEAV1@00AEAV?$allocator@PEAVISG@@@std@@@Z 000000018000f600 f i Instrument.obj
 0001:0000e6a0       ??$_Fill@PEAPEAVISG@@PEAV1@@std@@YAXPEAPEAVISG@@0AEBQEAV1@@Z 000000018000f6a0 f i Instrument.obj
 0001:0000e720       ??$_Move_cat@PEAPEAVISG@@@std@@YA?AU_Undefined_move_tag@0@AEBQEAPEAVISG@@@Z 000000018000f720 f i Instrument.obj
 0001:0000e740       ??$_Move_backward_opt@PEAPEAVISG@@PEAPEAV1@Urandom_access_iterator_tag@std@@U_Undefined_move_tag@3@@std@@YAPEAPEAVISG@@PEAPEAV1@00Urandom_access_iterator_tag@0@U_Undefined_move_tag@0@U_Range_checked_iterator_tag@0@@Z 000000018000f740 f i Instrument.obj
 0001:0000e7d0       ??$_Destroy_range@V?$allocator@PEAVIPM@@@std@@@std@@YAXPEAPEAVIPM@@0AEAV?$allocator@PEAVIPM@@@0@U_Scalar_ptr_iterator_tag@0@@Z 000000018000f7d0 f i Instrument.obj
 0001:0000e7f0       ??$_Unchecked_uninitialized_move@PEAPEAVIPM@@PEAPEAV1@V?$allocator@PEAVIPM@@@std@@@stdext@@YAPEAPEAVIPM@@PEAPEAV1@00AEAV?$allocator@PEAVIPM@@@std@@@Z 000000018000f7f0 f i Instrument.obj
 0001:0000e890       ??$_Fill@PEAPEAVIPM@@PEAV1@@std@@YAXPEAPEAVIPM@@0AEBQEAV1@@Z 000000018000f890 f i Instrument.obj
 0001:0000e910       ??$_Move_cat@PEAPEAVIPM@@@std@@YA?AU_Undefined_move_tag@0@AEBQEAPEAVIPM@@@Z 000000018000f910 f i Instrument.obj
 0001:0000e930       ??$_Move_backward_opt@PEAPEAVIPM@@PEAPEAV1@Urandom_access_iterator_tag@std@@U_Undefined_move_tag@3@@std@@YAPEAPEAVIPM@@PEAPEAV1@00Urandom_access_iterator_tag@0@U_Undefined_move_tag@0@U_Range_checked_iterator_tag@0@@Z 000000018000f930 f i Instrument.obj
 0001:0000e9c0       ??$_Checked_base@PEAPEAVISA@@@std@@YAPEAPEAVISA@@AEAPEAPEAV1@U_Unchanged_checked_iterator_base_type_tag@0@@Z 000000018000f9c0 f i Instrument.obj
 0001:0000e9e0       ??$_Debug_range@PEAPEAVISA@@@std@@YAXPEAPEAVISA@@0PEB_WI@Z 000000018000f9e0 f i Instrument.obj
 0001:0000ea40       ??$_Debug_pointer@PEAVISA@@@std@@YAXPEAPEAVISA@@PEB_WI@Z 000000018000fa40 f i Instrument.obj
 0001:0000ea90       ??$unchecked_fill_n@PEAPEAVISA@@_KPEAV1@@stdext@@YAXPEAPEAVISA@@_KAEBQEAV1@@Z 000000018000fa90 f i Instrument.obj
 0001:0000eb10       ??$_Checked_base@PEAPEAVISG@@@std@@YAPEAPEAVISG@@AEAPEAPEAV1@U_Unchanged_checked_iterator_base_type_tag@0@@Z 000000018000fb10 f i Instrument.obj
 0001:0000eb30       ??$_Debug_range@PEAPEAVISG@@@std@@YAXPEAPEAVISG@@0PEB_WI@Z 000000018000fb30 f i Instrument.obj
 0001:0000eb90       ??$_Debug_pointer@PEAVISG@@@std@@YAXPEAPEAVISG@@PEB_WI@Z 000000018000fb90 f i Instrument.obj
 0001:0000ebe0       ??$unchecked_fill_n@PEAPEAVISG@@_KPEAV1@@stdext@@YAXPEAPEAVISG@@_KAEBQEAV1@@Z 000000018000fbe0 f i Instrument.obj
 0001:0000ec60       ??$_Checked_base@PEAPEAVIPM@@@std@@YAPEAPEAVIPM@@AEAPEAPEAV1@U_Unchanged_checked_iterator_base_type_tag@0@@Z 000000018000fc60 f i Instrument.obj
 0001:0000ec80       ??$_Debug_range@PEAPEAVIPM@@@std@@YAXPEAPEAVIPM@@0PEB_WI@Z 000000018000fc80 f i Instrument.obj
 0001:0000ece0       ??$_Debug_pointer@PEAVIPM@@@std@@YAXPEAPEAVIPM@@PEB_WI@Z 000000018000fce0 f i Instrument.obj
 0001:0000ed30       ??$unchecked_fill_n@PEAPEAVIPM@@_KPEAV1@@stdext@@YAXPEAPEAVIPM@@_KAEBQEAV1@@Z 000000018000fd30 f i Instrument.obj
 0001:0000edb0       ??$_Uninit_move@PEAPEAVISA@@PEAPEAV1@V?$allocator@PEAVISA@@@std@@U_Undefined_move_tag@3@@std@@YAPEAPEAVISA@@PEAPEAV1@00AEAV?$allocator@PEAVISA@@@0@U_Undefined_move_tag@0@U_Range_checked_iterator_tag@0@@Z 000000018000fdb0 f i Instrument.obj
 0001:0000ee00       ??$_Copy_backward_opt@PEAPEAVISA@@PEAPEAV1@Urandom_access_iterator_tag@std@@@std@@YAPEAPEAVISA@@PEAPEAV1@00Urandom_access_iterator_tag@0@U_Scalar_ptr_iterator_tag@0@U_Range_checked_iterator_tag@0@@Z 000000018000fe00 f i Instrument.obj
 0001:0000eef0       ??$_Uninit_move@PEAPEAVISG@@PEAPEAV1@V?$allocator@PEAVISG@@@std@@U_Undefined_move_tag@3@@std@@YAPEAPEAVISG@@PEAPEAV1@00AEAV?$allocator@PEAVISG@@@0@U_Undefined_move_tag@0@U_Range_checked_iterator_tag@0@@Z 000000018000fef0 f i Instrument.obj
 0001:0000ef40       ??$_Copy_backward_opt@PEAPEAVISG@@PEAPEAV1@Urandom_access_iterator_tag@std@@@std@@YAPEAPEAVISG@@PEAPEAV1@00Urandom_access_iterator_tag@0@U_Scalar_ptr_iterator_tag@0@U_Range_checked_iterator_tag@0@@Z 000000018000ff40 f i Instrument.obj
 0001:0000f030       ??$_Uninit_move@PEAPEAVIPM@@PEAPEAV1@V?$allocator@PEAVIPM@@@std@@U_Undefined_move_tag@3@@std@@YAPEAPEAVIPM@@PEAPEAV1@00AEAV?$allocator@PEAVIPM@@@0@U_Undefined_move_tag@0@U_Range_checked_iterator_tag@0@@Z 0000000180010030 f i Instrument.obj
 0001:0000f080       ??$_Copy_backward_opt@PEAPEAVIPM@@PEAPEAV1@Urandom_access_iterator_tag@std@@@std@@YAPEAPEAVIPM@@PEAPEAV1@00Urandom_access_iterator_tag@0@U_Scalar_ptr_iterator_tag@0@U_Range_checked_iterator_tag@0@@Z 0000000180010080 f i Instrument.obj
 0001:0000f170       ??$_Iter_cat@PEAPEAVISA@@@std@@YA?AUrandom_access_iterator_tag@0@AEBQEAPEAVISA@@@Z 0000000180010170 f i Instrument.obj
 0001:0000f190       ??$_Debug_range2@PEAPEAVISA@@@std@@YAXPEAPEAVISA@@0PEB_WIUrandom_access_iterator_tag@0@@Z 0000000180010190 f i Instrument.obj
 0001:0000f230       ??$_Fill_n@PEAPEAVISA@@_KPEAV1@@std@@YAXPEAPEAVISA@@_KAEBQEAV1@Urandom_access_iterator_tag@0@U_Range_checked_iterator_tag@0@@Z 0000000180010230 f i Instrument.obj
 0001:0000f2b0       ??$_Iter_cat@PEAPEAVISG@@@std@@YA?AUrandom_access_iterator_tag@0@AEBQEAPEAVISG@@@Z 00000001800102b0 f i Instrument.obj
 0001:0000f2d0       ??$_Debug_range2@PEAPEAVISG@@@std@@YAXPEAPEAVISG@@0PEB_WIUrandom_access_iterator_tag@0@@Z 00000001800102d0 f i Instrument.obj
 0001:0000f370       ??$_Fill_n@PEAPEAVISG@@_KPEAV1@@std@@YAXPEAPEAVISG@@_KAEBQEAV1@Urandom_access_iterator_tag@0@U_Range_checked_iterator_tag@0@@Z 0000000180010370 f i Instrument.obj
 0001:0000f3f0       ??$_Iter_cat@PEAPEAVIPM@@@std@@YA?AUrandom_access_iterator_tag@0@AEBQEAPEAVIPM@@@Z 00000001800103f0 f i Instrument.obj
 0001:0000f410       ??$_Debug_range2@PEAPEAVIPM@@@std@@YAXPEAPEAVIPM@@0PEB_WIUrandom_access_iterator_tag@0@@Z 0000000180010410 f i Instrument.obj
 0001:0000f4b0       ??$_Fill_n@PEAPEAVIPM@@_KPEAV1@@std@@YAXPEAPEAVIPM@@_KAEBQEAV1@Urandom_access_iterator_tag@0@U_Range_checked_iterator_tag@0@@Z 00000001800104b0 f i Instrument.obj
 0001:0000f530       ??$unchecked_uninitialized_copy@PEAPEAVISA@@PEAPEAV1@V?$allocator@PEAVISA@@@std@@@stdext@@YAPEAPEAVISA@@PEAPEAV1@00AEAV?$allocator@PEAVISA@@@std@@@Z 0000000180010530 f i Instrument.obj
 0001:0000f5d0       ??$unchecked_uninitialized_copy@PEAPEAVISG@@PEAPEAV1@V?$allocator@PEAVISG@@@std@@@stdext@@YAPEAPEAVISG@@PEAPEAV1@00AEAV?$allocator@PEAVISG@@@std@@@Z 00000001800105d0 f i Instrument.obj
 0001:0000f670       ??$unchecked_uninitialized_copy@PEAPEAVIPM@@PEAPEAV1@V?$allocator@PEAVIPM@@@std@@@stdext@@YAPEAPEAVIPM@@PEAPEAV1@00AEAV?$allocator@PEAVIPM@@@std@@@Z 0000000180010670 f i Instrument.obj
 0001:0000f710       ??$_Fill_n@PEAPEAVISA@@_KPEAV1@@std@@YAXPEAPEAVISA@@_KAEBQEAV1@U_Range_checked_iterator_tag@0@@Z 0000000180010710 f i Instrument.obj
 0001:0000f780       ??$_Fill_n@PEAPEAVISG@@_KPEAV1@@std@@YAXPEAPEAVISG@@_KAEBQEAV1@U_Range_checked_iterator_tag@0@@Z 0000000180010780 f i Instrument.obj
 0001:0000f7f0       ??$_Fill_n@PEAPEAVIPM@@_KPEAV1@@std@@YAXPEAPEAVIPM@@_KAEBQEAV1@U_Range_checked_iterator_tag@0@@Z 00000001800107f0 f i Instrument.obj
 0001:0000f860       ??$_Uninit_copy@PEAPEAVISA@@PEAPEAV1@V?$allocator@PEAVISA@@@std@@@std@@YAPEAPEAVISA@@PEAPEAV1@00AEAV?$allocator@PEAVISA@@@0@U_Scalar_ptr_iterator_tag@0@U_Range_checked_iterator_tag@0@@Z 0000000180010860 f i Instrument.obj
 0001:0000f940       ??$_Uninit_copy@PEAPEAVISG@@PEAPEAV1@V?$allocator@PEAVISG@@@std@@@std@@YAPEAPEAVISG@@PEAPEAV1@00AEAV?$allocator@PEAVISG@@@0@U_Scalar_ptr_iterator_tag@0@U_Range_checked_iterator_tag@0@@Z 0000000180010940 f i Instrument.obj
 0001:0000fa20       ??$_Uninit_copy@PEAPEAVIPM@@PEAPEAV1@V?$allocator@PEAVIPM@@@std@@@std@@YAPEAPEAVIPM@@PEAPEAV1@00AEAV?$allocator@PEAVIPM@@@0@U_Scalar_ptr_iterator_tag@0@U_Range_checked_iterator_tag@0@@Z 0000000180010a20 f i Instrument.obj
 0001:0000fb00       ??0ISA@@QEAA@XZ            0000000180010b00 f   ISA.obj
 0001:0000fb40       ??1ISA@@UEAA@XZ            0000000180010b40 f   ISA.obj
 0001:0000fb70       ?SetRefAuto@ISA@@UEAA_NXZ  0000000180010b70 f   ISA.obj
 0001:0000fd40       ??_EISA@@UEAAPEAXI@Z       0000000180010d40 f i ISA.obj
 0001:0000fd40       ??_GISA@@UEAAPEAXI@Z       0000000180010d40 f i ISA.obj
 0001:0000fd90       ??0N5182A@@QEAA@XZ         0000000180010d90 f   N5182A.obj
 0001:0000fdd0       ??1N5182A@@UEAA@XZ         0000000180010dd0 f   N5182A.obj
 0001:0000fe00       ?GetDes@N5182A@@UEAAPEADXZ 0000000180010e00 f   N5182A.obj
 0001:0000fe30       ??_EN5182A@@UEAAPEAXI@Z    0000000180010e30 f i N5182A.obj
 0001:0000fe30       ??_GN5182A@@UEAAPEAXI@Z    0000000180010e30 f i N5182A.obj
 0001:0000fe80       ??0N5182B@@QEAA@XZ         0000000180010e80 f   N5182B.obj
 0001:0000fec0       ??1N5182B@@UEAA@XZ         0000000180010ec0 f   N5182B.obj
 0001:0000fef0       ?GetDefaultPriAddr@N5182B@@UEAAHXZ 0000000180010ef0 f   N5182B.obj
 0001:0000ff10       ?GetDefaultSecAddr@N5182B@@UEAAHXZ 0000000180010f10 f   N5182B.obj
 0001:0000ff30       ?GetDes@N5182B@@UEAAPEADXZ 0000000180010f30 f   N5182B.obj
 0001:0000ff50       ?Reset@N5182B@@UEAA_NXZ    0000000180010f50 f   N5182B.obj
 0001:0000ff80       ?SetCW@N5182B@@UEAA_NN@Z   0000000180010f80 f   N5182B.obj
 0001:0000fff0       ?GetCW@N5182B@@UEAA_NAEAN@Z 0000000180010ff0 f   N5182B.obj
 0001:000100d0       ?SetPL@N5182B@@UEAA_NN@Z   00000001800110d0 f   N5182B.obj
 0001:00010140       ?GetPL@N5182B@@UEAA_NAEAN@Z 0000000180011140 f   N5182B.obj
 0001:00010220       ?SetOutputEnable@N5182B@@UEAA_N_N@Z 0000000180011220 f   N5182B.obj
 0001:00010280       ?SetModEnable@N5182B@@UEAA_N_N@Z 0000000180011280 f   N5182B.obj
 0001:000103f0       ??0ISG@@QEAA@XZ            00000001800113f0 f i N5182B.obj
 0001:00010430       ??_EISG@@UEAAPEAXI@Z       0000000180011430 f i N5182B.obj
 0001:00010430       ??_GISG@@UEAAPEAXI@Z       0000000180011430 f i N5182B.obj
 0001:00010480       ??1ISG@@UEAA@XZ            0000000180011480 f i N5182B.obj
 0001:000104b0       ??_EN5182B@@UEAAPEAXI@Z    00000001800114b0 f i N5182B.obj
 0001:000104b0       ??_GN5182B@@UEAAPEAXI@Z    00000001800114b0 f i N5182B.obj
 0001:00010500       ??0N9010A@@QEAA@XZ         0000000180011500 f   N9010A.obj
 0001:00010540       ??1N9010A@@UEAA@XZ         0000000180011540 f   N9010A.obj
 0001:00010570       ?GetDes@N9010A@@UEAAPEADXZ 0000000180011570 f   N9010A.obj
 0001:000105a0       ??_EN9010A@@UEAAPEAXI@Z    00000001800115a0 f i N9010A.obj
 0001:000105a0       ??_GN9010A@@UEAAPEAXI@Z    00000001800115a0 f i N9010A.obj
 0001:000105f0       ??0N9020A@@QEAA@XZ         00000001800115f0 f   N9020A.obj
 0001:00010630       ??1N9020A@@UEAA@XZ         0000000180011630 f   N9020A.obj
 0001:00010660       ?GetDes@N9020A@@UEAAPEADXZ 0000000180011660 f   N9020A.obj
 0001:00010690       ??_EN9020A@@UEAAPEAXI@Z    0000000180011690 f i N9020A.obj
 0001:00010690       ??_GN9020A@@UEAAPEAXI@Z    0000000180011690 f i N9020A.obj
 0001:000106e0       ??0N9030A@@QEAA@XZ         00000001800116e0 f   N9030A.obj
 0001:00010720       ??1N9030A@@UEAA@XZ         0000000180011720 f   N9030A.obj
 0001:00010750       ?GetDefaultPriAddr@N9030A@@UEAAHXZ 0000000180011750 f   N9030A.obj
 0001:00010770       ?GetDefaultSecAddr@N9030A@@UEAAHXZ 0000000180011770 f   N9030A.obj
 0001:00010790       ?GetDes@N9030A@@UEAAPEADXZ 0000000180011790 f   N9030A.obj
 0001:000107b0       ?Reset@N9030A@@UEAA_NXZ    00000001800117b0 f   N9030A.obj
 0001:000107e0       ?SetCF@N9030A@@UEAA_NN@Z   00000001800117e0 f   N9030A.obj
 0001:00010820       ?SetSpan@N9030A@@UEAA_NN@Z 0000000180011820 f   N9030A.obj
 0001:00010860       ?SetRBW@N9030A@@UEAA_NN_N@Z 0000000180011860 f   N9030A.obj
 0001:000108d0       ?SetVBW@N9030A@@UEAA_NN_N@Z 00000001800118d0 f   N9030A.obj
 0001:00010940       ?SetDectector@N9030A@@UEAA_NW4DetectorTypes@ISA@@@Z 0000000180011940 f   N9030A.obj
 0001:00010a40       ?SetPeakSearch@N9030A@@UEAA_NW4PeakSearchTypes@ISA@@@Z 0000000180011a40 f   N9030A.obj
 0001:00010af0       ?SetRefLevel@N9030A@@UEAA_NN@Z 0000000180011af0 f   N9030A.obj
 0001:00010b30       ?GetRefLevel@N9030A@@UEAA_NAEAN@Z 0000000180011b30 f   N9030A.obj
 0001:00010c10       ?SetMarker@N9030A@@UEAA_NW4MarkerTypes@ISA@@@Z 0000000180011c10 f   N9030A.obj
 0001:00010ca0       ?SetEnablePreamp@N9030A@@UEAA_N_N@Z 0000000180011ca0 f   N9030A.obj
 0001:00010d10       ?GetMarkerPwr@N9030A@@UEAA_NAEAN@Z 0000000180011d10 f   N9030A.obj
 0001:00010e30       ?GetMarkerFrequency@N9030A@@UEAA_NAEAN@Z 0000000180011e30 f   N9030A.obj
 0001:00010f10       ?WaitForContinue@N9030A@@UEAA_NXZ 0000000180011f10 f   N9030A.obj
 0001:00010f40       ?SweepOnce@N9030A@@UEAA_NXZ 0000000180011f40 f   N9030A.obj
 0001:00011030       ?MarkerMove@N9030A@@UEAA_NW4MarkerMoveTypes@ISA@@@Z 0000000180012030 f   N9030A.obj
 0001:000110a0       ?MarkerMove@N9030A@@UEAA_NN@Z 00000001800120a0 f   N9030A.obj
 0001:000110e0       ?SetCalibration@N9030A@@UEAA_NW4CalibrationTypes@ISA@@@Z 00000001800120e0 f   N9030A.obj
 0001:00011170       ?SetAverTrace@N9030A@@UEAA_N_NH@Z 0000000180012170 f   N9030A.obj
 0001:00011210       ?SetAverTraceAndGetData@N9030A@@UEAA_NHHPEAN@Z 0000000180012210 f   N9030A.obj
 0001:00011410       ?SetMechAtten@N9030A@@UEAA_N_NH@Z 0000000180012410 f   N9030A.obj
 0001:00011810       ??_EN9030A@@UEAAPEAXI@Z    0000000180012810 f i N9030A.obj
 0001:00011810       ??_GN9030A@@UEAAPEAXI@Z    0000000180012810 f i N9030A.obj
 0001:00011860       ??0RSNRP@@QEAA@XZ          0000000180012860 f   RSNRP.obj
 0001:000118a0       ??1RSNRP@@UEAA@XZ          00000001800128a0 f   RSNRP.obj
 0001:000118d0       ?GetDes@RSNRP@@UEAAPEADXZ  00000001800128d0 f   RSNRP.obj
 0001:000118f0       ?Init@RSNRP@@UEAA_NPEAD@Z  00000001800128f0 f   RSNRP.obj
 0001:00011930       ?Reset@RSNRP@@UEAA_NXZ     0000000180012930 f   RSNRP.obj
 0001:000119d0       ?SetFrequency@RSNRP@@UEAA_NN@Z 00000001800129d0 f   RSNRP.obj
 0001:00011a10       ?GetPwr@RSNRP@@UEAA_NAEAN@Z 0000000180012a10 f   RSNRP.obj
 0001:00011ad0       ?GetPwr@RSNRP@@UEAA_NNAEAN@Z 0000000180012ad0 f   RSNRP.obj
 0001:00011b40       ?Close@RSNRP@@UEAA_NXZ     0000000180012b40 f   RSNRP.obj
 0001:00011c70       ??0IPM@@QEAA@XZ            0000000180012c70 f i RSNRP.obj
 0001:00011c90       ??_GIPM@@UEAAPEAXI@Z       0000000180012c90 f i RSNRP.obj
 0001:00011c90       ??_EIPM@@UEAAPEAXI@Z       0000000180012c90 f i RSNRP.obj
 0001:00011ce0       ??1IPM@@UEAA@XZ            0000000180012ce0 f i RSNRP.obj
 0001:00011d00       ??_ERSNRP@@UEAAPEAXI@Z     0000000180012d00 f i RSNRP.obj
 0001:00011d00       ??_GRSNRP@@UEAAPEAXI@Z     0000000180012d00 f i RSNRP.obj
 0001:00011d50       ??0SMF100A@@QEAA@XZ        0000000180012d50 f   SMF100A.obj
 0001:00011d90       ??1SMF100A@@UEAA@XZ        0000000180012d90 f   SMF100A.obj
 0001:00011dc0       ?GetDes@SMF100A@@UEAAPEADXZ 0000000180012dc0 f   SMF100A.obj
 0001:00011de0       ?SetModEnable@SMF100A@@UEAA_N_N@Z 0000000180012de0 f   SMF100A.obj
 0001:00011e70       ??_ESMF100A@@UEAAPEAXI@Z   0000000180012e70 f i SMF100A.obj
 0001:00011e70       ??_GSMF100A@@UEAAPEAXI@Z   0000000180012e70 f i SMF100A.obj
 0001:00011eb4       ?Init@IGPIBDev@@UEAA_NPEAD@Z 0000000180012eb4 f   libBusDriver:libBusDriver.dll
 0001:00011eba       ?Write@IGPIBDev@@UEAA_NPEBDZZ 0000000180012eba f   libBusDriver:libBusDriver.dll
 0001:00011ec0       ?Read@IGPIBDev@@UEAA_NPEADII@Z 0000000180012ec0 f   libBusDriver:libBusDriver.dll
 0001:00011ec6       ?OpenDefaultRM@viPCIDev@@SAHXZ 0000000180012ec6 f   libBusDriver:libBusDriver.dll
 0001:00011ecc       ?GetDefaultRM@viPCIDev@@SAKXZ 0000000180012ecc f   libBusDriver:libBusDriver.dll
 0001:00011ed2       ??0IGPIBDev@@QEAA@XZ       0000000180012ed2 f   libBusDriver:libBusDriver.dll
 0001:00011ed8       ??1IGPIBDev@@UEAA@XZ       0000000180012ed8 f   libBusDriver:libBusDriver.dll
 0001:00011ee0       ??0type_info@@AEAA@AEBV0@@Z 0000000180012ee0 f   MSVCRTD:ti_inst.obj
 0001:00011f00       ??_Etype_info@@UEAAPEAXI@Z 0000000180012f00 f i MSVCRTD:ti_inst.obj
 0001:00011f90       ??4type_info@@AEAAAEAV0@AEBV0@@Z 0000000180012f90 f   MSVCRTD:ti_inst.obj
 0001:00011fa0       ??3@YAXPEAX@Z              0000000180012fa0 f   MSVCRTD:MSVCR90D.dll
 0001:00011fb0       __GSHandlerCheck           0000000180012fb0 f   MSVCRTD:gshandler.obj
 0001:00011ff0       __GSHandlerCheckCommon     0000000180012ff0 f   MSVCRTD:gshandler.obj
 0001:000120e4       atof                       00000001800130e4 f   MSVCRTD:MSVCR90D.dll
 0001:000120ea       memset                     00000001800130ea f   MSVCRTD:MSVCR90D.dll
 0001:00012100       __security_check_cookie    0000000180013100 f   MSVCRTD:amdsecgs.obj
 0001:00012120       ??2@YAPEAX_K@Z             0000000180013120 f   MSVCRTD:MSVCR90D.dll
 0001:00012126       __CxxFrameHandler3         0000000180013126 f   MSVCRTD:MSVCR90D.dll
 0001:00012130       _onexit                    0000000180013130 f   MSVCRTD:atonexit.obj
 0001:000121f0       atexit                     00000001800131f0 f   MSVCRTD:atonexit.obj
 0001:00012230       _CxxThrowException         0000000180013230 f   MSVCRTD:MSVCR90D.dll
 0001:00012236       strcmp                     0000000180013236 f   MSVCRTD:MSVCR90D.dll
 0001:0001223c       strstr                     000000018001323c f   MSVCRTD:MSVCR90D.dll
 0001:00012242       ??0exception@std@@QEAA@AEBV01@@Z 0000000180013242 f   MSVCRTD:MSVCR90D.dll
 0001:00012248       ??1exception@std@@UEAA@XZ  0000000180013248 f   MSVCRTD:MSVCR90D.dll
 0001:0001224e       ??0exception@std@@QEAA@XZ  000000018001324e f   MSVCRTD:MSVCR90D.dll
 0001:00012254       _invalid_parameter         0000000180013254 f   MSVCRTD:MSVCR90D.dll
 0001:0001225a       _CrtDbgReportW             000000018001325a f   MSVCRTD:MSVCR90D.dll
 0001:00012260       vsprintf_s                 0000000180013260 f   MSVCRTD:MSVCR90D.dll
 0001:00012266       strcpy_s                   0000000180013266 f   MSVCRTD:MSVCR90D.dll
 0001:0001226c       ??0exception@std@@QEAA@AEBQEBD@Z 000000018001326c f   MSVCRTD:MSVCR90D.dll
 0001:00012272       ?what@exception@std@@UEBAPEBDXZ 0000000180013272 f   MSVCRTD:MSVCR90D.dll
 0001:00012278       memmove_s                  0000000180013278 f   MSVCRTD:MSVCR90D.dll
 0001:0001227e       _purecall                  000000018001327e f   MSVCRTD:MSVCR90D.dll
 0001:00012284       log10                      0000000180013284 f   MSVCRTD:MSVCR90D.dll
 0001:0001228a       fabs                       000000018001328a f   MSVCRTD:MSVCR90D.dll
 0001:00012320       _CRT_INIT                  0000000180013320 f   MSVCRTD:crtdll.obj
 0001:000126d0       NtCurrentTeb               00000001800136d0 f i MSVCRTD:crtdll.obj
 0001:000126e0       _DllMainCRTStartup         00000001800136e0 f   MSVCRTD:crtdll.obj
 0001:000128a0       ??_M@YAXPEAX_KHP6AX0@Z@Z   00000001800138a0 f   MSVCRTD:ehvecdtr.obj
 0001:00012940       ?__ArrayUnwind@@YAXPEAX_KHP6AX0@Z@Z 0000000180013940 f   MSVCRTD:ehvecdtr.obj
 0001:000129d0       __report_gsfailure         00000001800139d0 f   MSVCRTD:gs_report.obj
 0001:00012b1a       __C_specific_handler       0000000180013b1a f   MSVCRTD:MSVCR90D.dll
 0001:00012b20       _unlock                    0000000180013b20 f   MSVCRTD:MSVCR90D.dll
 0001:00012b26       __dllonexit                0000000180013b26 f   MSVCRTD:MSVCR90D.dll
 0001:00012b2c       _encode_pointer            0000000180013b2c f   MSVCRTD:MSVCR90D.dll
 0001:00012b32       _lock                      0000000180013b32 f   MSVCRTD:MSVCR90D.dll
 0001:00012b38       _decode_pointer            0000000180013b38 f   MSVCRTD:MSVCR90D.dll
 0001:00012b40       __clean_type_info_names    0000000180013b40 f   MSVCRTD:tncleanup.obj
 0001:00012b60       _RTC_Initialize            0000000180013b60 f   MSVCRTD:_initsect_.obj
 0001:00012ba0       _RTC_Terminate             0000000180013ba0 f   MSVCRTD:_initsect_.obj
 0001:00012bde       _malloc_dbg                0000000180013bde f   MSVCRTD:MSVCR90D.dll
 0001:00012be4       _free_dbg                  0000000180013be4 f   MSVCRTD:MSVCR90D.dll
 0001:00012bea       _encoded_null              0000000180013bea f   MSVCRTD:MSVCR90D.dll
 0001:00012bf0       _CrtSetCheckCount          0000000180013bf0 f   MSVCRTD:MSVCR90D.dll
 0001:00012c00       _ValidateImageBase         0000000180013c00 f   MSVCRTD:pesect.obj
 0001:00012c80       _FindPESection             0000000180013c80 f   MSVCRTD:pesect.obj
 0001:00012d30       _IsNonwritableInCurrentImage 0000000180013d30 f   MSVCRTD:pesect.obj
 0001:00012dbc       _initterm                  0000000180013dbc f   MSVCRTD:MSVCR90D.dll
 0001:00012dc2       _initterm_e                0000000180013dc2 f   MSVCRTD:MSVCR90D.dll
 0001:00012dc8       _amsg_exit                 0000000180013dc8 f   MSVCRTD:MSVCR90D.dll
 0001:00012dd0       __security_init_cookie     0000000180013dd0 f   MSVCRTD:gs_support.obj
 0001:00012ece       __CppXcptFilter            0000000180013ece f   MSVCRTD:MSVCR90D.dll
 0001:00012ee0       DllMain                    0000000180013ee0 f   MSVCRTD:dllmain.obj
 0001:00012f18       ?terminate@@YAXXZ          0000000180013f18 f   MSVCRTD:MSVCR90D.dll
 0001:00012f1e       ??1type_info@@UEAA@XZ      0000000180013f1e f   MSVCRTD:MSVCR90D.dll
 0001:00012f1e       ?_type_info_dtor_internal_method@type_info@@QEAAXXZ 0000000180013f1e f   MSVCRTD:MSVCR90D.dll
 0001:00012f24       __crt_debugger_hook        0000000180013f24 f   MSVCRTD:MSVCR90D.dll
 0001:00012f2a       __clean_type_info_names_internal 0000000180013f2a f   MSVCRTD:MSVCR90D.dll
 0001:00012f30       ??1_Lockit@std@@QEAA@XZ    0000000180013f30 f   msvcprtd:MSVCP90D.dll
 0001:00012f36       ??0_Lockit@std@@QEAA@H@Z   0000000180013f36 f   msvcprtd:MSVCP90D.dll
 0001:00012f3c       ?_Debug_message@std@@YAXPEB_W0I@Z 0000000180013f3c f   msvcprtd:MSVCP90D.dll
 0001:00012f42       ?_Orphan_all@_Container_base_secure@std@@QEBAXXZ 0000000180013f42 f   msvcprtd:MSVCP90D.dll
 0001:00012f48       ??1?$basic_string@DU?$char_traits@D@std@@V?$allocator@D@2@@std@@QEAA@XZ 0000000180013f48 f   msvcprtd:MSVCP90D.dll
 0001:00012f4e       ??0?$basic_string@DU?$char_traits@D@std@@V?$allocator@D@2@@std@@QEAA@PEBD@Z 0000000180013f4e f   msvcprtd:MSVCP90D.dll
 0001:00012f54       ??0?$basic_string@DU?$char_traits@D@std@@V?$allocator@D@2@@std@@QEAA@AEBV01@@Z 0000000180013f54 f   msvcprtd:MSVCP90D.dll
 0001:00012f5a       ?c_str@?$basic_string@DU?$char_traits@D@std@@V?$allocator@D@2@@std@@QEBAPEBDXZ 0000000180013f5a f   msvcprtd:MSVCP90D.dll
 0001:00012f60       ??1_Container_base_secure@std@@QEAA@XZ 0000000180013f60 f   msvcprtd:MSVCP90D.dll
 0001:00012f66       ??0_Container_base_secure@std@@QEAA@XZ 0000000180013f66 f   msvcprtd:MSVCP90D.dll
 0001:00012f6c       viRead                     0000000180013f6c f   visa64:visa64.dll
 0001:00012f72       viClose                    0000000180013f72 f   visa64:visa64.dll
 0001:00012f78       viWrite                    0000000180013f78 f   visa64:visa64.dll
 0001:00012f7e       viFindNext                 0000000180013f7e f   visa64:visa64.dll
 0001:00012f84       viOpen                     0000000180013f84 f   visa64:visa64.dll
 0001:00012f8a       viFindRsrc                 0000000180013f8a f   visa64:visa64.dll
 0001:00012f90       rsnrpz_GetSensorInfo       0000000180013f90 f   rsnrpz_64:rsnrpz_64.dll
 0001:00012f96       rsnrpz_error_message       0000000180013f96 f   rsnrpz_64:rsnrpz_64.dll
 0001:00012f9c       rsnrpz_GetSensorCount      0000000180013f9c f   rsnrpz_64:rsnrpz_64.dll
 0001:00012fa2       rsnrpz_init                0000000180013fa2 f   rsnrpz_64:rsnrpz_64.dll
 0001:00012fa8       rsnrpz_chans_initiate      0000000180013fa8 f   rsnrpz_64:rsnrpz_64.dll
 0001:00012fae       rsnrpz_reset               0000000180013fae f   rsnrpz_64:rsnrpz_64.dll
 0001:00012fb4       rsnrpz_trigger_setSource   0000000180013fb4 f   rsnrpz_64:rsnrpz_64.dll
 0001:00012fba       rsnrpz_avg_setCount        0000000180013fba f   rsnrpz_64:rsnrpz_64.dll
 0001:00012fc0       rsnrpz_avg_setAutoEnabled  0000000180013fc0 f   rsnrpz_64:rsnrpz_64.dll
 0001:00012fc6       rsnrpz_status_preset       0000000180013fc6 f   rsnrpz_64:rsnrpz_64.dll
 0001:00012fcc       rsnrpz_chan_setCorrectionFrequency 0000000180013fcc f   rsnrpz_64:rsnrpz_64.dll
 0001:00012fd2       rsnrpz_meass_readMeasurement 0000000180013fd2 f   rsnrpz_64:rsnrpz_64.dll
 0001:00012fd8       rsnrpz_chan_isMeasurementComplete 0000000180013fd8 f   rsnrpz_64:rsnrpz_64.dll
 0001:00012fde       rsnrpz_chan_initiate       0000000180013fde f   rsnrpz_64:rsnrpz_64.dll
 0001:00012fe4       rsnrpz_close               0000000180013fe4 f   rsnrpz_64:rsnrpz_64.dll
 0001:00012fea       rsnrpz_CloseSensor         0000000180013fea f   rsnrpz_64:rsnrpz_64.dll
 0001:00012ff0       Sleep                      0000000180013ff0 f   kernel32:KERNEL32.dll
 0001:00012ff6       TerminateProcess           0000000180013ff6 f   kernel32:KERNEL32.dll
 0001:00012ffc       GetCurrentProcess          0000000180013ffc f   kernel32:KERNEL32.dll
 0001:00013002       UnhandledExceptionFilter   0000000180014002 f   kernel32:KERNEL32.dll
 0001:00013008       SetUnhandledExceptionFilter 0000000180014008 f   kernel32:KERNEL32.dll
 0001:0001300e       IsDebuggerPresent          000000018001400e f   kernel32:KERNEL32.dll
 0001:00013014       RtlVirtualUnwind           0000000180014014 f   kernel32:KERNEL32.dll
 0001:0001301a       RtlLookupFunctionEntry     000000018001401a f   kernel32:KERNEL32.dll
 0001:00013020       RtlCaptureContext          0000000180014020 f   kernel32:KERNEL32.dll
 0001:00013026       QueryPerformanceCounter    0000000180014026 f   kernel32:KERNEL32.dll
 0001:0001302c       GetTickCount               000000018001402c f   kernel32:KERNEL32.dll
 0001:00013032       GetCurrentThreadId         0000000180014032 f   kernel32:KERNEL32.dll
 0001:00013038       GetCurrentProcessId        0000000180014038 f   kernel32:KERNEL32.dll
 0001:0001303e       GetSystemTimeAsFileTime    000000018001403e f   kernel32:KERNEL32.dll
 0001:00013044       DisableThreadLibraryCalls  0000000180014044 f   kernel32:KERNEL32.dll
 0001:000140a0       _alloca_probe              00000001800150a0     MSVCRTD:chkstk.obj
 0001:000140a0       __chkstk                   00000001800150a0 f   MSVCRTD:chkstk.obj
 0002:00000000       __xc_a                     000000018001a000     MSVCRTD:cinitexe.obj
 0002:00000110       __xc_z                     000000018001a110     MSVCRTD:cinitexe.obj
 0002:00000220       __xi_a                     000000018001a220     MSVCRTD:cinitexe.obj
 0002:00000440       __xi_z                     000000018001a440     MSVCRTD:cinitexe.obj
 0002:00000588       ??_7E4438C@@6B@            000000018001a588     E4438C.obj
 0002:00000628       ??_7E4440A@@6B@            000000018001a628     E4440A.obj
 0002:00000758       ??_7E4443A@@6B@            000000018001a758     E4443A.obj
 0002:000008b8       ??_7E4445A@@6B@            000000018001a8b8     E4445A.obj
 0002:000009e8       ??_7E8267D@@6B@            000000018001a9e8     E8267D.obj
 0002:00000ee8       ??_7FSUP@@6B@              000000018001aee8     FSUP.obj
 0002:000015d0       ?_Value@?$_Is_swap_move@U_Swap_move_tag@std@@@std@@2_NB 000000018001b5d0     Instrument.obj
 0002:000015d4       ?collate@?$_Locbase@H@std@@2HB 000000018001b5d4     Instrument.obj
 0002:000015d8       ?ctype@?$_Locbase@H@std@@2HB 000000018001b5d8     Instrument.obj
 0002:000015dc       ?monetary@?$_Locbase@H@std@@2HB 000000018001b5dc     Instrument.obj
 0002:000015e0       ?numeric@?$_Locbase@H@std@@2HB 000000018001b5e0     Instrument.obj
 0002:000015e4       ?time@?$_Locbase@H@std@@2HB 000000018001b5e4     Instrument.obj
 0002:000015e8       ?messages@?$_Locbase@H@std@@2HB 000000018001b5e8     Instrument.obj
 0002:000015ec       ?all@?$_Locbase@H@std@@2HB 000000018001b5ec     Instrument.obj
 0002:000015f0       ?none@?$_Locbase@H@std@@2HB 000000018001b5f0     Instrument.obj
 0002:000015f4       ?skipws@?$_Iosb@H@std@@2W4_Fmtflags@12@B 000000018001b5f4     Instrument.obj
 0002:000015f8       ?unitbuf@?$_Iosb@H@std@@2W4_Fmtflags@12@B 000000018001b5f8     Instrument.obj
 0002:000015fc       ?uppercase@?$_Iosb@H@std@@2W4_Fmtflags@12@B 000000018001b5fc     Instrument.obj
 0002:00001600       ?showbase@?$_Iosb@H@std@@2W4_Fmtflags@12@B 000000018001b600     Instrument.obj
 0002:00001604       ?showpoint@?$_Iosb@H@std@@2W4_Fmtflags@12@B 000000018001b604     Instrument.obj
 0002:00001608       ?showpos@?$_Iosb@H@std@@2W4_Fmtflags@12@B 000000018001b608     Instrument.obj
 0002:0000160c       ?left@?$_Iosb@H@std@@2W4_Fmtflags@12@B 000000018001b60c     Instrument.obj
 0002:00001610       ?right@?$_Iosb@H@std@@2W4_Fmtflags@12@B 000000018001b610     Instrument.obj
 0002:00001614       ?internal@?$_Iosb@H@std@@2W4_Fmtflags@12@B 000000018001b614     Instrument.obj
 0002:00001618       ?dec@?$_Iosb@H@std@@2W4_Fmtflags@12@B 000000018001b618     Instrument.obj
 0002:0000161c       ?oct@?$_Iosb@H@std@@2W4_Fmtflags@12@B 000000018001b61c     Instrument.obj
 0002:00001620       ?hex@?$_Iosb@H@std@@2W4_Fmtflags@12@B 000000018001b620     Instrument.obj
 0002:00001624       ?scientific@?$_Iosb@H@std@@2W4_Fmtflags@12@B 000000018001b624     Instrument.obj
 0002:00001628       ?fixed@?$_Iosb@H@std@@2W4_Fmtflags@12@B 000000018001b628     Instrument.obj
 0002:0000162c       ?hexfloat@?$_Iosb@H@std@@2W4_Fmtflags@12@B 000000018001b62c     Instrument.obj
 0002:00001630       ?boolalpha@?$_Iosb@H@std@@2W4_Fmtflags@12@B 000000018001b630     Instrument.obj
 0002:00001634       ?_Stdio@?$_Iosb@H@std@@2W4_Fmtflags@12@B 000000018001b634     Instrument.obj
 0002:00001638       ?adjustfield@?$_Iosb@H@std@@2W4_Fmtflags@12@B 000000018001b638     Instrument.obj
 0002:0000163c       ?basefield@?$_Iosb@H@std@@2W4_Fmtflags@12@B 000000018001b63c     Instrument.obj
 0002:00001640       ?floatfield@?$_Iosb@H@std@@2W4_Fmtflags@12@B 000000018001b640     Instrument.obj
 0002:00001644       ?goodbit@?$_Iosb@H@std@@2W4_Iostate@12@B 000000018001b644     Instrument.obj
 0002:00001648       ?eofbit@?$_Iosb@H@std@@2W4_Iostate@12@B 000000018001b648     Instrument.obj
 0002:0000164c       ?failbit@?$_Iosb@H@std@@2W4_Iostate@12@B 000000018001b64c     Instrument.obj
 0002:00001650       ?badbit@?$_Iosb@H@std@@2W4_Iostate@12@B 000000018001b650     Instrument.obj
 0002:00001654       ?_Hardfail@?$_Iosb@H@std@@2W4_Iostate@12@B 000000018001b654     Instrument.obj
 0002:00001658       ?in@?$_Iosb@H@std@@2W4_Openmode@12@B 000000018001b658     Instrument.obj
 0002:0000165c       ?out@?$_Iosb@H@std@@2W4_Openmode@12@B 000000018001b65c     Instrument.obj
 0002:00001660       ?ate@?$_Iosb@H@std@@2W4_Openmode@12@B 000000018001b660     Instrument.obj
 0002:00001664       ?app@?$_Iosb@H@std@@2W4_Openmode@12@B 000000018001b664     Instrument.obj
 0002:00001668       ?trunc@?$_Iosb@H@std@@2W4_Openmode@12@B 000000018001b668     Instrument.obj
 0002:0000166c       ?_Nocreate@?$_Iosb@H@std@@2W4_Openmode@12@B 000000018001b66c     Instrument.obj
 0002:00001670       ?_Noreplace@?$_Iosb@H@std@@2W4_Openmode@12@B 000000018001b670     Instrument.obj
 0002:00001674       ?binary@?$_Iosb@H@std@@2W4_Openmode@12@B 000000018001b674     Instrument.obj
 0002:00001678       ?beg@?$_Iosb@H@std@@2W4_Seekdir@12@B 000000018001b678     Instrument.obj
 0002:0000167c       ?cur@?$_Iosb@H@std@@2W4_Seekdir@12@B 000000018001b67c     Instrument.obj
 0002:00001680       ?end@?$_Iosb@H@std@@2W4_Seekdir@12@B 000000018001b680     Instrument.obj
 0002:00001698       ??_7CInstrument@@6B@       000000018001b698     Instrument.obj
 0002:00001b60       ??_C@_1DC@POOIKBAO@?$AAI?$AAT?$AAE?$AAR?$AAA?$AAT?$AAO?$AAR?$AA?5?$AAL?$AAI?$AAS?$AAT?$AA?5?$AAC?$AAO?$AAR?$AAR?$AAU?$AAP?$AAT?$AAE?$AAD?$AA?$CB?$AA?$AA@ 000000018001bb60     Instrument.obj
 0002:00001ba0       ??_C@_1IO@BBMNBHMA@?$AAC?$AA?3?$AA?2?$AAP?$AAr?$AAo?$AAg?$AAr?$AAa?$AAm?$AA?5?$AAF?$AAi?$AAl?$AAe?$AAs?$AA?5?$AA?$CI?$AAx?$AA8?$AA6?$AA?$CJ?$AA?2?$AAM?$AAi?$AAc?$AAr?$AAo?$AAs?$AAo?$AAf?$AAt@ 000000018001bba0     Instrument.obj
 0002:00001ce0       ??_C@_1EI@HGIDLLCM@?$AAv?$AAe?$AAc?$AAt?$AAo?$AAr?$AA?5?$AAe?$AAr?$AAa?$AAs?$AAe?$AA?5?$AAi?$AAt?$AAe?$AAr?$AAa?$AAt?$AAo?$AAr?$AA?5?$AAo?$AAu?$AAt?$AAs?$AAi?$AAd?$AAe?$AA?5?$AAr?$AAa@ 000000018001bce0     Instrument.obj
 0002:00001d40       ??_C@_1IK@PFPAGNAC@?$AAC?$AA?3?$AA?2?$AAP?$AAr?$AAo?$AAg?$AAr?$AAa?$AAm?$AA?5?$AAF?$AAi?$AAl?$AAe?$AAs?$AA?5?$AA?$CI?$AAx?$AA8?$AA6?$AA?$CJ?$AA?2?$AAM?$AAi?$AAc?$AAr?$AAo?$AAs?$AAo?$AAf?$AAt@ 000000018001bd40     Instrument.obj
 0002:00001e18       ??_C@_0BM@NMJKDPPO@invalid?5vector?$DMT?$DO?5subscript?$AA@ 000000018001be18     Instrument.obj
 0002:00001e48       ??_7out_of_range@std@@6B@  000000018001be48     Instrument.obj
 0002:00001e98       ??_7logic_error@std@@6B@   000000018001be98     Instrument.obj
 0002:000020f0       ??_C@_1EK@EEHFMKDC@?$AAv?$AAe?$AAc?$AAt?$AAo?$AAr?$AA?5?$AAi?$AAn?$AAs?$AAe?$AAr?$AAt?$AA?5?$AAi?$AAt?$AAe?$AAr?$AAa?$AAt?$AAo?$AAr?$AA?5?$AAo?$AAu?$AAt?$AAs?$AAi?$AAd?$AAe?$AA?5?$AAr@ 000000018001c0f0     Instrument.obj
 0002:00002178       ??_C@_0BD@OLBABOEK@vector?$DMT?$DO?5too?5long?$AA@ 000000018001c178     Instrument.obj
 0002:00002198       ??_7length_error@std@@6B@  000000018001c198     Instrument.obj
 0002:000022d0       ??_C@_1BO@MEPPHOO@?$AA?$CC?$AAo?$AAu?$AAt?$AA?5?$AAo?$AAf?$AA?5?$AAr?$AAa?$AAn?$AAg?$AAe?$AA?$CC?$AA?$AA@ 000000018001c2d0     Instrument.obj
 0002:00002300       ??_C@_1LA@JIDGJPPI@?$AAs?$AAt?$AAd?$AA?3?$AA?3?$AA_?$AAV?$AAe?$AAc?$AAt?$AAo?$AAr?$AA_?$AAc?$AAo?$AAn?$AAs?$AAt?$AA_?$AAi?$AAt?$AAe?$AAr?$AAa?$AAt?$AAo?$AAr?$AA?$DM?$AAc?$AAl?$AAa?$AAs@ 000000018001c300     Instrument.obj
 0002:000023e0       ??_C@_1FG@CMLDHNON@?$AA?$CI?$AA?$CC?$AAS?$AAt?$AAa?$AAn?$AAd?$AAa?$AAr?$AAd?$AA?5?$AAC?$AA?$CL?$AA?$CL?$AA?5?$AAL?$AAi?$AAb?$AAr?$AAa?$AAr?$AAi?$AAe?$AAs?$AA?5?$AAO?$AAu?$AAt?$AA?5?$AAo?$AAf?$AA?5@ 000000018001c3e0     Instrument.obj
 0002:00002450       ??_C@_1EG@FOHJJHAC@?$AAv?$AAe?$AAc?$AAt?$AAo?$AAr?$AA?5?$AAi?$AAt?$AAe?$AAr?$AAa?$AAt?$AAo?$AAr?$AA?5?$AAn?$AAo?$AAt?$AA?5?$AAd?$AAe?$AAr?$AAe?$AAf?$AAe?$AAr?$AAe?$AAn?$AAc?$AAa?$AAb@ 000000018001c450     Instrument.obj
 0002:000024b0       ??_C@_1LA@CIGABNFI@?$AAs?$AAt?$AAd?$AA?3?$AA?3?$AA_?$AAV?$AAe?$AAc?$AAt?$AAo?$AAr?$AA_?$AAc?$AAo?$AAn?$AAs?$AAt?$AA_?$AAi?$AAt?$AAe?$AAr?$AAa?$AAt?$AAo?$AAr?$AA?$DM?$AAc?$AAl?$AAa?$AAs@ 000000018001c4b0     Instrument.obj
 0002:00002590       ??_C@_1LA@JIIKOIIA@?$AAs?$AAt?$AAd?$AA?3?$AA?3?$AA_?$AAV?$AAe?$AAc?$AAt?$AAo?$AAr?$AA_?$AAc?$AAo?$AAn?$AAs?$AAt?$AA_?$AAi?$AAt?$AAe?$AAr?$AAa?$AAt?$AAo?$AAr?$AA?$DM?$AAc?$AAl?$AAa?$AAs@ 000000018001c590     Instrument.obj
 0002:00002698       ??_C@_1CG@JNLFBNGN@?$AA?$CC?$AAi?$AAn?$AAv?$AAa?$AAl?$AAi?$AAd?$AA?5?$AAa?$AAr?$AAg?$AAu?$AAm?$AAe?$AAn?$AAt?$AA?$CC?$AA?$AA@ 000000018001c698     Instrument.obj
 0002:000026d0       ??_C@_1MI@GOFPIBPO@?$AAs?$AAt?$AAd?$AA?3?$AA?3?$AA_?$AAV?$AAe?$AAc?$AAt?$AAo?$AAr?$AA_?$AAc?$AAo?$AAn?$AAs?$AAt?$AA_?$AAi?$AAt?$AAe?$AAr?$AAa?$AAt?$AAo?$AAr?$AA?$DM?$AAc?$AAl?$AAa?$AAs@ 000000018001c6d0     Instrument.obj
 0002:000027c0       ??_C@_1NK@JLHOCNGO@?$AA?$CI?$AA?$CC?$AA_?$AAP?$AAv?$AAe?$AAc?$AAt?$AAo?$AAr?$AA?5?$AA?$DN?$AA?$DN?$AA?5?$AAN?$AAU?$AAL?$AAL?$AA?5?$AA?$HM?$AA?$HM?$AA?5?$AA?$CI?$AA?$CI?$AA?$CI?$AA_?$AAM?$AAy?$AAv?$AAe?$AAc?$AA?5@ 000000018001c7c0     Instrument.obj
 0002:000028d0       ??_C@_1BAC@KBDNDJPK@?$AA?$CI?$AA?$CC?$AA_?$AAM?$AAy?$AAp?$AAt?$AAr?$AA?5?$AA?$CL?$AA?5?$AA_?$AAO?$AAf?$AAf?$AA?5?$AA?$DM?$AA?$DN?$AA?5?$AA?$CI?$AA?$CI?$AA_?$AAM?$AAy?$AAv?$AAe?$AAc?$AA?5?$AA?$CK?$AA?$CJ?$AA?$CI?$AAt@ 000000018001c8d0     Instrument.obj
 0002:00002a10       ??_C@_1LC@HFMIIOIP@?$AAs?$AAt?$AAd?$AA?3?$AA?3?$AA_?$AAV?$AAe?$AAc?$AAt?$AAo?$AAr?$AA_?$AAc?$AAo?$AAn?$AAs?$AAt?$AA_?$AAi?$AAt?$AAe?$AAr?$AAa?$AAt?$AAo?$AAr?$AA?$DM?$AAc?$AAl?$AAa?$AAs@ 000000018001ca10     Instrument.obj
 0002:00002ae8       ??_C@_1DM@LBMEEJPP@?$AA?$CI?$AA?$CC?$AAt?$AAh?$AAi?$AAs?$AA?9?$AA?$DO?$AA_?$AAH?$AAa?$AAs?$AA_?$AAc?$AAo?$AAn?$AAt?$AAa?$AAi?$AAn?$AAe?$AAr?$AA?$CI?$AA?$CJ?$AA?$CC?$AA?0?$AA?5?$AA0?$AA?$CJ?$AA?$AA@ 000000018001cae8     Instrument.obj
 0002:00002b30       ??_C@_1KK@MCIEFLBN@?$AAs?$AAt?$AAd?$AA?3?$AA?3?$AA_?$AAV?$AAe?$AAc?$AAt?$AAo?$AAr?$AA_?$AAc?$AAo?$AAn?$AAs?$AAt?$AA_?$AAi?$AAt?$AAe?$AAr?$AAa?$AAt?$AAo?$AAr?$AA?$DM?$AAc?$AAl?$AAa?$AAs@ 000000018001cb30     Instrument.obj
 0002:00002c00       ??_C@_1FO@OCPOOAIA@?$AA?$CI?$AA?$CC?$AAS?$AAt?$AAa?$AAn?$AAd?$AAa?$AAr?$AAd?$AA?5?$AAC?$AA?$CL?$AA?$CL?$AA?5?$AAL?$AAi?$AAb?$AAr?$AAa?$AAr?$AAi?$AAe?$AAs?$AA?5?$AAI?$AAn?$AAv?$AAa?$AAl?$AAi?$AAd@ 000000018001cc00     Instrument.obj
 0002:00002c70       ??_C@_1DM@HINDPMBP@?$AAv?$AAe?$AAc?$AAt?$AAo?$AAr?$AA?5?$AAi?$AAt?$AAe?$AAr?$AAa?$AAt?$AAo?$AAr?$AAs?$AA?5?$AAi?$AAn?$AAc?$AAo?$AAm?$AAp?$AAa?$AAt?$AAi?$AAb?$AAl?$AAe?$AA?$AA@ 000000018001cc70     Instrument.obj
 0002:00002cf0       ??_C@_1MI@MEOFPCPG@?$AAs?$AAt?$AAd?$AA?3?$AA?3?$AA_?$AAV?$AAe?$AAc?$AAt?$AAo?$AAr?$AA_?$AAc?$AAo?$AAn?$AAs?$AAt?$AA_?$AAi?$AAt?$AAe?$AAr?$AAa?$AAt?$AAo?$AAr?$AA?$DM?$AAc?$AAl?$AAa?$AAs@ 000000018001ccf0     Instrument.obj
 0002:00002de0       ??_C@_1LC@NIHJGADM@?$AAs?$AAt?$AAd?$AA?3?$AA?3?$AA_?$AAV?$AAe?$AAc?$AAt?$AAo?$AAr?$AA_?$AAc?$AAo?$AAn?$AAs?$AAt?$AA_?$AAi?$AAt?$AAe?$AAr?$AAa?$AAt?$AAo?$AAr?$AA?$DM?$AAc?$AAl?$AAa?$AAs@ 000000018001cde0     Instrument.obj
 0002:00002ec0       ??_C@_1KK@COCHDFJB@?$AAs?$AAt?$AAd?$AA?3?$AA?3?$AA_?$AAV?$AAe?$AAc?$AAt?$AAo?$AAr?$AA_?$AAc?$AAo?$AAn?$AAs?$AAt?$AA_?$AAi?$AAt?$AAe?$AAr?$AAa?$AAt?$AAo?$AAr?$AA?$DM?$AAc?$AAl?$AAa?$AAs@ 000000018001cec0     Instrument.obj
 0002:00002fc0       ??_C@_1MI@OALAOBLF@?$AAs?$AAt?$AAd?$AA?3?$AA?3?$AA_?$AAV?$AAe?$AAc?$AAt?$AAo?$AAr?$AA_?$AAc?$AAo?$AAn?$AAs?$AAt?$AA_?$AAi?$AAt?$AAe?$AAr?$AAa?$AAt?$AAo?$AAr?$AA?$DM?$AAc?$AAl?$AAa?$AAs@ 000000018001cfc0     Instrument.obj
 0002:000030b0       ??_C@_1LC@FMEPJJFC@?$AAs?$AAt?$AAd?$AA?3?$AA?3?$AA_?$AAV?$AAe?$AAc?$AAt?$AAo?$AAr?$AA_?$AAc?$AAo?$AAn?$AAs?$AAt?$AA_?$AAi?$AAt?$AAe?$AAr?$AAa?$AAt?$AAo?$AAr?$AA?$DM?$AAc?$AAl?$AAa?$AAs@ 000000018001d0b0     Instrument.obj
 0002:00003190       ??_C@_1KK@DDJFDILJ@?$AAs?$AAt?$AAd?$AA?3?$AA?3?$AA_?$AAV?$AAe?$AAc?$AAt?$AAo?$AAr?$AA_?$AAc?$AAo?$AAn?$AAs?$AAt?$AA_?$AAi?$AAt?$AAe?$AAr?$AAa?$AAt?$AAo?$AAr?$AA?$DM?$AAc?$AAl?$AAa?$AAs@ 000000018001d190     Instrument.obj
 0002:00003268       ??_7bad_alloc@std@@6B@     000000018001d268     Instrument.obj
 0002:00003280       ??_C@_1CK@EOPGIILJ@?$AAi?$AAn?$AAv?$AAa?$AAl?$AAi?$AAd?$AA?5?$AAn?$AAu?$AAl?$AAl?$AA?5?$AAp?$AAo?$AAi?$AAn?$AAt?$AAe?$AAr?$AA?$AA@ 000000018001d280     Instrument.obj
 0002:000032b8       ??_C@_1CO@DGLIKNHI@?$AAi?$AAn?$AAv?$AAa?$AAl?$AAi?$AAd?$AA?5?$AAi?$AAt?$AAe?$AAr?$AAa?$AAt?$AAo?$AAr?$AA?5?$AAr?$AAa?$AAn?$AAg?$AAe?$AA?$AA@ 000000018001d2b8     Instrument.obj
 0002:000032f0       ??_C@_1IK@ILCLOBAJ@?$AAC?$AA?3?$AA?2?$AAP?$AAr?$AAo?$AAg?$AAr?$AAa?$AAm?$AA?5?$AAF?$AAi?$AAl?$AAe?$AAs?$AA?5?$AA?$CI?$AAx?$AA8?$AA6?$AA?$CJ?$AA?2?$AAM?$AAi?$AAc?$AAr?$AAo?$AAs?$AAo?$AAf?$AAt@ 000000018001d2f0     Instrument.obj
 0002:000033a8       ??_7ISA@@6B@               000000018001d3a8     ISA.obj
 0002:000034d8       ??_7N5182A@@6B@            000000018001d4d8     N5182A.obj
 0002:00003608       ??_7N5182B@@6B@            000000018001d608     N5182B.obj
 0002:00003698       ??_7ISG@@6B@               000000018001d698     N5182B.obj
 0002:00003738       ??_7N9010A@@6B@            000000018001d738     N9010A.obj
 0002:00003868       ??_7N9020A@@6B@            000000018001d868     N9020A.obj
 0002:00003e58       ??_7N9030A@@6B@            000000018001de58     N9030A.obj
 0002:00003f98       ??_7RSNRP@@6B@             000000018001df98     RSNRP.obj
 0002:00003ff8       ??_7IPM@@6B@               000000018001dff8     RSNRP.obj
 0002:00004048       __real@4024000000000000    000000018001e048     RSNRP.obj
 0002:00004058       __real@408f400000000000    000000018001e058     RSNRP.obj
 0002:000040a8       ??_7SMF100A@@6B@           000000018001e0a8     SMF100A.obj
 0002:00004138       ??_7type_info@@6B@         000000018001e138     MSVCRTD:ti_inst.obj
 0002:00004140       _pRawDllMain               000000018001e140     MSVCRTD:crtdll.obj
 0002:00004140       _pDefaultRawDllMain        000000018001e140     MSVCRTD:crtdll.obj
 0002:00004148       ??_C@_0DF@EBFKANAI@f?3?2dd?2vctools?2crt_bld?2self_64_am@ 000000018001e148     MSVCRTD:crtdll.obj
 0002:00004190       ?ProcessDetach@NativeDll@<CrtImplementationDetails>@@0IB 000000018001e190     MSVCRTD:tncleanup.obj
 0002:00004194       ?ProcessAttach@NativeDll@<CrtImplementationDetails>@@0IB 000000018001e194     MSVCRTD:tncleanup.obj
 0002:00004198       ?ThreadAttach@NativeDll@<CrtImplementationDetails>@@0IB 000000018001e198     MSVCRTD:tncleanup.obj
 0002:0000419c       ?ThreadDetach@NativeDll@<CrtImplementationDetails>@@0IB 000000018001e19c     MSVCRTD:tncleanup.obj
 0002:000041a0       ?ProcessVerifier@NativeDll@<CrtImplementationDetails>@@0IB 000000018001e1a0     MSVCRTD:tncleanup.obj
 0002:00004490       ??_R4E4438C@@6B@           000000018001e490     E4438C.obj
 0002:000044c0       ??_R3E4438C@@8             000000018001e4c0     E4438C.obj
 0002:000044d8       ??_R2E4438C@@8             000000018001e4d8     E4438C.obj
 0002:00004508       ??_R1A@?0A@EA@E4438C@@8    000000018001e508     E4438C.obj
 0002:00004538       ??_R1A@?0A@EA@N5182B@@8    000000018001e538     E4438C.obj
 0002:00004568       ??_R3N5182B@@8             000000018001e568     E4438C.obj
 0002:00004580       ??_R2N5182B@@8             000000018001e580     E4438C.obj
 0002:000045a8       ??_R1A@?0A@EA@ISG@@8       000000018001e5a8     E4438C.obj
 0002:000045d8       ??_R3ISG@@8                000000018001e5d8     E4438C.obj
 0002:000045f0       ??_R2ISG@@8                000000018001e5f0     E4438C.obj
 0002:00004608       ??_R1A@?0A@EA@IGPIBDev@@8  000000018001e608     E4438C.obj
 0002:00004638       ??_R3IGPIBDev@@8           000000018001e638     E4438C.obj
 0002:00004650       ??_R2IGPIBDev@@8           000000018001e650     E4438C.obj
 0002:00004660       ??_R4E4440A@@6B@           000000018001e660     E4440A.obj
 0002:00004690       ??_R3E4440A@@8             000000018001e690     E4440A.obj
 0002:000046a8       ??_R2E4440A@@8             000000018001e6a8     E4440A.obj
 0002:000046d8       ??_R1A@?0A@EA@E4440A@@8    000000018001e6d8     E4440A.obj
 0002:00004708       ??_R1A@?0A@EA@N9030A@@8    000000018001e708     E4440A.obj
 0002:00004738       ??_R3N9030A@@8             000000018001e738     E4440A.obj
 0002:00004750       ??_R2N9030A@@8             000000018001e750     E4440A.obj
 0002:00004778       ??_R1A@?0A@EA@ISA@@8       000000018001e778     E4440A.obj
 0002:000047a8       ??_R3ISA@@8                000000018001e7a8     E4440A.obj
 0002:000047c0       ??_R2ISA@@8                000000018001e7c0     E4440A.obj
 0002:000047d8       ??_R4E4443A@@6B@           000000018001e7d8     E4443A.obj
 0002:00004808       ??_R3E4443A@@8             000000018001e808     E4443A.obj
 0002:00004820       ??_R2E4443A@@8             000000018001e820     E4443A.obj
 0002:00004850       ??_R1A@?0A@EA@E4443A@@8    000000018001e850     E4443A.obj
 0002:00004880       ??_R4E4445A@@6B@           000000018001e880     E4445A.obj
 0002:000048b0       ??_R3E4445A@@8             000000018001e8b0     E4445A.obj
 0002:000048c8       ??_R2E4445A@@8             000000018001e8c8     E4445A.obj
 0002:000048f8       ??_R1A@?0A@EA@E4445A@@8    000000018001e8f8     E4445A.obj
 0002:00004928       ??_R4E8267D@@6B@           000000018001e928     E8267D.obj
 0002:00004958       ??_R3E8267D@@8             000000018001e958     E8267D.obj
 0002:00004970       ??_R2E8267D@@8             000000018001e970     E8267D.obj
 0002:000049a0       ??_R1A@?0A@EA@E8267D@@8    000000018001e9a0     E8267D.obj
 0002:000049d0       ??_R4FSUP@@6B@             000000018001e9d0     FSUP.obj
 0002:00004a00       ??_R3FSUP@@8               000000018001ea00     FSUP.obj
 0002:00004a18       ??_R2FSUP@@8               000000018001ea18     FSUP.obj
 0002:00004a40       ??_R1A@?0A@EA@FSUP@@8      000000018001ea40     FSUP.obj
 0002:00004a70       ??_R4CInstrument@@6B@      000000018001ea70     Instrument.obj
 0002:00004aa0       ??_R3CInstrument@@8        000000018001eaa0     Instrument.obj
 0002:00004ab8       ??_R2CInstrument@@8        000000018001eab8     Instrument.obj
 0002:00004ac8       ??_R1A@?0A@EA@CInstrument@@8 000000018001eac8     Instrument.obj
 0002:00004af8       ??_R4out_of_range@std@@6B@ 000000018001eaf8     Instrument.obj
 0002:00004b28       ??_R3out_of_range@std@@8   000000018001eb28     Instrument.obj
 0002:00004b40       ??_R2out_of_range@std@@8   000000018001eb40     Instrument.obj
 0002:00004b68       ??_R1A@?0A@EA@out_of_range@std@@8 000000018001eb68     Instrument.obj
 0002:00004b98       ??_R1A@?0A@EA@logic_error@std@@8 000000018001eb98     Instrument.obj
 0002:00004bc8       ??_R3logic_error@std@@8    000000018001ebc8     Instrument.obj
 0002:00004be0       ??_R2logic_error@std@@8    000000018001ebe0     Instrument.obj
 0002:00004bf8       ??_R1A@?0A@EA@exception@std@@8 000000018001ebf8     Instrument.obj
 0002:00004c28       ??_R3exception@std@@8      000000018001ec28     Instrument.obj
 0002:00004c40       ??_R2exception@std@@8      000000018001ec40     Instrument.obj
 0002:00004c50       ??_R4logic_error@std@@6B@  000000018001ec50     Instrument.obj
 0002:00004c80       ??_R4length_error@std@@6B@ 000000018001ec80     Instrument.obj
 0002:00004cb0       ??_R3length_error@std@@8   000000018001ecb0     Instrument.obj
 0002:00004cc8       ??_R2length_error@std@@8   000000018001ecc8     Instrument.obj
 0002:00004cf0       ??_R1A@?0A@EA@length_error@std@@8 000000018001ecf0     Instrument.obj
 0002:00004d20       ??_R4bad_alloc@std@@6B@    000000018001ed20     Instrument.obj
 0002:00004d50       ??_R3bad_alloc@std@@8      000000018001ed50     Instrument.obj
 0002:00004d68       ??_R2bad_alloc@std@@8      000000018001ed68     Instrument.obj
 0002:00004d80       ??_R1A@?0A@EA@bad_alloc@std@@8 000000018001ed80     Instrument.obj
 0002:00004db0       ??_R4ISA@@6B@              000000018001edb0     ISA.obj
 0002:00004de0       ??_R4N5182A@@6B@           000000018001ede0     N5182A.obj
 0002:00004e10       ??_R3N5182A@@8             000000018001ee10     N5182A.obj
 0002:00004e28       ??_R2N5182A@@8             000000018001ee28     N5182A.obj
 0002:00004e58       ??_R1A@?0A@EA@N5182A@@8    000000018001ee58     N5182A.obj
 0002:00004e88       ??_R4N5182B@@6B@           000000018001ee88     N5182B.obj
 0002:00004eb8       ??_R4ISG@@6B@              000000018001eeb8     N5182B.obj
 0002:00004ee8       ??_R4N9010A@@6B@           000000018001eee8     N9010A.obj
 0002:00004f18       ??_R3N9010A@@8             000000018001ef18     N9010A.obj
 0002:00004f30       ??_R2N9010A@@8             000000018001ef30     N9010A.obj
 0002:00004f60       ??_R1A@?0A@EA@N9010A@@8    000000018001ef60     N9010A.obj
 0002:00004f90       ??_R4N9020A@@6B@           000000018001ef90     N9020A.obj
 0002:00004fc0       ??_R3N9020A@@8             000000018001efc0     N9020A.obj
 0002:00004fd8       ??_R2N9020A@@8             000000018001efd8     N9020A.obj
 0002:00005008       ??_R1A@?0A@EA@N9020A@@8    000000018001f008     N9020A.obj
 0002:00005038       ??_R4N9030A@@6B@           000000018001f038     N9030A.obj
 0002:00005068       ??_R4RSNRP@@6B@            000000018001f068     RSNRP.obj
 0002:00005098       ??_R3RSNRP@@8              000000018001f098     RSNRP.obj
 0002:000050b0       ??_R2RSNRP@@8              000000018001f0b0     RSNRP.obj
 0002:000050c8       ??_R1A@?0A@EA@RSNRP@@8     000000018001f0c8     RSNRP.obj
 0002:000050f8       ??_R1A@?0A@EA@IPM@@8       000000018001f0f8     RSNRP.obj
 0002:00005128       ??_R3IPM@@8                000000018001f128     RSNRP.obj
 0002:00005140       ??_R2IPM@@8                000000018001f140     RSNRP.obj
 0002:00005150       ??_R4IPM@@6B@              000000018001f150     RSNRP.obj
 0002:00005180       ??_R4SMF100A@@6B@          000000018001f180     SMF100A.obj
 0002:000051b0       ??_R3SMF100A@@8            000000018001f1b0     SMF100A.obj
 0002:000051c8       ??_R2SMF100A@@8            000000018001f1c8     SMF100A.obj
 0002:000051f8       ??_R1A@?0A@EA@SMF100A@@8   000000018001f1f8     SMF100A.obj
 0002:00005228       ??_R4type_info@@6B@        000000018001f228     MSVCRTD:ti_inst.obj
 0002:00005250       ??_R3type_info@@8          000000018001f250     MSVCRTD:ti_inst.obj
 0002:00005268       ??_R2type_info@@8          000000018001f268     MSVCRTD:ti_inst.obj
 0002:00005278       ??_R1A@?0A@EA@type_info@@8 000000018001f278     MSVCRTD:ti_inst.obj
 0002:00005400       __rtc_iaa                  000000018001f400     MSVCRTD:_initsect_.obj
 0002:00005510       __rtc_izz                  000000018001f510     MSVCRTD:_initsect_.obj
 0002:00005620       __rtc_taa                  000000018001f620     MSVCRTD:_initsect_.obj
 0002:00005730       __rtc_tzz                  000000018001f730     MSVCRTD:_initsect_.obj
 0002:00007f00       _TI1?AVCInstrExpt@@        0000000180021f00     Instrument.obj
 0002:00007f20       _CTA1?AVCInstrExpt@@       0000000180021f20     Instrument.obj
 0002:00007f30       _CT??_R0?AVCInstrExpt@@@8256 0000000180021f30     Instrument.obj
 0002:00007f58       _TI3?AVout_of_range@std@@  0000000180021f58     Instrument.obj
 0002:00007f78       _CTA3?AVout_of_range@std@@ 0000000180021f78     Instrument.obj
 0002:00007f98       _CT??_R0?AVout_of_range@std@@@8??0out_of_range@std@@QEAA@AEBV01@@Z72 0000000180021f98     Instrument.obj
 0002:00007fc0       _CT??_R0?AVlogic_error@std@@@8??0logic_error@std@@QEAA@AEBV01@@Z72 0000000180021fc0     Instrument.obj
 0002:00007fe8       _CT??_R0?AVexception@std@@@8??0exception@std@@QEAA@AEBV01@@Z24 0000000180021fe8     Instrument.obj
 0002:00008010       _TI3?AVlength_error@std@@  0000000180022010     Instrument.obj
 0002:00008030       _CTA3?AVlength_error@std@@ 0000000180022030     Instrument.obj
 0002:00008050       _CT??_R0?AVlength_error@std@@@8??0length_error@std@@QEAA@AEBV01@@Z72 0000000180022050     Instrument.obj
 0002:00008078       _TI2?AVbad_alloc@std@@     0000000180022078     Instrument.obj
 0002:00008098       _CTA2?AVbad_alloc@std@@    0000000180022098     Instrument.obj
 0002:000080b0       _CT??_R0?AVbad_alloc@std@@@8??0bad_alloc@std@@QEAA@AEBV01@@Z24 00000001800220b0     Instrument.obj
 0003:00000000       ??_R0?AVE4438C@@@8         0000000180023000     E4438C.obj
 0003:00000028       ??_R0?AVN5182B@@@8         0000000180023028     E4438C.obj
 0003:00000050       ??_R0?AVISG@@@8            0000000180023050     E4438C.obj
 0003:00000070       ??_R0?AVIGPIBDev@@@8       0000000180023070     E4438C.obj
 0003:00000098       ??_R0?AVE4440A@@@8         0000000180023098     E4440A.obj
 0003:000000c0       ??_R0?AVN9030A@@@8         00000001800230c0     E4440A.obj
 0003:000000e8       ??_R0?AVISA@@@8            00000001800230e8     E4440A.obj
 0003:00000108       ??_R0?AVE4443A@@@8         0000000180023108     E4443A.obj
 0003:00000130       ??_R0?AVE4445A@@@8         0000000180023130     E4445A.obj
 0003:00000158       ??_R0?AVE8267D@@@8         0000000180023158     E8267D.obj
 0003:00000180       ??_R0?AVFSUP@@@8           0000000180023180     FSUP.obj
 0003:000001b0       ??_R0?AVCInstrument@@@8    00000001800231b0     Instrument.obj
 0003:000001d8       ??_R0?AVCInstrExpt@@@8     00000001800231d8     Instrument.obj
 0003:00000200       ??_R0?AVout_of_range@std@@@8 0000000180023200     Instrument.obj
 0003:00000230       ??_R0?AVlogic_error@std@@@8 0000000180023230     Instrument.obj
 0003:00000260       ??_R0?AVexception@std@@@8  0000000180023260     Instrument.obj
 0003:00000290       ??_R0?AVlength_error@std@@@8 0000000180023290     Instrument.obj
 0003:000002c0       ??_R0?AVbad_alloc@std@@@8  00000001800232c0     Instrument.obj
 0003:000002f0       ??_R0?AVN5182A@@@8         00000001800232f0     N5182A.obj
 0003:00000318       ??_R0?AVN9010A@@@8         0000000180023318     N9010A.obj
 0003:00000340       ??_R0?AVN9020A@@@8         0000000180023340     N9020A.obj
 0003:00000368       ??_R0?AVRSNRP@@@8          0000000180023368     RSNRP.obj
 0003:00000390       ??_R0?AVIPM@@@8            0000000180023390     RSNRP.obj
 0003:000003b0       ??_R0?AVSMF100A@@@8        00000001800233b0     SMF100A.obj
 0003:000003d8       ??_R0?AVtype_info@@@8      00000001800233d8     MSVCRTD:ti_inst.obj
 0003:000003f8       _fltused                   00000001800233f8     MSVCRTD:dllsupp.obj
 0003:00000400       __security_cookie          0000000180023400     MSVCRTD:gs_cookie.obj
 0003:00000408       __security_cookie_complement 0000000180023408     MSVCRTD:gs_cookie.obj
 0003:00000410       __native_dllmain_reason    0000000180023410     MSVCRTD:natstart.obj
 0003:00000414       __native_vcclrit_reason    0000000180023414     MSVCRTD:natstart.obj
 0003:00000bd0       _forceCRTManifestRTM       0000000180023bd0     MSVCRTD:crtmanifestrtm.obj
 0003:00000bd8       ?__type_info_root_node@@3U__type_info_node@@A 0000000180023bd8     MSVCRTD:tncleanup.obj
 0003:00000be8       __native_startup_state     0000000180023be8     <common>
 0003:00000bf8       __native_startup_lock      0000000180023bf8     <common>
 0003:00000c00       __dyn_tls_init_callback    0000000180023c00     <common>
 0003:00000c18       __onexitend                0000000180023c18     <common>
 0003:00000c30       __onexitbegin              0000000180023c30     <common>
 0005:00000000       __IMPORT_DESCRIPTOR_libBusDriver 0000000180026000     libBusDriver:libBusDriver.dll
 0005:00000014       __IMPORT_DESCRIPTOR_MSVCR90D 0000000180026014     MSVCRTD:MSVCR90D.dll
 0005:00000028       __IMPORT_DESCRIPTOR_MSVCP90D 0000000180026028     msvcprtd:MSVCP90D.dll
 0005:0000003c       __IMPORT_DESCRIPTOR_visa64 000000018002603c     visa64:visa64.dll
 0005:00000050       __IMPORT_DESCRIPTOR_rsnrpz_64 0000000180026050     rsnrpz_64:rsnrpz_64.dll
 0005:00000064       __IMPORT_DESCRIPTOR_KERNEL32 0000000180026064     kernel32:KERNEL32.dll
 0005:00000078       __NULL_IMPORT_DESCRIPTOR   0000000180026078     libBusDriver:libBusDriver.dll
 0005:00000620       __imp_DisableThreadLibraryCalls 0000000180026620     kernel32:KERNEL32.dll
 0005:00000628       __imp_GetSystemTimeAsFileTime 0000000180026628     kernel32:KERNEL32.dll
 0005:00000630       __imp_GetCurrentProcessId  0000000180026630     kernel32:KERNEL32.dll
 0005:00000638       __imp_GetCurrentThreadId   0000000180026638     kernel32:KERNEL32.dll
 0005:00000640       __imp_GetTickCount         0000000180026640     kernel32:KERNEL32.dll
 0005:00000648       __imp_QueryPerformanceCounter 0000000180026648     kernel32:KERNEL32.dll
 0005:00000650       __imp_RtlCaptureContext    0000000180026650     kernel32:KERNEL32.dll
 0005:00000658       __imp_RtlLookupFunctionEntry 0000000180026658     kernel32:KERNEL32.dll
 0005:00000660       __imp_RtlVirtualUnwind     0000000180026660     kernel32:KERNEL32.dll
 0005:00000668       __imp_IsDebuggerPresent    0000000180026668     kernel32:KERNEL32.dll
 0005:00000670       __imp_SetUnhandledExceptionFilter 0000000180026670     kernel32:KERNEL32.dll
 0005:00000678       __imp_UnhandledExceptionFilter 0000000180026678     kernel32:KERNEL32.dll
 0005:00000680       __imp_GetCurrentProcess    0000000180026680     kernel32:KERNEL32.dll
 0005:00000688       __imp_TerminateProcess     0000000180026688     kernel32:KERNEL32.dll
 0005:00000690       __imp_Sleep                0000000180026690     kernel32:KERNEL32.dll
 0005:00000698       \177KERNEL32_NULL_THUNK_DATA 0000000180026698     kernel32:KERNEL32.dll
 0005:00000708       __imp_??0_Container_base_secure@std@@QEAA@XZ 0000000180026708     msvcprtd:MSVCP90D.dll
 0005:00000710       __imp_??1_Container_base_secure@std@@QEAA@XZ 0000000180026710     msvcprtd:MSVCP90D.dll
 0005:00000718       __imp_?c_str@?$basic_string@DU?$char_traits@D@std@@V?$allocator@D@2@@std@@QEBAPEBDXZ 0000000180026718     msvcprtd:MSVCP90D.dll
 0005:00000720       __imp_??0?$basic_string@DU?$char_traits@D@std@@V?$allocator@D@2@@std@@QEAA@AEBV01@@Z 0000000180026720     msvcprtd:MSVCP90D.dll
 0005:00000728       __imp_??0?$basic_string@DU?$char_traits@D@std@@V?$allocator@D@2@@std@@QEAA@PEBD@Z 0000000180026728     msvcprtd:MSVCP90D.dll
 0005:00000730       __imp_??1?$basic_string@DU?$char_traits@D@std@@V?$allocator@D@2@@std@@QEAA@XZ 0000000180026730     msvcprtd:MSVCP90D.dll
 0005:00000738       __imp_?_Orphan_all@_Container_base_secure@std@@QEBAXXZ 0000000180026738     msvcprtd:MSVCP90D.dll
 0005:00000740       __imp_?_Debug_message@std@@YAXPEB_W0I@Z 0000000180026740     msvcprtd:MSVCP90D.dll
 0005:00000748       __imp_??0_Lockit@std@@QEAA@H@Z 0000000180026748     msvcprtd:MSVCP90D.dll
 0005:00000750       __imp_??1_Lockit@std@@QEAA@XZ 0000000180026750     msvcprtd:MSVCP90D.dll
 0005:00000758       \177MSVCP90D_NULL_THUNK_DATA 0000000180026758     msvcprtd:MSVCP90D.dll
 0005:000007c0       __imp_log10                00000001800267c0     MSVCRTD:MSVCR90D.dll
 0005:000007c8       __imp_fabs                 00000001800267c8     MSVCRTD:MSVCR90D.dll
 0005:000007d0       __imp___C_specific_handler 00000001800267d0     MSVCRTD:MSVCR90D.dll
 0005:000007d8       __imp__unlock              00000001800267d8     MSVCRTD:MSVCR90D.dll
 0005:000007e0       __imp___dllonexit          00000001800267e0     MSVCRTD:MSVCR90D.dll
 0005:000007e8       __imp__encode_pointer      00000001800267e8     MSVCRTD:MSVCR90D.dll
 0005:000007f0       __imp__lock                00000001800267f0     MSVCRTD:MSVCR90D.dll
 0005:000007f8       __imp__onexit              00000001800267f8     MSVCRTD:MSVCR90D.dll
 0005:00000800       __imp__decode_pointer      0000000180026800     MSVCRTD:MSVCR90D.dll
 0005:00000808       __imp__malloc_dbg          0000000180026808     MSVCRTD:MSVCR90D.dll
 0005:00000810       __imp__free_dbg            0000000180026810     MSVCRTD:MSVCR90D.dll
 0005:00000818       __imp__encoded_null        0000000180026818     MSVCRTD:MSVCR90D.dll
 0005:00000820       __imp__CrtSetCheckCount    0000000180026820     MSVCRTD:MSVCR90D.dll
 0005:00000828       __imp__initterm            0000000180026828     MSVCRTD:MSVCR90D.dll
 0005:00000830       __imp__initterm_e          0000000180026830     MSVCRTD:MSVCR90D.dll
 0005:00000838       __imp__amsg_exit           0000000180026838     MSVCRTD:MSVCR90D.dll
 0005:00000840       __imp___CppXcptFilter      0000000180026840     MSVCRTD:MSVCR90D.dll
 0005:00000848       __imp_?terminate@@YAXXZ    0000000180026848     MSVCRTD:MSVCR90D.dll
 0005:00000850       __imp_?_type_info_dtor_internal_method@type_info@@QEAAXXZ 0000000180026850     MSVCRTD:MSVCR90D.dll
 0005:00000858       __imp___crt_debugger_hook  0000000180026858     MSVCRTD:MSVCR90D.dll
 0005:00000860       __imp___clean_type_info_names_internal 0000000180026860     MSVCRTD:MSVCR90D.dll
 0005:00000868       __imp__purecall            0000000180026868     MSVCRTD:MSVCR90D.dll
 0005:00000870       __imp_memmove_s            0000000180026870     MSVCRTD:MSVCR90D.dll
 0005:00000878       __imp_?what@exception@std@@UEBAPEBDXZ 0000000180026878     MSVCRTD:MSVCR90D.dll
 0005:00000880       __imp_??0exception@std@@QEAA@AEBQEBD@Z 0000000180026880     MSVCRTD:MSVCR90D.dll
 0005:00000888       __imp_strcpy_s             0000000180026888     MSVCRTD:MSVCR90D.dll
 0005:00000890       __imp_vsprintf_s           0000000180026890     MSVCRTD:MSVCR90D.dll
 0005:00000898       __imp__CrtDbgReportW       0000000180026898     MSVCRTD:MSVCR90D.dll
 0005:000008a0       __imp__invalid_parameter   00000001800268a0     MSVCRTD:MSVCR90D.dll
 0005:000008a8       __imp_??0exception@std@@QEAA@XZ 00000001800268a8     MSVCRTD:MSVCR90D.dll
 0005:000008b0       __imp_??1exception@std@@UEAA@XZ 00000001800268b0     MSVCRTD:MSVCR90D.dll
 0005:000008b8       __imp_??0exception@std@@QEAA@AEBV01@@Z 00000001800268b8     MSVCRTD:MSVCR90D.dll
 0005:000008c0       __imp_strcmp               00000001800268c0     MSVCRTD:MSVCR90D.dll
 0005:000008c8       __imp__CxxThrowException   00000001800268c8     MSVCRTD:MSVCR90D.dll
 0005:000008d0       __imp___CxxFrameHandler3   00000001800268d0     MSVCRTD:MSVCR90D.dll
 0005:000008d8       __imp_??2@YAPEAX_K@Z       00000001800268d8     MSVCRTD:MSVCR90D.dll
 0005:000008e0       __imp_memset               00000001800268e0     MSVCRTD:MSVCR90D.dll
 0005:000008e8       __imp_atof                 00000001800268e8     MSVCRTD:MSVCR90D.dll
 0005:000008f0       __imp_??3@YAXPEAX@Z        00000001800268f0     MSVCRTD:MSVCR90D.dll
 0005:000008f8       __imp_strstr               00000001800268f8     MSVCRTD:MSVCR90D.dll
 0005:00000900       \177MSVCR90D_NULL_THUNK_DATA 0000000180026900     MSVCRTD:MSVCR90D.dll
 0005:00000998       __imp_??1IGPIBDev@@UEAA@XZ 0000000180026998     libBusDriver:libBusDriver.dll
 0005:000009a0       __imp_??0IGPIBDev@@QEAA@XZ 00000001800269a0     libBusDriver:libBusDriver.dll
 0005:000009a8       __imp_?GetDefaultRM@viPCIDev@@SAKXZ 00000001800269a8     libBusDriver:libBusDriver.dll
 0005:000009b0       __imp_?Init@IGPIBDev@@UEAA_NPEAD@Z 00000001800269b0     libBusDriver:libBusDriver.dll
 0005:000009b8       __imp_?OpenDefaultRM@viPCIDev@@SAHXZ 00000001800269b8     libBusDriver:libBusDriver.dll
 0005:000009c0       __imp_?Read@IGPIBDev@@UEAA_NPEADII@Z 00000001800269c0     libBusDriver:libBusDriver.dll
 0005:000009c8       __imp_?Write@IGPIBDev@@UEAA_NPEBDZZ 00000001800269c8     libBusDriver:libBusDriver.dll
 0005:000009d0       \177libBusDriver_NULL_THUNK_DATA 00000001800269d0     libBusDriver:libBusDriver.dll
 0005:00000a30       __imp_rsnrpz_status_preset 0000000180026a30     rsnrpz_64:rsnrpz_64.dll
 0005:00000a38       __imp_rsnrpz_chan_setCorrectionFrequency 0000000180026a38     rsnrpz_64:rsnrpz_64.dll
 0005:00000a40       __imp_rsnrpz_meass_readMeasurement 0000000180026a40     rsnrpz_64:rsnrpz_64.dll
 0005:00000a48       __imp_rsnrpz_chan_isMeasurementComplete 0000000180026a48     rsnrpz_64:rsnrpz_64.dll
 0005:00000a50       __imp_rsnrpz_chan_initiate 0000000180026a50     rsnrpz_64:rsnrpz_64.dll
 0005:00000a58       __imp_rsnrpz_close         0000000180026a58     rsnrpz_64:rsnrpz_64.dll
 0005:00000a60       __imp_rsnrpz_CloseSensor   0000000180026a60     rsnrpz_64:rsnrpz_64.dll
 0005:00000a68       __imp_rsnrpz_avg_setAutoEnabled 0000000180026a68     rsnrpz_64:rsnrpz_64.dll
 0005:00000a70       __imp_rsnrpz_avg_setCount  0000000180026a70     rsnrpz_64:rsnrpz_64.dll
 0005:00000a78       __imp_rsnrpz_trigger_setSource 0000000180026a78     rsnrpz_64:rsnrpz_64.dll
 0005:00000a80       __imp_rsnrpz_reset         0000000180026a80     rsnrpz_64:rsnrpz_64.dll
 0005:00000a88       __imp_rsnrpz_chans_initiate 0000000180026a88     rsnrpz_64:rsnrpz_64.dll
 0005:00000a90       __imp_rsnrpz_init          0000000180026a90     rsnrpz_64:rsnrpz_64.dll
 0005:00000a98       __imp_rsnrpz_GetSensorCount 0000000180026a98     rsnrpz_64:rsnrpz_64.dll
 0005:00000aa0       __imp_rsnrpz_error_message 0000000180026aa0     rsnrpz_64:rsnrpz_64.dll
 0005:00000aa8       __imp_rsnrpz_GetSensorInfo 0000000180026aa8     rsnrpz_64:rsnrpz_64.dll
 0005:00000ab0       \177rsnrpz_64_NULL_THUNK_DATA 0000000180026ab0     rsnrpz_64:rsnrpz_64.dll
 0005:00000b20       __imp_viFindRsrc           0000000180026b20     visa64:visa64.dll
 0005:00000b28       __imp_viOpen               0000000180026b28     visa64:visa64.dll
 0005:00000b30       __imp_viWrite              0000000180026b30     visa64:visa64.dll
 0005:00000b38       __imp_viClose              0000000180026b38     visa64:visa64.dll
 0005:00000b40       __imp_viRead               0000000180026b40     visa64:visa64.dll
 0005:00000b48       __imp_viFindNext           0000000180026b48     visa64:visa64.dll
 0005:00000b50       \177visa64_NULL_THUNK_DATA 0000000180026b50     visa64:visa64.dll

 entry point at        0001:000126e0

