LIBRARY		"libInstr"
EXPORTS
	; CInstrExpt
	??0CInstrExpt@@QEAA@PEADZZ
	?GetExpt@CInstrExpt@@QEAAPEADXZ
EXPORTS
	; CInstrument
	??0CInstrument@@IEAA@XZ
	?Instance@CInstrument@@SAAEAV1@XZ
	??1CInstrument@@UEAA@XZ
	?SetEnableExpt@CInstrument@@QEAAX_N@Z
	?Init@CInstrument@@UEAA_NXZ
	?Close@CInstrument@@UEAA_NXZ
	?HasSA@CInstrument@@UEAA_NXZ
	?HasSG@CInstrument@@UEAA_NXZ
	?HasPM@CInstrument@@UEAA_NXZ
	?SetSA@CInstrument@@UEAAXPEAD@Z
	?SetSG@CInstrument@@UEAAXPEAD@Z
	?SetPM@CInstrument@@UEAAXPEAD@Z
	?SA_Reset@CInstrument@@UEAA_NXZ
	?SA_SetCF@CInstrument@@UEAA_NN@Z
	?SA_SetSpan@CInstrument@@UEAA_NN@Z
	?SA_SetRBW@CInstrument@@UEAA_NN_N@Z
	?SA_SetVBW@CInstrument@@UEAA_NN_N@Z
	?SA_SetDectector@CInstrument@@UEAA_NW4DetectorTypes@ISA@@@Z
	?SA_SetPeakSearch@CInstrument@@UEAA_NW4PeakSearchTypes@ISA@@@Z
	?SA_SetRefLevel@CInstrument@@UEAA_NN@Z
	?SA_GetRefLevel@CInstrument@@UEAA_NAEAN@Z
	?SA_SetRefAuto@CInstrument@@UEAA_NXZ
	?SA_SetMarker@CInstrument@@UEAA_NW4MarkerTypes@ISA@@@Z
	?SA_GetMarkerPwr@CInstrument@@UEAA_NAEAN@Z
	?SA_GetMarkerFrequency@CInstrument@@UEAA_NAEAN@Z
	?SA_SetEnablePreamp@CInstrument@@UEAA_N_N@Z
	?SA_MarkerMove@CInstrument@@UEAA_NW4MarkerMoveTypes@ISA@@@Z
	?SA_MarkerMove@CInstrument@@UEAA_NN@Z
	?SA_SweepOnce@CInstrument@@UEAA_NXZ
	?SA_SetCalibration@CInstrument@@UEAA_NW4CalibrationTypes@ISA@@@Z
	?SA_SetAverTrace@CInstrument@@UEAA_N_NJ@Z
	?SA_SetAverTraceAndGetData@CInstrument@@UEAA_NJJPEAN@Z
	?SA_SetMechAtten@CInstrument@@UEAA_N_NJ@Z
	?SG_Reset@CInstrument@@UEAA_NXZ
	?SG_SetCW@CInstrument@@UEAA_NN@Z
	?SG_GetCW@CInstrument@@UEAA_NAEAN@Z
	?SG_SetPL@CInstrument@@UEAA_NN@Z
	?SG_GetPL@CInstrument@@UEAA_NAEAN@Z
	?SG_SetOutputEnable@CInstrument@@UEAA_N_N@Z
	?SG_SetModEnable@CInstrument@@UEAA_N_N@Z
	?PM_Reset@CInstrument@@UEAA_NXZ
	?PM_SetFrequency@CInstrument@@UEAA_NN@Z
	?PM_GetPwr@CInstrument@@UEAA_NAEAN@Z
	?PM_GetPwr@CInstrument@@UEAA_NNAEAN@Z