LIBRARY      "libSP1401"
EXPORTS
    ; CalFileR1A
	??0CalFileR1A@@AEAA@II@Z
	??1CalFileR1A@@EEAA@XZ
	?Open@CalFileR1A@@UEAAHXZ
	?Map2Buf@CalFileR1A@@UEAAHW4CalItem@ICalFile@@@Z
	?Map2Mem@CalFileR1A@@UEAAHXZ
	?Add@CalFileR1A@@UEAAHW4CalItem@ICalFile@@PEAX@Z
	?Create@CalFileR1A@@UEAAHXZ
	?Load@CalFileR1A@@UEAAHAEAUFileInfo@ICalFile@@@Z
	?GetItemSize@CalFileR1A@@UEAAHW4CalItem@ICalFile@@AEAI1@Z
	?GetItemSizeV0000@CalFileR1A@@QEAAHW4CalItem@ICalFile@@AEAI1@Z
	?GetItemSizeV0001@CalFileR1A@@QEAAHW4CalItem@ICalFile@@AEAI1@Z
	?GetItemSizeV0002@CalFileR1A@@QEAAHW4CalItem@ICalFile@@AEAI1@Z
	?GetItemSizeV0004@CalFileR1A@@QEAAHW4CalItem@ICalFile@@AEAI1@Z
	?GetTxAtt@CalFileR1A@@QEAAX_KW4IOMode@SP1401@@PEAM@Z
	?GetTxAtt@CalFileR1A@@QEAAX_KW4IOMode@SP1401@@HAEAN@Z
	?GetTxPower@CalFileR1A@@QEAAX_KNW4IOMode@SP1401@@AEANAEAH3AEAW4TxPAAtt@3@3@Z
	??0TxSidebandTableR1A@@QEAA@XZ
	??1TxSidebandTableR1A@@UEAA@XZ
	??0TxLOLeakageTableR1A@@QEAA@XZ
	??1TxLOLeakageTableR1A@@UEAA@XZ
	??0TxAttTableR1A@@QEAA@XZ
	??1TxAttTableR1A@@UEAA@XZ
	??0TxPowerTableR1A@@QEAA@XZ
	??1TxPowerTableR1A@@UEAA@XZ
	??0RxRefTableR1A@@QEAA@XZ
	??1RxRefTableR1A@@UEAA@XZ
	?MapBuf@TxSidebandTableR1A@@QEAAXPEAUDataF@1@@Z
	?MapBuf@TxLOLeakageTableR1A@@QEAAXPEAUDataF@1@@Z
	?MapBuf@X9119TableR1A@@QEAAXPEAUData@1@@Z
	?MapBuf@TxAttTableR1A@@QEAAXPEAUDataF@1@@Z
	?MapBuf@TxPowerTableR1A@@QEAAXPEAUDataF@1@@Z
	?MapBuf@RxRefTableR1A@@QEAAXPEAUDataF@1@@Z
EXPORTS
	; ArbReader
	??0ArbReader@@QEAA@XZ
	??1ArbReader@@QEAA@XZ
	?Load@ArbReader@@QEAAHPEBD@Z
	?Load@ArbReader@@QEAAPEAU_iobuf@@PEAUParam_t@1@PEAV?$vector@V?$vector@UData_t@ArbReader@@V?$allocator@UData_t@ArbReader@@@std@@@std@@V?$allocator@V?$vector@UData_t@ArbReader@@V?$allocator@UData_t@ArbReader@@@std@@@std@@@2@@std@@@Z
	?IsLoaded@ArbReader@@QEAA_NXZ
	?Show@ArbReader@@AEAAXPEBUFileHeader_t@1@@Z
	?Show@ArbReader@@AEAAXPEBUSegHeader_t@1@@Z
	?Show@ArbReader@@AEAAXAEAV?$list@UMarker_t@ArbReader@@V?$allocator@UMarker_t@ArbReader@@@std@@@std@@@Z
	?Show@ArbReader@@AEAAXPEBUData_t@1@@Z
	?GetFileInfo@ArbReader@@QEAAHPEAD@Z
	??0Param_t@ArbReader@@QEAA@XZ
	??1Param_t@ArbReader@@QEAA@XZ
EXPORTS
	; CalFileR1C
	??0CalFileR1C@@AEAA@II@Z
 	??1CalFileR1C@@EEAA@XZ
 	?Open@CalFileR1C@@UEAAHXZ
 	?SetBW@CalFileR1C@@UEAAHW4BW@SP1401@@@Z
 	?Add@CalFileR1C@@UEAAHW4CalItem@ICalFile@@PEAX@Z
 	?Map2Buf@CalFileR1C@@UEAAHW4CalItem@ICalFile@@@Z
 	?Map2Mem@CalFileR1C@@UEAAHXZ
 	?Create@CalFileR1C@@UEAAHXZ
 	?Load@CalFileR1C@@UEAAHAEAUFileInfo@ICalFile@@@Z
 	?GetItemSize@CalFileR1C@@UEAAHW4CalItem@ICalFile@@AEAI1@Z
 	??0TxAttOPTableR1C@@QEAA@XZ
 	??1TxAttOPTableR1C@@UEAA@XZ
 	??0TxAttIOTableR1C@@QEAA@XZ
 	??1TxAttIOTableR1C@@UEAA@XZ
 	??0TxPowerOPTableR1C@@QEAA@XZ
 	??1TxPowerOPTableR1C@@UEAA@XZ
 	??0TxPowerIOTableR1C@@QEAA@XZ
 	??1TxPowerIOTableR1C@@UEAA@XZ
 	??0RxRefOPTableR1C@@QEAA@XZ
 	??1RxRefOPTableR1C@@UEAA@XZ
 	??0RxRefIOTableR1C@@QEAA@XZ
 	??1RxRefIOTableR1C@@UEAA@XZ
 	??0RxAttOPTableR1C@@QEAA@XZ
 	??1RxAttOPTableR1C@@UEAA@XZ
 	??0RxAttIOTableR1C@@QEAA@XZ
 	??1RxAttIOTableR1C@@UEAA@XZ
 	??0TxFilter_80M_TableR1C@@QEAA@XZ
 	??1TxFilter_80M_TableR1C@@UEAA@XZ
 	??0TxFilter_160M_TableR1C@@QEAA@XZ
 	??1TxFilter_160M_TableR1C@@UEAA@XZ
 	??0RxFilter_80M_TableR1C@@QEAA@XZ
 	??1RxFilter_80M_TableR1C@@UEAA@XZ
 	??0RxFilter_160M_TableR1C@@QEAA@XZ
 	??1RxFilter_160M_TableR1C@@UEAA@XZ
 	??0TxFilterOffTableR1C@@QEAA@XZ
 	??1TxFilterOffTableR1C@@UEAA@XZ
 	??0RxFilterOffTableR1C@@QEAA@XZ
 	??1RxFilterOffTableR1C@@UEAA@XZ
 	?MapBuf@TxSidebandTableR1C@@QEAAXPEAUDataF@1@@Z
 	?MapBuf@TxLOLeakageTableR1C@@QEAAXPEAUDataF@1@@Z
 	?MapBuf@X9119TableR1C@@QEAAXPEAUDataF@1@@Z
 	?MapBuf@TxAttOPTableR1C@@QEAAXPEAUDataF@1@@Z
 	?MapBuf@TxAttIOTableR1C@@QEAAXPEAUDataF@1@@Z
 	?MapBuf@TxPowerOPTableR1C@@QEAAXPEAUDataF@1@@Z
 	?MapBuf@TxPowerIOTableR1C@@QEAAXPEAUDataF@1@@Z
 	?MapBuf@RxRefOPTableR1C@@QEAAXPEAUDataF@1@@Z
 	?MapBuf@RxRefIOTableR1C@@QEAAXPEAUDataF@1@@Z
 	?MapBuf@RxAttOPTableR1C@@QEAAXPEAUDataF@1@@Z
 	?MapBuf@RxAttIOTableR1C@@QEAAXPEAUDataF@1@@Z
 	?MapBuf@TxRFFr_0_TableR1C@@QEAAXPEAUDataF@TxRFFrTable@@@Z
 	?MapBuf@TxRFFr_1_TableR1C@@QEAAXPEAUDataF@TxRFFrTable@@@Z
 	??0TxIFFrTableR1C@@QEAA@XZ
 	?MapBuf@TxIFFrTableR1C@@QEAAXPEAUDataF@1@@Z
 	??1TxIFFrTableR1C@@UEAA@XZ
 	?MapBuf@TxFilter_80M_TableR1C@@QEAAXPEAUDataF@1@@Z
 	?MapBuf@TxFilter_160M_TableR1C@@QEAAXPEAUDataF@1@@Z
 	??0RxRFFrTableR1C@@QEAA@XZ
 	?MapBuf@RxRFFrTableR1C@@QEAAXPEAUDataF@1@@Z
 	??1RxRFFrTableR1C@@UEAA@XZ
 	??0RxIFFrTableR1C@@QEAA@XZ
 	?MapBuf@RxIFFrTableR1C@@QEAAXPEAUDataF@1@@Z
 	??1RxIFFrTableR1C@@UEAA@XZ
 	?MapBuf@RxFilter_80M_TableR1C@@QEAAXPEAUDataF@1@@Z
 	?MapBuf@RxFilter_160M_TableR1C@@QEAAXPEAUDataF@1@@Z
 	?MapBuf@TxFilterOffTableR1C@@QEAAXPEAUDataF@1@@Z
 	?MapBuf@RxFilterOffTableR1C@@QEAAXPEAUDataF@1@@Z
 	??0TxRFFr_0_TableR1C@@QEAA@XZ
 	??0TxRFFrTable@@QEAA@XZ
 	??1TxRFFrTable@@UEAA@XZ
 	??0TxRFFr_1_TableR1C@@QEAA@XZ
 	??1TxRFFr_0_TableR1C@@UEAA@XZ
 	??1TxRFFr_1_TableR1C@@UEAA@XZ
 EXPORTS
 	; DMAMgr
	??0DMAMgr@@AEAA@XZ
	??1DMAMgr@@AEAA@XZ
	??4DMAMgr@@AEAAAEAV0@AEAV0@@Z
	?Instance@DMAMgr@@SAPEAV1@XZ
	?FpgaRead@DMAMgr@@QEAAHPEAVviPCIDev@@PEAIIPEAM@Z
	?FpgaReadAll@DMAMgr@@QEAAHPEAVviPCIDev@@PEAII@Z
	?WDumpToBuf@DMAMgr@@QEAAHPEAHI@Z
	?WDumpToBufCh@DMAMgr@@QEAAHIPEAHI0@Z
	?WDumpToFileCh@DMAMgr@@QEAAHIPEADI0@Z
	?IQToBuf@DMAMgr@@QEAAHIPEAF0I00@Z
	?IQToFile@DMAMgr@@QEAAHIPEADI0@Z
	?Reset@DMAMgr@@QEAAHPEAVviPCIDev@@@Z
	?RAlloc@DMAMgr@@QEAAHXZ
	?RSendPhyAddr@DMAMgr@@QEAAHPEAVviPCIDev@@@Z
	?RStart@DMAMgr@@QEAAHPEAVviPCIDev@@@Z
	?WAlloc@DMAMgr@@QEAAHXZ
	?WSendPhyAddr@DMAMgr@@QEAAHPEAVviPCIDev@@@Z
	?WStart@DMAMgr@@QEAAHPEAVviPCIDev@@@Z
	?GetUsrSpc@DMAMgr@@QEBAPEAIXZ
EXPORTS
	; ICalFile
	??0FileInfo@ICalFile@@QEAA@XZ
	??1FileInfo@ICalFile@@QEAA@XZ
	??0ItemBuf@ICalFile@@QEAA@XZ
	??1ItemBuf@ICalFile@@QEAA@XZ
	??4ItemBuf@ICalFile@@QEAA?AU01@AEBU01@@Z
	??0ICalFile@@QEAA@II@Z
	??1ICalFile@@UEAA@XZ
	?SetBW@ICalFile@@UEAAHW4BW@SP1401@@@Z
	?GetBw@ICalFile@@QEAA?AW4BW@SP1401@@XZ
	?GetRfIdx@ICalFile@@QEAAIXZ
	?GetRfuIdx@ICalFile@@QEAAIXZ
	?GetOrdinal@ICalFile@@QEAAIXZ
	?GetFileVer@ICalFile@@UEAAHXZ
	?GetFixItemTableR1A@ICalFile@@SAIPEAUItemInfo@1@AEAI@Z
	?GetFixItemTableR1C@ICalFile@@SAIPEAUItemInfo@1@AEAI@Z
	?GetMaxItemByte@ICalFile@@SAIPEAUItemInfo@1@I@Z
	?GetMaxItemByte@ICalFile@@SAIXZ
	?Open@ICalFile@@UEAAHXZ
	?IsFileValid@ICalFile@@UEAA_NXZ
	?WriteFromPos@ICalFile@@UEAAHPEADIIPEAX@Z
	?ReadFromPos@ICalFile@@UEAAHPEADIIPEAX@Z
	?Write@ICalFile@@UEAAHW4CalItem@1@@Z
	?Read@ICalFile@@UEAAHW4CalItem@1@PEAX@Z
	?ShowFileVer@ICalFile@@UEAAXPEAUFileVer@1@@Z
	?ShowFileInfo@ICalFile@@UEAAXPEAUFileInfo@1@@Z
	?ShowItemInfo@ICalFile@@UEAAXPEAUItemInfo@1@@Z
EXPORTS
	; CIQBufMgr
	??0CIQBufMgr@@AEAA@XZ
	??1CIQBufMgr@@AEAA@XZ
	??4CIQBufMgr@@AEAAAEAV0@AEAV0@@Z
	?Instance@CIQBufMgr@@SAPEAV1@XZ
	?New@CIQBufMgr@@QEAAXI@Z
	?SetSr@CIQBufMgr@@QEAAXI@Z
	?GetSr@CIQBufMgr@@QEAAIXZ
	?GetI@CIQBufMgr@@QEBAPEAFXZ
	?GetQ@CIQBufMgr@@QEBAPEAFXZ
	?GetI@CIQBufMgr@@QEBAFI@Z
	?GetQ@CIQBufMgr@@QEBAFI@Z
	?GetNormFreq@CIQBufMgr@@QEBAPEANXZ
	?GetPower@CIQBufMgr@@QEBAPEANXZ
	?GetNormFreq@CIQBufMgr@@QEBANI@Z
	?GetPower@CIQBufMgr@@QEBANI@Z
	?_2Ptr@CIQBufMgr@@QEAAXPEAH0@Z
	?DFT@CIQBufMgr@@QEAAXXZ
	?TDGetSamples@CIQBufMgr@@QEAAIXZ
	?DFTGetPts@CIQBufMgr@@QEAAIII@Z
	?DFTGetPts@CIQBufMgr@@QEAAIXZ
EXPORTS
	; ISP1401
	??0ISP1401@@QEAA@XZ
	??1ISP1401@@QEAA@XZ
	?GetBw@ISP1401@@UEAA?AW4BW@SP1401@@XZ
	?SetEnableExpt@ISP1401@@UEAAX_N@Z
	?GetRfIdx@ISP1401@@UEAAIXZ
	?GetRfuIdx@ISP1401@@UEAAIXZ
	?GetCalFile@ISP1401@@UEAAPEAVICalFile@@XZ
	?GetK7@ISP1401@@UEAAPEAVviPCIDev@@XZ
	?Connect@ISP1401@@UEAAHPEAVviPCIDev@@@Z
	?GetHwVer@ISP1401@@SAHPEBDAEAW4HwVer@1@@Z
	?GetK7Ver@ISP1401@@UEAAHAEAI@Z
	?SetSN@ISP1401@@UEAAHPEBDH@Z
	?SetSN@ISP1401@@UEAAHPEAD@Z
	?GetSN@ISP1401@@UEAAHPEAD@Z
	?GetArbReader@ISP1401@@UEAAPEAVArbReader@@XZ
	?IsValidSN@ISP1401@@SAHPEBD@Z
	?SetArbSegment@ISP1401@@UEAAHAEBUArbSeg_t@@@Z
	?SetArbSegments@ISP1401@@UEAAHG@Z
	?SetArbParam@ISP1401@@UEAAHIII@Z
	?SetArbTrigger@ISP1401@@UEAAH_N0II@Z
	?SetArbManualTrigger@ISP1401@@UEAAHXZ
	?SetArbMultiSegMode@ISP1401@@UEAAHII@Z
	?SetArbMultiSegNext@ISP1401@@UEAAHI@Z
	?GetArbCurrentSeg@ISP1401@@UEAAIXZ
	?GetArbCurrentSample@ISP1401@@UEAAIXZ
	?GetArbCurrentCycle@ISP1401@@UEAAIXZ
	?GetArbCurrentTimer@ISP1401@@UEAANXZ
	?SetArbFreqOffset@ISP1401@@UEAAHI@Z
	?SetArbMkrDelay@ISP1401@@UEAAHPEAG@Z
	?SetArbUnperiodMarkerStart@ISP1401@@UEAAHXZ
	?SetArbUnperiodAddMarker@ISP1401@@UEAAHHII@Z
	?SetArbUnperiodMarkerEnd@ISP1401@@UEAAHHH@Z
	?ArbLoad@ISP1401@@UEAAHPEAD@Z
	?ArbStart@ISP1401@@UEAAHXZ
	?ArbStop@ISP1401@@UEAAHXZ
	?WriteEEPROM@ISP1401@@UEAAHGIPEAD@Z
	?ReadEEPROM@ISP1401@@UEAAHGIPEAD@Z
	?SetNListIQCapTrigOffset@ISP1401@@UEAAHI@Z
	?SetNListIQCapCapOffset@ISP1401@@UEAAHI@Z
	?IQCapStart@ISP1401@@UEAAHXZ
	?IQCapAbort@ISP1401@@UEAAHXZ
	?IQDump2Buf@ISP1401@@UEAAHPEAF0I@Z
	?IQDump2File@ISP1401@@UEAAHPEADI@Z
	?SetIQCapSamples@ISP1401@@UEAAHI@Z
	?GetIQCapSamples@ISP1401@@UEAAHAEAI@Z
	?SetIQCapTrigGap@ISP1401@@UEAAHI@Z
	?IQCap@ISP1401@@UEAAHXZ
	?SetPowerMeasSrc@ISP1401@@UEAAHW4IQCapSrcs@1@_N@Z
	?SetPowerMeasTimeout@ISP1401@@UEAAHI@Z
	?GetPowerMeasTimeout@ISP1401@@UEAAHAEA_N@Z
	?SetPowerMeasTrigThreshold@ISP1401@@UEAAHN@Z
	?SetPowerMesaTrigGap@ISP1401@@UEAAHI@Z
	?PowerMeasStart@ISP1401@@UEAAHXZ
	?PowerMeasAbort@ISP1401@@UEAAHXZ
	?SetPowerMeasSamples@ISP1401@@UEAAHI@Z
	?GetPowerMeasSamples@ISP1401@@UEAAHAEAI@Z
	?GetPowerMeasState@ISP1401@@UEAAHAEAW4PowerMeasState@1@@Z
	?GetPowerMeasPeak@ISP1401@@UEAAHAEAN@Z
	?GetPowerMeasPower@ISP1401@@UEAAHAEAN@Z
	?GetADS5474@ISP1401@@UEAAHAEA_J@Z
	?GetADS5474Manual@ISP1401@@UEAAHAEA_J@Z
	?SetRxIFFilterSw@ISP1401@@UEAAHW4RxIFFilter@1@@Z
	?GetAD7680@ISP1401@@UEAAHAEAI@Z
EXPORTS
	; RxAttTable
	?Add@RxAttOPTableR1C@@UEAAXPEAUDataF@1@@Z
	??0DataF@RxAttOPTableR1C@@QEAA@XZ
	?Map2Mem@RxAttOPTableR1C@@QEAAXXZ
	?Get@RxAttOPTableR1C@@QEAAH_KN@Z
	?Get@RxAttOPTableR1C@@QEAAX_KPEAUDataM@1@@Z
	?Get@RxAttOPTableR1C@@QEAAX_KPEAUDataF@1@@Z
	?SaveAs@RxAttOPTableR1C@@QEAAXPEAD@Z
	?Add@RxAttIOTableR1C@@UEAAXPEAUDataF@1@@Z
	??0DataF@RxAttIOTableR1C@@QEAA@XZ
	?Map2Mem@RxAttIOTableR1C@@QEAAXXZ
	?Get@RxAttIOTableR1C@@QEAAH_KN@Z
	?Get@RxAttIOTableR1C@@QEAAX_KPEAUDataM@1@@Z
	?Get@RxAttIOTableR1C@@QEAAX_KPEAUDataF@1@@Z
	?SaveAs@RxAttIOTableR1C@@QEAAXPEAD@Z
EXPORTS
	; RxFilterOffTable
	?Add@RxFilterOffTableR1C@@UEAAXPEAUDataF@1@@Z
	??0DataF@RxFilterOffTableR1C@@QEAA@XZ
	?Map2Mem@RxFilterOffTableR1C@@QEAAXXZ
	?Get@RxFilterOffTableR1C@@QEAAX_KPEAUDataM@1@@Z
	?Get@RxFilterOffTableR1C@@QEAAX_KPEAUDataF@1@@Z
	?SaveAs@RxFilterOffTableR1C@@QEAAXPEAD@Z
EXPORTS
	; RxFilterTable
	??0DataF@RxRFFrTableR1C@@QEAA@XZ
	?Add@RxRFFrTableR1C@@UEAAXPEAUDataF@1@@Z
	?Get@RxRFFrTableR1C@@QEAAX_KPEAUDataF@1@@Z
	?SaveAs@RxRFFrTableR1C@@QEAAXPEAD@Z
	??0DataF@RxIFFrTableR1C@@QEAA@XZ
	?Add@RxIFFrTableR1C@@UEAAXPEAUDataF@1@@Z
	?Get@RxIFFrTableR1C@@QEAAXNPEAUDataF@1@@Z
	?SaveAs@RxIFFrTableR1C@@QEAAXPEAD@Z
	?Add@RxFilter_80M_TableR1C@@UEAAXPEAUDataF@1@@Z
	??0DataF@RxFilter_80M_TableR1C@@QEAA@XZ
	?_2Double@DataM@RxFilter_80M_TableR1C@@QEAAXPEAN0@Z
	?Map2Mem@RxFilter_80M_TableR1C@@QEAAXXZ
	?Get@RxFilter_80M_TableR1C@@QEAAX_KPEAUDataM@1@@Z
	?Get@RxFilter_80M_TableR1C@@QEAAX_KPEAUDataF@1@@Z
	?SaveAs@RxFilter_80M_TableR1C@@QEAAXPEAD@Z
	?Add@RxFilter_160M_TableR1C@@UEAAXPEAUDataF@1@@Z
	??0DataF@RxFilter_160M_TableR1C@@QEAA@XZ
	?_2Double@DataM@RxFilter_160M_TableR1C@@QEAAXPEAN0@Z
	?Map2Mem@RxFilter_160M_TableR1C@@QEAAXXZ
	?Get@RxFilter_160M_TableR1C@@QEAAX_KPEAUDataM@1@@Z
	?Get@RxFilter_160M_TableR1C@@QEAAX_KPEAUDataF@1@@Z
	?SaveAs@RxFilter_160M_TableR1C@@QEAAXPEAD@Z
EXPORTS
	; RxRefTable
	?Add@RxRefTableR1A@@UEAAXPEAUDataF@1@@Z
	??0DataF@RxRefTableR1A@@QEAA@XZ
	?Map2Mem@RxRefTableR1A@@QEAAXXZ
	?GetSGPower@RxRefTableR1A@@SAHH@Z
	?GuessBaseOP@RxRefTableR1A@@SAXAEAHAEAN0@Z
	?GuessBaseIO@RxRefTableR1A@@SAXAEAHAEAN0@Z
	?GetIO@RxRefTableR1A@@QEAAX_KNAEA_JAEAHAEAN2@Z
	?GetOP@RxRefTableR1A@@QEAAX_KNAEA_JAEAHAEAN2@Z
	?Get@RxRefTableR1A@@QEAAX_KNW4IOMode@SP1401@@AEA_JAEAW4RxLNAAtt@3@AEANAEAH@Z
	?SaveAs@RxRefTableR1A@@QEAAXPEAD@Z
	?Add@RxRefOPTableR1C@@UEAAXPEAUDataF@1@@Z
	??0DataF@RxRefOPTableR1C@@QEAA@XZ
	?Map2Mem@RxRefOPTableR1C@@QEAAXXZ
	?GetConfigTable@RxRefOPTableR1C@@SAXHUDataM@1@PEAURxStateM@1@@Z
	?GetRefSegIdx@RxRefOPTableR1C@@SAHN@Z
	?GuessBase@RxRefOPTableR1C@@SAXHAEAH00AEAN11@Z
	?GetBase@RxRefOPTableR1C@@QEAAX_KPEAUDataM@1@@Z
	?GetBase@RxRefOPTableR1C@@QEAAX_KPEAUDataF@1@@Z
	?Get@RxRefOPTableR1C@@QEAAX_KNPEAURxStateM@1@@Z
	?Get@RxRefOPTableR1C@@QEAAX_KNPEAURxStateF@1@PEAUtm@@@Z
	?SaveAs@RxRefOPTableR1C@@QEAAXPEAD@Z
	?Add@RxRefIOTableR1C@@UEAAXPEAUDataF@1@@Z
	??0DataF@RxRefIOTableR1C@@QEAA@XZ
	?Map2Mem@RxRefIOTableR1C@@QEAAXXZ
	?GetConfigTable@RxRefIOTableR1C@@SAXHUDataM@1@PEAURxStateM@RxRefOPTableR1C@@@Z
	?GuessBase@RxRefIOTableR1C@@SAXHAEAH00AEAN11@Z
	?GetRefSegIdx@RxRefIOTableR1C@@SAHN@Z
	?GetBase@RxRefIOTableR1C@@QEAAX_KPEAUDataM@1@@Z
	?GetBase@RxRefIOTableR1C@@QEAAX_KPEAUDataF@1@@Z
	?Get@RxRefIOTableR1C@@QEAAX_KNPEAURxStateM@RxRefOPTableR1C@@@Z
	?Get@RxRefIOTableR1C@@QEAAX_KNPEAURxStateF@RxRefOPTableR1C@@PEAUtm@@@Z
	?SaveAs@RxRefIOTableR1C@@QEAAXPEAD@Z
EXPORTS
	; CSGPMMFile
	??MPointKey@CSGPMMFile@@QEBA_NAEBU01@@Z
	??4PointKey@CSGPMMFile@@QEAAAEAU01@AEBU01@@Z
	??0CSGPMMFile@@QEAA@PEAD@Z
	??1CSGPMMFile@@UEAA@XZ
	?Create@CSGPMMFile@@AEAAHUPoint@1@@Z
	?Insert@CSGPMMFile@@AEAAHUPoint@1@@Z
	?Get@CSGPMMFile@@QEAAH_KMAEAM@Z
	?Fuse@CSGPMMFile@@QEAAHAEAV?$vector@UPoint@CSGPMMFile@@V?$allocator@UPoint@CSGPMMFile@@@std@@@std@@@Z
	?Commit@CSGPMMFile@@QEAAHXZ
	?To2DArray@CSGPMMFile@@QEAAHAEAV?$vector@V?$vector@UPoint@CSGPMMFile@@V?$allocator@UPoint@CSGPMMFile@@@std@@@std@@V?$allocator@V?$vector@UPoint@CSGPMMFile@@V?$allocator@UPoint@CSGPMMFile@@@std@@@std@@@2@@std@@PEAV?$vector@_KV?$allocator@_K@std@@@3@PEAV?$vector@MV?$allocator@M@std@@@3@@Z
	?Map2buf@CSGPMMFile@@AEAAHXZ
	?Clear@CSGPMMFile@@QEAAHXZ
EXPORTS
	; CSP1401R1A
	??0CSP1401R1A@@QEAA@II@Z
	??1CSP1401R1A@@UEAA@XZ
	?OpenBoard@CSP1401R1A@@UEAAHXZ
	?InitLO@CSP1401R1A@@QEAAHXZ
	?CloseBoard@CSP1401R1A@@UEAAHXZ
	?SetLED@CSP1401R1A@@UEAAH_N0@Z
	?GetConnect@CSP1401R1A@@UEAA_NXZ
	?GetCalFile@CSP1401R1A@@UEAAPEAVCalFileR1A@@XZ
	?TxFreq2LO@CSP1401R1A@@QEAAH_KAEA_K1AEAW4TxBand@1@@Z
	?TxLO2Freq@CSP1401R1A@@QEAAH_K0W4TxBand@1@AEA_K@Z
	?RxFreq2LO@CSP1401R1A@@QEAAH_KAEA_K1@Z
	?RxLO2Freq@CSP1401R1A@@QEAAH_K0AEA_K@Z
	?IOMode2IOSw@CSP1401R1A@@QEAAHW4IOMode@SP1401@@AEAW4TxIOSw@1@AEAW4RxIOSw@1@AEAW4RxIOSw1@1@AEAW4RxIOSw2@1@AEA_N5@Z
	?SetPowEn@CSP1401R1A@@UEAAH_N@Z
	?SetTxModulatorEn@CSP1401R1A@@UEAAH_N@Z
	?SetIOMode@CSP1401R1A@@UEAAHW4IOMode@SP1401@@@Z
	?GetIOMode@CSP1401R1A@@UEAAHAEAW4IOMode@SP1401@@@Z
	?SetTxBandSw@CSP1401R1A@@QEAAHW4TxBand@1@@Z
	?SetTxPAAttSw@CSP1401R1A@@QEAAHW4TxPAAtt@SP1401@@@Z
	?SetTxIOSw@CSP1401R1A@@QEAAHW4TxIOSw@1@@Z
	?SetLO@CSP1401R1A@@QEAAHW4LO@1@_K@Z
	?DetLO@CSP1401R1A@@QEAAHW4LO@1@AEA_N@Z
	?SetTxLO1Reg@CSP1401R1A@@QEAAHI@Z
	?SetTxLO2Reg@CSP1401R1A@@QEAAHI@Z
	?DetTxLO1Lock@CSP1401R1A@@QEAAHAEA_N@Z
	?DetTxLO2Lock@CSP1401R1A@@QEAAHAEA_N@Z
	?SetTxFreq@CSP1401R1A@@UEAAH_K@Z
	?SetTxAtt1@CSP1401R1A@@QEAAHH@Z
	?SetTxAtt2@CSP1401R1A@@QEAAHH@Z
	?SetTxAtt3@CSP1401R1A@@QEAAHH@Z
	?SetTxAtt@CSP1401R1A@@QEAAHHHH@Z
	?SetTxAtt@CSP1401R1A@@UEAAHN@Z
	?SyncSetTxGain@CSP1401R1A@@QEAAHHHHN@Z
	?SetRxLNAAttSw@CSP1401R1A@@UEAAHW4RxLNAAtt@SP1401@@@Z
	?SetRxFreq@CSP1401R1A@@UEAAH_K@Z
	?SetRxIOSw1@CSP1401R1A@@QEAAHW4RxIOSw1@1@@Z
	?SetRxIOSw2@CSP1401R1A@@QEAAHW4RxIOSw2@1@@Z
	?SetRxIOSw@CSP1401R1A@@QEAAHW4RxIOSw@1@@Z
	?SetRxLO1Reg@CSP1401R1A@@QEAAHI@Z
	?DetRxLO1Lock@CSP1401R1A@@QEAAHAEA_N@Z
	?SetRxLO2Reg@CSP1401R1A@@QEAAHI@Z
	?DetRxLO2Lock@CSP1401R1A@@QEAAHAEA_N@Z
	?SetRxAtt1@CSP1401R1A@@QEAAHNPEAN@Z
	?SetRxAtt2@CSP1401R1A@@QEAAHHPEAH@Z
	?SetRxAtt@CSP1401R1A@@QEAAHNH@Z
	?SetRxAtt@CSP1401R1A@@QEAAHNPEANPEAH@Z
	?GetTxTemp@CSP1401R1A@@QEAAHAEAN@Z
	?GetRxTemp@CSP1401R1A@@QEAAHAEAN@Z
	?SetLTC2666@CSP1401R1A@@QEAAHGH@Z
	?SetLTC2666@CSP1401R1A@@QEAAHGN@Z
	?GetLTC2666@CSP1401R1A@@QEAAHGAEAH@Z
	?SetDetSw@CSP1401R1A@@QEAAHW4RFCh@ISP1401@@@Z
	?SetRxLMH5401N@CSP1401R1A@@QEAAHN@Z
	?SetRxLMH5401P@CSP1401R1A@@QEAAHN@Z
	?SetTxLO2XB1007@CSP1401R1A@@QEAAHN@Z
	?SetRxIF1HMC694VGG1@CSP1401R1A@@QEAAHN@Z
	?SetRxIF1HMC694VGA@CSP1401R1A@@QEAAHN@Z
	?SetRxIF1HMC694VGG2@CSP1401R1A@@QEAAHN@Z
EXPORTS
	; CSP1401R1C
	??0GPIOA@CSP1401R1C@@QEAA@XZ
	??0GPIOB@CSP1401R1C@@QEAA@XZ
	??0CSP1401R1C@@QEAA@II@Z
	??1CSP1401R1C@@UEAA@XZ
	?OpenBoard@CSP1401R1C@@UEAAHXZ
	?InitADF5355@CSP1401R1C@@QEAAHXZ
	?InitHMC1197@CSP1401R1C@@QEAAHXZ
	?CloseBoard@CSP1401R1C@@UEAAHXZ
	?SetLED@CSP1401R1C@@UEAAH_N0@Z
	?GetConnect@CSP1401R1C@@UEAA_NXZ
	?GetCalFile@CSP1401R1C@@UEAAPEAVCalFileR1C@@XZ
	?TxFreq2LO@CSP1401R1C@@QEAAH_KAEA_K11AEAW4TxFilter@1@@Z
	?TxLO2Freq@CSP1401R1C@@QEAAH_K00AEA_K@Z
	?RxFreq2LO@CSP1401R1C@@QEAAH_KAEA_K1@Z
	?RxLO2Freq@CSP1401R1C@@QEAAH_K0AEA_K@Z
	?IOMode2IOSw@CSP1401R1C@@QEAAHW4IOMode@SP1401@@AEAW4TxIOSw1@1@AEAW4TxIOSw2@1@AEAW4RxIOSw1@1@AEAW4RxIOSw2@1@AEAW4RxIOSw3@1@AEAW4LoopSw@1@AEA_N7@Z
	?IOMode2LED@CSP1401R1C@@QEAAHW4IOMode@SP1401@@AEA_N111@Z
	?SetPowEn@CSP1401R1C@@UEAAH_N@Z
	?SetTxModulatorEn@CSP1401R1C@@UEAAH_N@Z
	?SetIOMode@CSP1401R1C@@UEAAHW4IOMode@SP1401@@@Z
	?GetIOMode@CSP1401R1C@@UEAAHAEAW4IOMode@SP1401@@@Z
	?SetADF5355@CSP1401R1C@@QEAAHW4LO@1@_K@Z
	?SetHMC1197@CSP1401R1C@@QEAAH_K@Z
	?DetLO@CSP1401R1C@@QEAAHW4LO@1@AEA_N@Z
	?SetTxLO1Reg@CSP1401R1C@@QEAAHI@Z
	?GetTxLO1Reg@CSP1401R1C@@QEAAHIAEAI@Z
	?SetTxLO1RegOpenMode@CSP1401R1C@@QEAAHI@Z
	?GetTxLO1RegOpenMode@CSP1401R1C@@QEAAHIAEAI@Z
	?SetTxLO1RegHMCMode@CSP1401R1C@@QEAAHI@Z
	?GetTxLO1RegHMCMode@CSP1401R1C@@QEAAHIAEAI@Z
	?DetTxLO1Lock@CSP1401R1C@@QEAAHAEA_N@Z
	?SetTxLO2Reg@CSP1401R1C@@QEAAHI@Z
	?DetTxLO2Lock@CSP1401R1C@@QEAAHAEA_N@Z
	?SetTxLO3Reg@CSP1401R1C@@QEAAHI@Z
	?DetTxLO3Lock@CSP1401R1C@@QEAAHAEA_N@Z
	?SetTxFreq@CSP1401R1C@@UEAAH_K@Z
	?SetTxFilterSw@CSP1401R1C@@QEAAHW4TxFilter@1@0@Z
	?SetTxIOSw1@CSP1401R1C@@QEAAHW4TxIOSw1@1@@Z
	?SetTxIOSw2@CSP1401R1C@@QEAAHW4TxIOSw2@1@@Z
	?SetLoopSw@CSP1401R1C@@QEAAHW4LoopSw@1@@Z
	?SetTxAtt0@CSP1401R1C@@QEAAHN@Z
	?SetTxAtt1@CSP1401R1C@@QEAAHN@Z
	?SetTxAtt2@CSP1401R1C@@QEAAHN@Z
	?SetTxAtt3@CSP1401R1C@@QEAAHN@Z
	?SetTxAtt@CSP1401R1C@@QEAAHNNNN@Z
	?SetTxAtt@CSP1401R1C@@UEAAHN@Z
	?SyncSetTxGain@CSP1401R1C@@QEAAHNNNNN@Z
	?SetRxFreq@CSP1401R1C@@UEAAH_K@Z
	?SetRxIOSw1@CSP1401R1C@@QEAAHW4RxIOSw1@1@@Z
	?SetRxIOSw2@CSP1401R1C@@QEAAHW4RxIOSw2@1@@Z
	?SetRxIOSw3@CSP1401R1C@@QEAAHW4RxIOSw3@1@@Z
	?SetRxLO1Reg@CSP1401R1C@@QEAAHI@Z
	?DetRxLO1Lock@CSP1401R1C@@QEAAHAEA_N@Z
	?SetRxAtt019Sw@CSP1401R1C@@QEAAHW4RxAtt019@SP1401@@@Z
	?SetRxLNAAttSw@CSP1401R1C@@UEAAHW4RxLNAAtt@SP1401@@@Z
	?SetRxAtt1@CSP1401R1C@@QEAAHN@Z
	?SetRxAtt2@CSP1401R1C@@QEAAHN@Z
	?SetRxAtt3@CSP1401R1C@@QEAAHN@Z
	?SetRxAtt@CSP1401R1C@@QEAAHNNN@Z
	?GetTemp0RxLO2@CSP1401R1C@@QEAAHPEAN@Z
	?GetTemp1RxLNA@CSP1401R1C@@QEAAHPEAN@Z
	?GetTemp2RxLO1@CSP1401R1C@@QEAAHPEAN@Z
	?GetTemp3RxPA1@CSP1401R1C@@QEAAHPEAN@Z
	?GetTemp4TxLO2@CSP1401R1C@@QEAAHPEAN@Z
	?GetTemp5TxLO1@CSP1401R1C@@QEAAHPEAN@Z
	?GetTemp6TxPA4@CSP1401R1C@@QEAAHPEAN@Z
	?GetTemp7TxPA3@CSP1401R1C@@QEAAHPEAN@Z
	?GetAD7680TxIF2@CSP1401R1C@@QEAAHAEAI@Z
	?GetAD7680RxComb@CSP1401R1C@@QEAAHAEAI@Z
	?GetAD7680RxIF1@CSP1401R1C@@QEAAHAEAI@Z
	?GetAD7680RxIF2@CSP1401R1C@@QEAAHAEAI@Z
	?SetMCP23S17Reg@CSP1401R1C@@QEAAHII@Z
	?GetMCP23S17Reg@CSP1401R1C@@QEAAHIAEAI@Z
	?InitMCP23S17@CSP1401R1C@@QEAAHXZ
	?GetMCP3208@CSP1401R1C@@QEAAHIAEAI@Z
EXPORTS
	; TxAttTable
	?Add@TxAttTableR1A@@UEAAXPEAUDataF@1@@Z
	?Map2Mem@TxAttTableR1A@@QEAAXXZ
	?Get@TxAttTableR1A@@QEAAX_KPEAM@Z
	?Get@TxAttTableR1A@@QEAAX_KHAEAN@Z
	?SaveAs@TxAttTableR1A@@QEAAXPEAD@Z
	?Add@TxAttOPTableR1C@@UEAAXPEAUDataF@1@@Z
	??0DataF@TxAttOPTableR1C@@QEAA@XZ
	?Map2Mem@TxAttOPTableR1C@@QEAAXXZ
	?Get@TxAttOPTableR1C@@QEAAM_KN@Z
	?Get@TxAttOPTableR1C@@QEAAX_KPEAUDataM@1@@Z
	?Get@TxAttOPTableR1C@@QEAAX_KPEAUDataF@1@@Z
	?SaveAs@TxAttOPTableR1C@@QEAAXPEAD@Z
	?Add@TxAttIOTableR1C@@UEAAXPEAUDataF@1@@Z
	??0DataF@TxAttIOTableR1C@@QEAA@XZ
	?Map2Mem@TxAttIOTableR1C@@QEAAXXZ
	?Get@TxAttIOTableR1C@@QEAAM_KN@Z
	?Get@TxAttIOTableR1C@@QEAAX_KPEAUDataM@1@@Z
	?Get@TxAttIOTableR1C@@QEAAX_KPEAUDataF@1@@Z
	?SaveAs@TxAttIOTableR1C@@QEAAXPEAD@Z
EXPORTS
	; TxFilterOffTable
	?Add@TxFilterOffTableR1C@@UEAAXPEAUDataF@1@@Z
	??0DataF@TxFilterOffTableR1C@@QEAA@XZ
	?Map2Mem@TxFilterOffTableR1C@@QEAAXXZ
	?Get@TxFilterOffTableR1C@@QEAAX_KPEAUDataM@1@@Z
	?Get@TxFilterOffTableR1C@@QEAAX_KPEAUDataF@1@@Z
	?SaveAs@TxFilterOffTableR1C@@QEAAXPEAD@Z
EXPORTS
	; TxFilterTable
	??0DataF@TxRFFrTable@@QEAA@XZ
	?Add@TxRFFr_0_TableR1C@@UEAAXPEAUDataF@TxRFFrTable@@@Z
	?Get@TxRFFr_0_TableR1C@@QEAAX_KPEAUDataF@TxRFFrTable@@@Z
	?SaveAs@TxRFFr_0_TableR1C@@QEAAXPEAD@Z
	?Add@TxRFFr_1_TableR1C@@UEAAXPEAUDataF@TxRFFrTable@@@Z
	?Get@TxRFFr_1_TableR1C@@QEAAX_KPEAUDataF@TxRFFrTable@@@Z
	?SaveAs@TxRFFr_1_TableR1C@@QEAAXPEAD@Z
	??0DataF@TxIFFrTableR1C@@QEAA@XZ
	?Add@TxIFFrTableR1C@@UEAAXPEAUDataF@1@@Z
	?Get@TxIFFrTableR1C@@QEAAXNPEAUDataF@1@@Z
	?SaveAs@TxIFFrTableR1C@@QEAAXPEAD@Z
	?Add@TxFilter_80M_TableR1C@@UEAAXPEAUDataF@1@@Z
	??0DataF@TxFilter_80M_TableR1C@@QEAA@XZ
	?_2Double@DataM@TxFilter_80M_TableR1C@@QEAAXPEAN0@Z
	?Map2Mem@TxFilter_80M_TableR1C@@QEAAXXZ
	?Get@TxFilter_80M_TableR1C@@QEAAX_KPEAUDataM@1@@Z
	?Get@TxFilter_80M_TableR1C@@QEAAX_KPEAUDataF@1@@Z 
	?SaveAs@TxFilter_80M_TableR1C@@QEAAXPEAD@Z
	?Add@TxFilter_160M_TableR1C@@UEAAXPEAUDataF@1@@Z
	??0DataF@TxFilter_160M_TableR1C@@QEAA@XZ
	?_2Double@DataM@TxFilter_160M_TableR1C@@QEAAXPEAN0@Z
	?Map2Mem@TxFilter_160M_TableR1C@@QEAAXXZ
	?Get@TxFilter_160M_TableR1C@@QEAAX_KPEAUDataM@1@@Z
	?Get@TxFilter_160M_TableR1C@@QEAAX_KPEAUDataF@1@@Z
	?SaveAs@TxFilter_160M_TableR1C@@QEAAXPEAD@Z
EXPORTS
	; TxLoLeakageTable
	?Add@TxLOLeakageTableR1A@@UEAAXPEAUDataF@1@@Z
	??0DataF@TxLOLeakageTableR1A@@QEAA@XZ
	?Map2Mem@TxLOLeakageTableR1A@@QEAAXXZ
	?Get@TxLOLeakageTableR1A@@QEAAX_KAEAF1@Z
	?SaveAs@TxLOLeakageTableR1A@@QEAAXPEAD@Z
	??0TxLOLeakageTableR1C@@QEAA@XZ
	??1TxLOLeakageTableR1C@@UEAA@XZ
	??0DataF@TxLOLeakageTableR1C@@QEAA@XZ
	?Add@TxLOLeakageTableR1C@@UEAAXPEAUDataF@1@@Z
	?Map2Mem@TxLOLeakageTableR1C@@QEAAXXZ
	?Get@TxLOLeakageTableR1C@@QEAAX_KAEAF1AEAM@Z
	?Get@TxLOLeakageTableR1C@@QEAAX_KPEAUDataM@1@@Z
	?Get@TxLOLeakageTableR1C@@QEAAX_KPEAUDataF@1@@Z
	?SaveAs@TxLOLeakageTableR1C@@QEAAXPEAD@Z
	?Map2Mem@X9119TableR1A@@QEAAXXZ
	?Add@X9119TableR1A@@QEAAXPEAUData@1@@Z
	?Get@X9119TableR1A@@QEAAXAEAF@Z
	?SaveAs@X9119TableR1A@@QEAAXPEAD@Z
	?Map2Mem@X9119TableR1C@@QEAAXXZ
	?Add@X9119TableR1C@@QEAAXPEAUDataF@1@@Z
	?Get@X9119TableR1C@@QEAAXAEAFAEAM@Z
	?Get@X9119TableR1C@@QEAAXAEAFPEAM@Z
	?SaveAs@X9119TableR1C@@QEAAXPEAD@Z
EXPORTS
	; TxPowerTable
	?Add@TxPowerTableR1A@@UEAAXPEAUDataF@1@@Z
	?Map2Mem@TxPowerTableR1A@@QEAAXXZ
	?GetPowerIndex@TxPowerTableR1A@@QEAAIN@Z
	?GuessBaseOP@TxPowerTableR1A@@SAXAEAH00@Z
	?GuessBaseIO@TxPowerTableR1A@@SAXAEAH00@Z
	?Split@TxPowerTableR1A@@SAXNPEAN0@Z
	?Split@TxPowerTableR1A@@SAXHAEAH00@Z
	?GetOP@TxPowerTableR1A@@QEAAX_KNAEANAEAH222@Z
	?GetIO@TxPowerTableR1A@@QEAAX_KNAEANAEAH222@Z
	?SaveAs@TxPowerTableR1A@@QEAAXPEAD@Z
	?Add@TxPowerOPTableR1C@@UEAAXPEAUDataF@1@@Z
	??0DataF@TxPowerOPTableR1C@@QEAA@XZ
	?Map2Mem@TxPowerOPTableR1C@@QEAAXXZ
	?GetConfigTable@TxPowerOPTableR1C@@SAXHUDataM@1@PEAU21@@Z
	?GuessBase@TxPowerOPTableR1C@@SAXAEAN0000@Z
	?GetBase@TxPowerOPTableR1C@@QEAAX_KPEAUDataM@1@@Z
	?GetBase@TxPowerOPTableR1C@@QEAAX_KPEAUDataF@1@@Z
	?Get@TxPowerOPTableR1C@@QEAAX_KNPEAUDataM@1@@Z
	?Get@TxPowerOPTableR1C@@QEAAX_KNPEAUDataF@1@@Z
	?SaveAs@TxPowerOPTableR1C@@QEAAXPEAD@Z
	?Add@TxPowerIOTableR1C@@UEAAXPEAUDataF@1@@Z
	??0DataF@TxPowerIOTableR1C@@QEAA@XZ
	?Map2Mem@TxPowerIOTableR1C@@QEAAXXZ
	?GetConfigTable@TxPowerIOTableR1C@@SAXHUDataM@1@PEAU21@@Z
	?GuessBase@TxPowerIOTableR1C@@SAXAEAN0000@Z
	?GetBase@TxPowerIOTableR1C@@QEAAX_KPEAUDataM@1@@Z
	?GetBase@TxPowerIOTableR1C@@QEAAX_KPEAUDataF@1@@Z
	?Get@TxPowerIOTableR1C@@QEAAX_KNPEAUDataM@1@@Z
	?Get@TxPowerIOTableR1C@@QEAAX_KNPEAUDataF@1@@Z
	?SaveAs@TxPowerIOTableR1C@@QEAAXPEAD@Z
EXPORTS
	; TxSidebandTable
	?Add@TxSidebandTableR1A@@UEAAXPEAUDataF@1@@Z
	??0DataF@TxSidebandTableR1A@@QEAA@XZ
	?Map2Mem@TxSidebandTableR1A@@QEAAXXZ
	?Get@TxSidebandTableR1A@@QEAAX_KAEANAEAG2@Z
	?SaveAs@TxSidebandTableR1A@@QEAAXPEAD@Z
	??0TxSidebandTableR1C@@QEAA@XZ
	??1TxSidebandTableR1C@@UEAA@XZ
	??0DataF@TxSidebandTableR1C@@QEAA@XZ
	?Add@TxSidebandTableR1C@@UEAAXPEAUDataF@1@@Z
	?Map2Mem@TxSidebandTableR1C@@QEAAXXZ
	?Get@TxSidebandTableR1C@@QEAAX_KAEANAEAG2AEAM@Z
	?Get@TxSidebandTableR1C@@QEAAX_KPEAUDataM@1@@Z
	?Get@TxSidebandTableR1C@@QEAAX_KPEAUDataF@1@@Z
	?SaveAs@TxSidebandTableR1C@@QEAAXPEAD@Z
