 libSP1401

 Timestamp is 59e71c45 (Wed Oct 18 17:17:57 2017)

 Preferred load address is 0000000180000000

 Start         Length     Name                   Class
 0001:00000000 000c1db4H .text                   CODE
 0001:000c1dc0 00001075H .text$00                CODE
 0001:000c2e40 00006ad0H .text$x                 CODE
 0001:000c9910 00001029H .text$yc                CODE
 0001:000ca940 0000105dH .text$yd                CODE
 0002:00000000 00000109H .CRT$XCA                DATA
 0002:00000110 00000109H .CRT$XCU                DATA
 0002:00000220 00000109H .CRT$XCZ                DATA
 0002:00000330 00000109H .CRT$XIA                DATA
 0002:00000440 00000109H .CRT$XIAA               DATA
 0002:00000550 00000109H .CRT$XIZ                DATA
 0002:00000660 00028cd8H .rdata                  DATA
 0002:00029338 00000148H .rdata$debug            DATA
 0002:00029480 00001786H .rdata$r                DATA
 0002:0002ac08 00000109H .rtc$IAA                DATA
 0002:0002ad18 00000109H .rtc$IZZ                DATA
 0002:0002ae28 00000109H .rtc$TAA                DATA
 0002:0002af38 00000109H .rtc$TZZ                DATA
 0002:0002b048 000092c7H .xdata                  DATA
 0002:00034310 000002abH .xdata$x                DATA
 0002:000345c0 000087a1H .edata                  DATA
 0003:00000000 00000a88H .data                   DATA
 0003:00000a90 000006e8H .bss                    DATA
 0004:00000000 0000528cH .pdata                  DATA
 0005:00000000 0000008cH .idata$2                DATA
 0005:0000008c 00000014H .idata$3                DATA
 0005:000000a0 000006a8H .idata$4                DATA
 0005:00000748 000006a8H .idata$5                DATA
 0005:00000df0 00000c72H .idata$6                DATA

  Address         Publics by Value              Rva+Base               Lib:Object

 0000:00000000       ___safe_se_handler_table   0000000000000000     <absolute>
 0000:00000000       ___safe_se_handler_count   0000000000000000     <absolute>
 0000:00000000       __ImageBase                0000000180000000     <linker-defined>
 0001:00003b10       ??0ArbReader@@QEAA@XZ      0000000180004b10 f   ArbReader.obj
 0001:00003b30       ??1ArbReader@@QEAA@XZ      0000000180004b30 f   ArbReader.obj
 0001:00003b60       ?Load@ArbReader@@QEAAHPEBD@Z 0000000180004b60 f   ArbReader.obj
 0001:00003c00       ?Load@ArbReader@@QEAAPEAU_iobuf@@PEAUParam_t@1@PEAV?$vector@V?$vector@UData_t@ArbReader@@V?$allocator@UData_t@ArbReader@@@std@@@std@@V?$allocator@V?$vector@UData_t@ArbReader@@V?$allocator@UData_t@ArbReader@@@std@@@std@@@2@@std@@@Z 0000000180004c00 f   ArbReader.obj
 0001:000042d0       ?IsLoaded@ArbReader@@QEAA_NXZ 00000001800052d0 f   ArbReader.obj
 0001:00004300       ?Show@ArbReader@@AEAAXPEBUFileHeader_t@1@@Z 0000000180005300 f   ArbReader.obj
 0001:00004320       ?Show@ArbReader@@AEAAXPEBUSegHeader_t@1@@Z 0000000180005320 f   ArbReader.obj
 0001:00004340       ?Show@ArbReader@@AEAAXAEAV?$list@UMarker_t@ArbReader@@V?$allocator@UMarker_t@ArbReader@@@std@@@std@@@Z 0000000180005340 f   ArbReader.obj
 0001:00004360       ?Show@ArbReader@@AEAAXPEBUData_t@1@@Z 0000000180005360 f   ArbReader.obj
 0001:000043b0       ?GetFileInfo@ArbReader@@QEAAHPEAD@Z 00000001800053b0 f   ArbReader.obj
 0001:000053e0       ??1?$_Iterator@$00@?$list@USegHeader_t@ArbReader@@V?$allocator@USegHeader_t@ArbReader@@@std@@@std@@QEAA@XZ 00000001800063e0 f i ArbReader.obj
 0001:00005400       ??4?$_Iterator@$00@?$list@USegHeader_t@ArbReader@@V?$allocator@USegHeader_t@ArbReader@@@std@@@std@@QEAAAEAV012@AEBV012@@Z 0000000180006400 f i ArbReader.obj
 0001:00005430       ??1?$_Const_iterator@$00@?$list@USegHeader_t@ArbReader@@V?$allocator@USegHeader_t@ArbReader@@@std@@@std@@QEAA@XZ 0000000180006430 f i ArbReader.obj
 0001:00005450       ??4?$_Const_iterator@$00@?$list@USegHeader_t@ArbReader@@V?$allocator@USegHeader_t@ArbReader@@@std@@@std@@QEAAAEAV012@AEBV012@@Z 0000000180006450 f i ArbReader.obj
 0001:000054a0       ??1?$_Bidit@USegHeader_t@ArbReader@@_JPEBU12@AEBU12@@std@@QEAA@XZ 00000001800064a0 f i ArbReader.obj
 0001:000054c0       ??4?$_Bidit@USegHeader_t@ArbReader@@_JPEBU12@AEBU12@@std@@QEAAAEAU01@AEBU01@@Z 00000001800064c0 f i ArbReader.obj
 0001:000054f0       ??1?$_Iterator_with_base@Ubidirectional_iterator_tag@std@@USegHeader_t@ArbReader@@_JPEBU34@AEBU34@V_Iterator_base@2@@std@@QEAA@XZ 00000001800064f0 f i ArbReader.obj
 0001:00005510       ??1_Iterator_base@std@@QEAA@XZ 0000000180006510 f i ArbReader.obj
 0001:00005560       ?_Orphan_me@_Iterator_base@std@@QEAAXXZ 0000000180006560 f i ArbReader.obj
 0001:00005630       ??4?$_Iterator_with_base@Ubidirectional_iterator_tag@std@@USegHeader_t@ArbReader@@_JPEBU34@AEBU34@V_Iterator_base@2@@std@@QEAAAEAU01@AEBU01@@Z 0000000180006630 f i ArbReader.obj
 0001:00005660       ??4_Iterator_base@std@@QEAAAEAV01@AEBV01@@Z 0000000180006660 f i ArbReader.obj
 0001:000056f0       ?_Adopt@_Iterator_base@std@@QEAAXPEBV_Container_base_secure@2@@Z 00000001800066f0 f i ArbReader.obj
 0001:000057b0       ??1?$_Iterator@$00@?$list@V?$list@UMarker_t@ArbReader@@V?$allocator@UMarker_t@ArbReader@@@std@@@std@@V?$allocator@V?$list@UMarker_t@ArbReader@@V?$allocator@UMarker_t@ArbReader@@@std@@@std@@@2@@std@@QEAA@XZ 00000001800067b0 f i ArbReader.obj
 0001:000057d0       ??0Param_t@ArbReader@@QEAA@XZ 00000001800067d0 f i ArbReader.obj
 0001:00005840       ??1Param_t@ArbReader@@QEAA@XZ 0000000180006840 f i ArbReader.obj
 0001:000058a0       ??4?$_Iterator@$00@?$list@V?$list@UMarker_t@ArbReader@@V?$allocator@UMarker_t@ArbReader@@@std@@@std@@V?$allocator@V?$list@UMarker_t@ArbReader@@V?$allocator@UMarker_t@ArbReader@@@std@@@std@@@2@@std@@QEAAAEAV012@AEBV012@@Z 00000001800068a0 f i ArbReader.obj
 0001:000058d0       ??1?$_Const_iterator@$00@?$list@UMarker_t@ArbReader@@V?$allocator@UMarker_t@ArbReader@@@std@@@std@@QEAA@XZ 00000001800068d0 f i ArbReader.obj
 0001:000058f0       ??1?$_Iterator@$00@?$list@UMarker_t@ArbReader@@V?$allocator@UMarker_t@ArbReader@@@std@@@std@@QEAA@XZ 00000001800068f0 f i ArbReader.obj
 0001:00005910       ??4?$_Const_iterator@$00@?$list@UMarker_t@ArbReader@@V?$allocator@UMarker_t@ArbReader@@@std@@@std@@QEAAAEAV012@AEBV012@@Z 0000000180006910 f i ArbReader.obj
 0001:00005960       ??1?$_Const_iterator@$00@?$list@V?$list@UMarker_t@ArbReader@@V?$allocator@UMarker_t@ArbReader@@@std@@@std@@V?$allocator@V?$list@UMarker_t@ArbReader@@V?$allocator@UMarker_t@ArbReader@@@std@@@std@@@2@@std@@QEAA@XZ 0000000180006960 f i ArbReader.obj
 0001:00005980       ??4?$_Const_iterator@$00@?$list@V?$list@UMarker_t@ArbReader@@V?$allocator@UMarker_t@ArbReader@@@std@@@std@@V?$allocator@V?$list@UMarker_t@ArbReader@@V?$allocator@UMarker_t@ArbReader@@@std@@@std@@@2@@std@@QEAAAEAV012@AEBV012@@Z 0000000180006980 f i ArbReader.obj
 0001:000059d0       ??1?$_Bidit@UMarker_t@ArbReader@@_JPEBU12@AEBU12@@std@@QEAA@XZ 00000001800069d0 f i ArbReader.obj
 0001:000059f0       ??4?$_Bidit@UMarker_t@ArbReader@@_JPEBU12@AEBU12@@std@@QEAAAEAU01@AEBU01@@Z 00000001800069f0 f i ArbReader.obj
 0001:00005a20       ??1?$_Bidit@V?$list@UMarker_t@ArbReader@@V?$allocator@UMarker_t@ArbReader@@@std@@@std@@_JPEBV12@AEBV12@@std@@QEAA@XZ 0000000180006a20 f i ArbReader.obj
 0001:00005a40       ??4?$_Bidit@V?$list@UMarker_t@ArbReader@@V?$allocator@UMarker_t@ArbReader@@@std@@@std@@_JPEBV12@AEBV12@@std@@QEAAAEAU01@AEBU01@@Z 0000000180006a40 f i ArbReader.obj
 0001:00005a70       ??1?$_Iterator_with_base@Ubidirectional_iterator_tag@std@@UMarker_t@ArbReader@@_JPEBU34@AEBU34@V_Iterator_base@2@@std@@QEAA@XZ 0000000180006a70 f i ArbReader.obj
 0001:00005a90       ??4?$_Iterator_with_base@Ubidirectional_iterator_tag@std@@UMarker_t@ArbReader@@_JPEBU34@AEBU34@V_Iterator_base@2@@std@@QEAAAEAU01@AEBU01@@Z 0000000180006a90 f i ArbReader.obj
 0001:00005ac0       ??1?$_Iterator_with_base@Ubidirectional_iterator_tag@std@@V?$list@UMarker_t@ArbReader@@V?$allocator@UMarker_t@ArbReader@@@std@@@2@_JPEBV32@AEBV32@V_Iterator_base@2@@std@@QEAA@XZ 0000000180006ac0 f i ArbReader.obj
 0001:00005ae0       ??4?$_Iterator_with_base@Ubidirectional_iterator_tag@std@@V?$list@UMarker_t@ArbReader@@V?$allocator@UMarker_t@ArbReader@@@std@@@2@_JPEBV32@AEBV32@V_Iterator_base@2@@std@@QEAAAEAU01@AEBU01@@Z 0000000180006ae0 f i ArbReader.obj
 0001:00005b10       ??0?$list@USegHeader_t@ArbReader@@V?$allocator@USegHeader_t@ArbReader@@@std@@@std@@QEAA@XZ 0000000180006b10 f i ArbReader.obj
 0001:00005b90       ??1?$list@USegHeader_t@ArbReader@@V?$allocator@USegHeader_t@ArbReader@@@std@@@std@@QEAA@XZ 0000000180006b90 f i ArbReader.obj
 0001:00005bd0       ??4?$list@USegHeader_t@ArbReader@@V?$allocator@USegHeader_t@ArbReader@@@std@@@std@@QEAAAEAV01@AEBV01@@Z 0000000180006bd0 f i ArbReader.obj
 0001:00005ca0       ?begin@?$list@USegHeader_t@ArbReader@@V?$allocator@USegHeader_t@ArbReader@@@std@@@std@@QEAA?AV?$_Iterator@$00@12@XZ 0000000180006ca0 f i ArbReader.obj
 0001:00005d00       ?end@?$list@USegHeader_t@ArbReader@@V?$allocator@USegHeader_t@ArbReader@@@std@@@std@@QEAA?AV?$_Iterator@$00@12@XZ 0000000180006d00 f i ArbReader.obj
 0001:00005d60       ?push_back@?$list@USegHeader_t@ArbReader@@V?$allocator@USegHeader_t@ArbReader@@@std@@@std@@QEAAXAEBUSegHeader_t@ArbReader@@@Z 0000000180006d60 f i ArbReader.obj
 0001:00005e10       ?clear@?$list@USegHeader_t@ArbReader@@V?$allocator@USegHeader_t@ArbReader@@@std@@@std@@QEAAXXZ 0000000180006e10 f i ArbReader.obj
 0001:00005f20       ??0?$list@UArbSeg_t@@V?$allocator@UArbSeg_t@@@std@@@std@@QEAA@XZ 0000000180006f20 f i ArbReader.obj
 0001:00005fa0       ??1?$list@UArbSeg_t@@V?$allocator@UArbSeg_t@@@std@@@std@@QEAA@XZ 0000000180006fa0 f i ArbReader.obj
 0001:00005fe0       ??4?$list@UArbSeg_t@@V?$allocator@UArbSeg_t@@@std@@@std@@QEAAAEAV01@AEBV01@@Z 0000000180006fe0 f i ArbReader.obj
 0001:000060b0       ?push_back@?$list@UArbSeg_t@@V?$allocator@UArbSeg_t@@@std@@@std@@QEAAXAEBUArbSeg_t@@@Z 00000001800070b0 f i ArbReader.obj
 0001:00006160       ?clear@?$list@UArbSeg_t@@V?$allocator@UArbSeg_t@@@std@@@std@@QEAAXXZ 0000000180007160 f i ArbReader.obj
 0001:00006270       ??0?$list@V?$list@UMarker_t@ArbReader@@V?$allocator@UMarker_t@ArbReader@@@std@@@std@@V?$allocator@V?$list@UMarker_t@ArbReader@@V?$allocator@UMarker_t@ArbReader@@@std@@@std@@@2@@std@@QEAA@XZ 0000000180007270 f i ArbReader.obj
 0001:000062f0       ??1?$list@V?$list@UMarker_t@ArbReader@@V?$allocator@UMarker_t@ArbReader@@@std@@@std@@V?$allocator@V?$list@UMarker_t@ArbReader@@V?$allocator@UMarker_t@ArbReader@@@std@@@std@@@2@@std@@QEAA@XZ 00000001800072f0 f i ArbReader.obj
 0001:00006330       ??4?$list@V?$list@UMarker_t@ArbReader@@V?$allocator@UMarker_t@ArbReader@@@std@@@std@@V?$allocator@V?$list@UMarker_t@ArbReader@@V?$allocator@UMarker_t@ArbReader@@@std@@@std@@@2@@std@@QEAAAEAV01@AEBV01@@Z 0000000180007330 f i ArbReader.obj
 0001:00006400       ?begin@?$list@V?$list@UMarker_t@ArbReader@@V?$allocator@UMarker_t@ArbReader@@@std@@@std@@V?$allocator@V?$list@UMarker_t@ArbReader@@V?$allocator@UMarker_t@ArbReader@@@std@@@std@@@2@@std@@QEAA?AV?$_Iterator@$00@12@XZ 0000000180007400 f i ArbReader.obj
 0001:00006460       ?push_back@?$list@V?$list@UMarker_t@ArbReader@@V?$allocator@UMarker_t@ArbReader@@@std@@@std@@V?$allocator@V?$list@UMarker_t@ArbReader@@V?$allocator@UMarker_t@ArbReader@@@std@@@std@@@2@@std@@QEAAXAEBV?$list@UMarker_t@ArbReader@@V?$allocator@UMarker_t@ArbReader@@@std@@@2@@Z 0000000180007460 f i ArbReader.obj
 0001:00006510       ?clear@?$list@V?$list@UMarker_t@ArbReader@@V?$allocator@UMarker_t@ArbReader@@@std@@@std@@V?$allocator@V?$list@UMarker_t@ArbReader@@V?$allocator@UMarker_t@ArbReader@@@std@@@std@@@2@@std@@QEAAXXZ 0000000180007510 f i ArbReader.obj
 0001:00006620       ??0?$_Iterator@$00@?$list@USegHeader_t@ArbReader@@V?$allocator@USegHeader_t@ArbReader@@@std@@@std@@QEAA@XZ 0000000180007620 f i ArbReader.obj
 0001:00006650       ??C?$_Iterator@$00@?$list@USegHeader_t@ArbReader@@V?$allocator@USegHeader_t@ArbReader@@@std@@@std@@QEBAPEAUSegHeader_t@ArbReader@@XZ 0000000180007650 f i ArbReader.obj
 0001:00006670       ??E?$_Iterator@$00@?$list@USegHeader_t@ArbReader@@V?$allocator@USegHeader_t@ArbReader@@@std@@@std@@QEAA?AV012@H@Z 0000000180007670 f i ArbReader.obj
 0001:00006700       ??9?$_Const_iterator@$00@?$list@USegHeader_t@ArbReader@@V?$allocator@USegHeader_t@ArbReader@@@std@@@std@@QEBA_NAEBV012@@Z 0000000180007700 f i ArbReader.obj
 0001:00006750       ??0?$list@UMarker_t@ArbReader@@V?$allocator@UMarker_t@ArbReader@@@std@@@std@@QEAA@XZ 0000000180007750 f i ArbReader.obj
 0001:000067d0       ??1?$list@UMarker_t@ArbReader@@V?$allocator@UMarker_t@ArbReader@@@std@@@std@@QEAA@XZ 00000001800077d0 f i ArbReader.obj
 0001:00006810       ?begin@?$list@UMarker_t@ArbReader@@V?$allocator@UMarker_t@ArbReader@@@std@@@std@@QEAA?AV?$_Iterator@$00@12@XZ 0000000180007810 f i ArbReader.obj
 0001:00006870       ?end@?$list@UMarker_t@ArbReader@@V?$allocator@UMarker_t@ArbReader@@@std@@@std@@QEAA?AV?$_Iterator@$00@12@XZ 0000000180007870 f i ArbReader.obj
 0001:000068d0       ?push_back@?$list@UMarker_t@ArbReader@@V?$allocator@UMarker_t@ArbReader@@@std@@@std@@QEAAXAEBUMarker_t@ArbReader@@@Z 00000001800078d0 f i ArbReader.obj
 0001:00006980       ?at@?$vector@V?$vector@UData_t@ArbReader@@V?$allocator@UData_t@ArbReader@@@std@@@std@@V?$allocator@V?$vector@UData_t@ArbReader@@V?$allocator@UData_t@ArbReader@@@std@@@std@@@2@@std@@QEAAAEAV?$vector@UData_t@ArbReader@@V?$allocator@UData_t@ArbReader@@@std@@@2@_K@Z 0000000180007980 f i ArbReader.obj
 0001:00006a60       ?push_back@?$vector@UData_t@ArbReader@@V?$allocator@UData_t@ArbReader@@@std@@@std@@QEAAXAEBUData_t@ArbReader@@@Z 0000000180007a60 f i ArbReader.obj
 0001:00006bd0       ??0?$_Iterator@$00@?$list@V?$list@UMarker_t@ArbReader@@V?$allocator@UMarker_t@ArbReader@@@std@@@std@@V?$allocator@V?$list@UMarker_t@ArbReader@@V?$allocator@UMarker_t@ArbReader@@@std@@@std@@@2@@std@@QEAA@XZ 0000000180007bd0 f i ArbReader.obj
 0001:00006c00       ??C?$_Iterator@$00@?$list@V?$list@UMarker_t@ArbReader@@V?$allocator@UMarker_t@ArbReader@@@std@@@std@@V?$allocator@V?$list@UMarker_t@ArbReader@@V?$allocator@UMarker_t@ArbReader@@@std@@@std@@@2@@std@@QEBAPEAV?$list@UMarker_t@ArbReader@@V?$allocator@UMarker_t@ArbReader@@@std@@@2@XZ 0000000180007c00 f i ArbReader.obj
 0001:00006c20       ??E?$_Iterator@$00@?$list@V?$list@UMarker_t@ArbReader@@V?$allocator@UMarker_t@ArbReader@@@std@@@std@@V?$allocator@V?$list@UMarker_t@ArbReader@@V?$allocator@UMarker_t@ArbReader@@@std@@@std@@@2@@std@@QEAA?AV012@H@Z 0000000180007c20 f i ArbReader.obj
 0001:00006cb0       ??0?$_Const_iterator@$00@?$list@UMarker_t@ArbReader@@V?$allocator@UMarker_t@ArbReader@@@std@@@std@@QEAA@XZ 0000000180007cb0 f i ArbReader.obj
 0001:00006cf0       ??C?$_Const_iterator@$00@?$list@UMarker_t@ArbReader@@V?$allocator@UMarker_t@ArbReader@@@std@@@std@@QEBAPEBUMarker_t@ArbReader@@XZ 0000000180007cf0 f i ArbReader.obj
 0001:00006d10       ??E?$_Const_iterator@$00@?$list@UMarker_t@ArbReader@@V?$allocator@UMarker_t@ArbReader@@@std@@@std@@QEAA?AV012@H@Z 0000000180007d10 f i ArbReader.obj
 0001:00006da0       ??9?$_Const_iterator@$00@?$list@UMarker_t@ArbReader@@V?$allocator@UMarker_t@ArbReader@@@std@@@std@@QEBA_NAEBV012@@Z 0000000180007da0 f i ArbReader.obj
 0001:00006df0       ??1?$_List_val@USegHeader_t@ArbReader@@V?$allocator@USegHeader_t@ArbReader@@@std@@@std@@QEAA@XZ 0000000180007df0 f i ArbReader.obj
 0001:00006e10       ??0?$_Const_iterator@$00@?$list@USegHeader_t@ArbReader@@V?$allocator@USegHeader_t@ArbReader@@@std@@@std@@QEAA@AEBV012@@Z 0000000180007e10 f i ArbReader.obj
 0001:00006e60       ??1?$_List_val@UArbSeg_t@@V?$allocator@UArbSeg_t@@@std@@@std@@QEAA@XZ 0000000180007e60 f i ArbReader.obj
 0001:00006e80       ??1?$_Const_iterator@$00@?$list@UArbSeg_t@@V?$allocator@UArbSeg_t@@@std@@@std@@QEAA@XZ 0000000180007e80 f i ArbReader.obj
 0001:00006ea0       ??1?$_Iterator@$00@?$list@UArbSeg_t@@V?$allocator@UArbSeg_t@@@std@@@std@@QEAA@XZ 0000000180007ea0 f i ArbReader.obj
 0001:00006ec0       ??0?$_Const_iterator@$00@?$list@UArbSeg_t@@V?$allocator@UArbSeg_t@@@std@@@std@@QEAA@AEBV012@@Z 0000000180007ec0 f i ArbReader.obj
 0001:00006f10       ??1?$_List_val@V?$list@UMarker_t@ArbReader@@V?$allocator@UMarker_t@ArbReader@@@std@@@std@@V?$allocator@V?$list@UMarker_t@ArbReader@@V?$allocator@UMarker_t@ArbReader@@@std@@@std@@@2@@std@@QEAA@XZ 0000000180007f10 f i ArbReader.obj
 0001:00006f30       ??0?$_Const_iterator@$00@?$list@V?$list@UMarker_t@ArbReader@@V?$allocator@UMarker_t@ArbReader@@@std@@@std@@V?$allocator@V?$list@UMarker_t@ArbReader@@V?$allocator@UMarker_t@ArbReader@@@std@@@std@@@2@@std@@QEAA@AEBV012@@Z 0000000180007f30 f i ArbReader.obj
 0001:00006f80       ??0?$_Iterator@$00@?$list@USegHeader_t@ArbReader@@V?$allocator@USegHeader_t@ArbReader@@@std@@@std@@QEAA@AEBV012@@Z 0000000180007f80 f i ArbReader.obj
 0001:00006fb0       ??1?$_List_val@UMarker_t@ArbReader@@V?$allocator@UMarker_t@ArbReader@@@std@@@std@@QEAA@XZ 0000000180007fb0 f i ArbReader.obj
 0001:00006fd0       ??0?$_Const_iterator@$00@?$list@UMarker_t@ArbReader@@V?$allocator@UMarker_t@ArbReader@@@std@@@std@@QEAA@AEBV012@@Z 0000000180007fd0 f i ArbReader.obj
 0001:00007020       ??1?$_Vector_iterator@V?$vector@UData_t@ArbReader@@V?$allocator@UData_t@ArbReader@@@std@@@std@@V?$allocator@V?$vector@UData_t@ArbReader@@V?$allocator@UData_t@ArbReader@@@std@@@std@@@2@@std@@QEAA@XZ 0000000180008020 f i ArbReader.obj
 0001:00007040       ??1?$_Vector_iterator@UData_t@ArbReader@@V?$allocator@UData_t@ArbReader@@@std@@@std@@QEAA@XZ 0000000180008040 f i ArbReader.obj
 0001:00007060       ??0?$_Vector_const_iterator@UData_t@ArbReader@@V?$allocator@UData_t@ArbReader@@@std@@@std@@QEAA@AEBV01@@Z 0000000180008060 f i ArbReader.obj
 0001:000070b0       ??1?$_Vector_const_iterator@UData_t@ArbReader@@V?$allocator@UData_t@ArbReader@@@std@@@std@@QEAA@XZ 00000001800080b0 f i ArbReader.obj
 0001:000070d0       ??0?$_Iterator@$00@?$list@V?$list@UMarker_t@ArbReader@@V?$allocator@UMarker_t@ArbReader@@@std@@@std@@V?$allocator@V?$list@UMarker_t@ArbReader@@V?$allocator@UMarker_t@ArbReader@@@std@@@std@@@2@@std@@QEAA@AEBV012@@Z 00000001800080d0 f i ArbReader.obj
 0001:00007100       ??0?$_Bidit@UMarker_t@ArbReader@@_JPEBU12@AEBU12@@std@@QEAA@XZ 0000000180008100 f i ArbReader.obj
 0001:00007130       ??1?$_List_ptr@USegHeader_t@ArbReader@@V?$allocator@USegHeader_t@ArbReader@@@std@@@std@@QEAA@XZ 0000000180008130 f i ArbReader.obj
 0001:00007150       ??0?$_Bidit@USegHeader_t@ArbReader@@_JPEBU12@AEBU12@@std@@QEAA@AEBU01@@Z 0000000180008150 f i ArbReader.obj
 0001:00007180       ??1?$_List_ptr@UArbSeg_t@@V?$allocator@UArbSeg_t@@@std@@@std@@QEAA@XZ 0000000180008180 f i ArbReader.obj
 0001:000071a0       ??1?$_Bidit@UArbSeg_t@@_JPEBU1@AEBU1@@std@@QEAA@XZ 00000001800081a0 f i ArbReader.obj
 0001:000071c0       ??0?$_Bidit@UArbSeg_t@@_JPEBU1@AEBU1@@std@@QEAA@AEBU01@@Z 00000001800081c0 f i ArbReader.obj
 0001:000071f0       ??1?$_List_ptr@V?$list@UMarker_t@ArbReader@@V?$allocator@UMarker_t@ArbReader@@@std@@@std@@V?$allocator@V?$list@UMarker_t@ArbReader@@V?$allocator@UMarker_t@ArbReader@@@std@@@std@@@2@@std@@QEAA@XZ 00000001800081f0 f i ArbReader.obj
 0001:00007210       ??0?$_Bidit@V?$list@UMarker_t@ArbReader@@V?$allocator@UMarker_t@ArbReader@@@std@@@std@@_JPEBV12@AEBV12@@std@@QEAA@AEBU01@@Z 0000000180008210 f i ArbReader.obj
 0001:00007240       ??1?$_List_ptr@UMarker_t@ArbReader@@V?$allocator@UMarker_t@ArbReader@@@std@@@std@@QEAA@XZ 0000000180008240 f i ArbReader.obj
 0001:00007260       ??0?$_Bidit@UMarker_t@ArbReader@@_JPEBU12@AEBU12@@std@@QEAA@AEBU01@@Z 0000000180008260 f i ArbReader.obj
 0001:00007290       ??1?$_Vector_const_iterator@V?$vector@UData_t@ArbReader@@V?$allocator@UData_t@ArbReader@@@std@@@std@@V?$allocator@V?$vector@UData_t@ArbReader@@V?$allocator@UData_t@ArbReader@@@std@@@std@@@2@@std@@QEAA@XZ 0000000180008290 f i ArbReader.obj
 0001:000072b0       ??0?$_Ranit@UData_t@ArbReader@@_JPEBU12@AEBU12@@std@@QEAA@AEBU01@@Z 00000001800082b0 f i ArbReader.obj
 0001:000072e0       ??1?$_Ranit@UData_t@ArbReader@@_JPEBU12@AEBU12@@std@@QEAA@XZ 00000001800082e0 f i ArbReader.obj
 0001:00007300       ??0?$_Iterator_with_base@Ubidirectional_iterator_tag@std@@UMarker_t@ArbReader@@_JPEBU34@AEBU34@V_Iterator_base@2@@std@@QEAA@XZ 0000000180008300 f i ArbReader.obj
 0001:00007330       ??0_Iterator_base@std@@QEAA@XZ 0000000180008330 f i ArbReader.obj
 0001:00007360       ??1?$_List_nod@USegHeader_t@ArbReader@@V?$allocator@USegHeader_t@ArbReader@@@std@@@std@@QEAA@XZ 0000000180008360 f i ArbReader.obj
 0001:00007380       ??0?$_Iterator_with_base@Ubidirectional_iterator_tag@std@@USegHeader_t@ArbReader@@_JPEBU34@AEBU34@V_Iterator_base@2@@std@@QEAA@AEBU01@@Z 0000000180008380 f i ArbReader.obj
 0001:000073b0       ??0_Iterator_base@std@@QEAA@AEBV01@@Z 00000001800083b0 f i ArbReader.obj
 0001:00007400       ??1?$_List_nod@UArbSeg_t@@V?$allocator@UArbSeg_t@@@std@@@std@@QEAA@XZ 0000000180008400 f i ArbReader.obj
 0001:00007420       ??1?$_Iterator_with_base@Ubidirectional_iterator_tag@std@@UArbSeg_t@@_JPEBU3@AEBU3@V_Iterator_base@2@@std@@QEAA@XZ 0000000180008420 f i ArbReader.obj
 0001:00007440       ??0?$_Iterator_with_base@Ubidirectional_iterator_tag@std@@UArbSeg_t@@_JPEBU3@AEBU3@V_Iterator_base@2@@std@@QEAA@AEBU01@@Z 0000000180008440 f i ArbReader.obj
 0001:00007470       ??1?$_List_nod@V?$list@UMarker_t@ArbReader@@V?$allocator@UMarker_t@ArbReader@@@std@@@std@@V?$allocator@V?$list@UMarker_t@ArbReader@@V?$allocator@UMarker_t@ArbReader@@@std@@@std@@@2@@std@@QEAA@XZ 0000000180008470 f i ArbReader.obj
 0001:00007490       ??0?$_Iterator_with_base@Ubidirectional_iterator_tag@std@@V?$list@UMarker_t@ArbReader@@V?$allocator@UMarker_t@ArbReader@@@std@@@2@_JPEBV32@AEBV32@V_Iterator_base@2@@std@@QEAA@AEBU01@@Z 0000000180008490 f i ArbReader.obj
 0001:000074c0       ??1?$_List_nod@UMarker_t@ArbReader@@V?$allocator@UMarker_t@ArbReader@@@std@@@std@@QEAA@XZ 00000001800084c0 f i ArbReader.obj
 0001:000074e0       ??0?$_Iterator_with_base@Ubidirectional_iterator_tag@std@@UMarker_t@ArbReader@@_JPEBU34@AEBU34@V_Iterator_base@2@@std@@QEAA@AEBU01@@Z 00000001800084e0 f i ArbReader.obj
 0001:00007510       ??1?$_Ranit@V?$vector@UData_t@ArbReader@@V?$allocator@UData_t@ArbReader@@@std@@@std@@_JPEBV12@AEBV12@@std@@QEAA@XZ 0000000180008510 f i ArbReader.obj
 0001:00007530       ??0?$_Iterator_with_base@Urandom_access_iterator_tag@std@@UData_t@ArbReader@@_JPEBU34@AEBU34@V_Iterator_base@2@@std@@QEAA@AEBU01@@Z 0000000180008530 f i ArbReader.obj
 0001:00007560       ??1?$_Iterator_with_base@Urandom_access_iterator_tag@std@@UData_t@ArbReader@@_JPEBU34@AEBU34@V_Iterator_base@2@@std@@QEAA@XZ 0000000180008560 f i ArbReader.obj
 0001:00007580       ??1?$_Iterator_with_base@Urandom_access_iterator_tag@std@@V?$vector@UData_t@ArbReader@@V?$allocator@UData_t@ArbReader@@@std@@@2@_JPEBV32@AEBV32@V_Iterator_base@2@@std@@QEAA@XZ 0000000180008580 f i ArbReader.obj
 0001:000075a0       ?_Nextnode@?$list@USegHeader_t@ArbReader@@V?$allocator@USegHeader_t@ArbReader@@@std@@@std@@KAAEAPEAU_Node@?$_List_nod@USegHeader_t@ArbReader@@V?$allocator@USegHeader_t@ArbReader@@@std@@@2@PEAU342@@Z 00000001800085a0 f i ArbReader.obj
 0001:000075b0       ?_Prevnode@?$list@USegHeader_t@ArbReader@@V?$allocator@USegHeader_t@ArbReader@@@std@@@std@@KAAEAPEAU_Node@?$_List_nod@USegHeader_t@ArbReader@@V?$allocator@USegHeader_t@ArbReader@@@std@@@2@PEAU342@@Z 00000001800085b0 f i ArbReader.obj
 0001:000075d0       ?begin@?$list@USegHeader_t@ArbReader@@V?$allocator@USegHeader_t@ArbReader@@@std@@@std@@QEBA?AV?$_Const_iterator@$00@12@XZ 00000001800085d0 f i ArbReader.obj
 0001:00007630       ?end@?$list@USegHeader_t@ArbReader@@V?$allocator@USegHeader_t@ArbReader@@@std@@@std@@QEBA?AV?$_Const_iterator@$00@12@XZ 0000000180008630 f i ArbReader.obj
 0001:00007690       ?_Insert@?$list@USegHeader_t@ArbReader@@V?$allocator@USegHeader_t@ArbReader@@@std@@@std@@QEAAXV?$_Const_iterator@$00@12@AEBUSegHeader_t@ArbReader@@@Z 0000000180008690 f i ArbReader.obj
 0001:00007790       ?_Buynode@?$list@USegHeader_t@ArbReader@@V?$allocator@USegHeader_t@ArbReader@@@std@@@std@@IEAAPEAU_Node@?$_List_nod@USegHeader_t@ArbReader@@V?$allocator@USegHeader_t@ArbReader@@@std@@@2@XZ 0000000180008790 f i ArbReader.obj
 0001:00007850       ?_Tidy@?$list@USegHeader_t@ArbReader@@V?$allocator@USegHeader_t@ArbReader@@@std@@@std@@IEAAXXZ 0000000180008850 f i ArbReader.obj
 0001:000078f0       ?_Orphan_ptr@?$list@USegHeader_t@ArbReader@@V?$allocator@USegHeader_t@ArbReader@@@std@@@std@@IEBAXAEAV12@PEAU_Node@?$_List_nod@USegHeader_t@ArbReader@@V?$allocator@USegHeader_t@ArbReader@@@std@@@2@@Z 00000001800088f0 f i ArbReader.obj
 0001:000079d0       ??0?$_List_val@USegHeader_t@ArbReader@@V?$allocator@USegHeader_t@ArbReader@@@std@@@std@@QEAA@V?$allocator@USegHeader_t@ArbReader@@@1@@Z 00000001800089d0 f i ArbReader.obj
 0001:00007a40       ??1?$_Container_base_aux_alloc_empty@V?$allocator@USegHeader_t@ArbReader@@@std@@@std@@IEAA@XZ 0000000180008a40 f i ArbReader.obj
 0001:00007a60       ??0?$allocator@USegHeader_t@ArbReader@@@std@@QEAA@XZ 0000000180008a60 f i ArbReader.obj
 0001:00007a70       ?deallocate@?$allocator@U_Node@?$_List_nod@USegHeader_t@ArbReader@@V?$allocator@USegHeader_t@ArbReader@@@std@@@std@@@std@@QEAAXPEAU_Node@?$_List_nod@USegHeader_t@ArbReader@@V?$allocator@USegHeader_t@ArbReader@@@std@@@2@_K@Z 0000000180008a70 f i ArbReader.obj
 0001:00007aa0       ?destroy@?$allocator@U_Node@?$_List_nod@USegHeader_t@ArbReader@@V?$allocator@USegHeader_t@ArbReader@@@std@@@std@@@std@@QEAAXPEAU_Node@?$_List_nod@USegHeader_t@ArbReader@@V?$allocator@USegHeader_t@ArbReader@@@std@@@2@@Z 0000000180008aa0 f i ArbReader.obj
 0001:00007ad0       ?_Nextnode@?$list@UArbSeg_t@@V?$allocator@UArbSeg_t@@@std@@@std@@KAAEAPEAU_Node@?$_List_nod@UArbSeg_t@@V?$allocator@UArbSeg_t@@@std@@@2@PEAU342@@Z 0000000180008ad0 f i ArbReader.obj
 0001:00007ae0       ?_Prevnode@?$list@UArbSeg_t@@V?$allocator@UArbSeg_t@@@std@@@std@@KAAEAPEAU_Node@?$_List_nod@UArbSeg_t@@V?$allocator@UArbSeg_t@@@std@@@2@PEAU342@@Z 0000000180008ae0 f i ArbReader.obj
 0001:00007b00       ?begin@?$list@UArbSeg_t@@V?$allocator@UArbSeg_t@@@std@@@std@@QEBA?AV?$_Const_iterator@$00@12@XZ 0000000180008b00 f i ArbReader.obj
 0001:00007b60       ?end@?$list@UArbSeg_t@@V?$allocator@UArbSeg_t@@@std@@@std@@QEAA?AV?$_Iterator@$00@12@XZ 0000000180008b60 f i ArbReader.obj
 0001:00007bc0       ?end@?$list@UArbSeg_t@@V?$allocator@UArbSeg_t@@@std@@@std@@QEBA?AV?$_Const_iterator@$00@12@XZ 0000000180008bc0 f i ArbReader.obj
 0001:00007c20       ?_Insert@?$list@UArbSeg_t@@V?$allocator@UArbSeg_t@@@std@@@std@@QEAAXV?$_Const_iterator@$00@12@AEBUArbSeg_t@@@Z 0000000180008c20 f i ArbReader.obj
 0001:00007d20       ?_Buynode@?$list@UArbSeg_t@@V?$allocator@UArbSeg_t@@@std@@@std@@IEAAPEAU_Node@?$_List_nod@UArbSeg_t@@V?$allocator@UArbSeg_t@@@std@@@2@XZ 0000000180008d20 f i ArbReader.obj
 0001:00007de0       ?_Tidy@?$list@UArbSeg_t@@V?$allocator@UArbSeg_t@@@std@@@std@@IEAAXXZ 0000000180008de0 f i ArbReader.obj
 0001:00007e80       ?_Orphan_ptr@?$list@UArbSeg_t@@V?$allocator@UArbSeg_t@@@std@@@std@@IEBAXAEAV12@PEAU_Node@?$_List_nod@UArbSeg_t@@V?$allocator@UArbSeg_t@@@std@@@2@@Z 0000000180008e80 f i ArbReader.obj
 0001:00007f60       ??0?$_List_val@UArbSeg_t@@V?$allocator@UArbSeg_t@@@std@@@std@@QEAA@V?$allocator@UArbSeg_t@@@1@@Z 0000000180008f60 f i ArbReader.obj
 0001:00007fd0       ??1?$_Container_base_aux_alloc_empty@V?$allocator@UArbSeg_t@@@std@@@std@@IEAA@XZ 0000000180008fd0 f i ArbReader.obj
 0001:00007ff0       ??0?$allocator@UArbSeg_t@@@std@@QEAA@XZ 0000000180008ff0 f i ArbReader.obj
 0001:00008000       ?deallocate@?$allocator@U_Node@?$_List_nod@UArbSeg_t@@V?$allocator@UArbSeg_t@@@std@@@std@@@std@@QEAAXPEAU_Node@?$_List_nod@UArbSeg_t@@V?$allocator@UArbSeg_t@@@std@@@2@_K@Z 0000000180009000 f i ArbReader.obj
 0001:00008030       ?destroy@?$allocator@U_Node@?$_List_nod@UArbSeg_t@@V?$allocator@UArbSeg_t@@@std@@@std@@@std@@QEAAXPEAU_Node@?$_List_nod@UArbSeg_t@@V?$allocator@UArbSeg_t@@@std@@@2@@Z 0000000180009030 f i ArbReader.obj
 0001:00008060       ?_Nextnode@?$list@V?$list@UMarker_t@ArbReader@@V?$allocator@UMarker_t@ArbReader@@@std@@@std@@V?$allocator@V?$list@UMarker_t@ArbReader@@V?$allocator@UMarker_t@ArbReader@@@std@@@std@@@2@@std@@KAAEAPEAU_Node@?$_List_nod@V?$list@UMarker_t@ArbReader@@V?$allocator@UMarker_t@ArbReader@@@std@@@std@@V?$allocator@V?$list@UMarker_t@ArbReader@@V?$allocator@UMarker_t@ArbReader@@@std@@@std@@@2@@2@PEAU342@@Z 0000000180009060 f i ArbReader.obj
 0001:00008070       ?_Prevnode@?$list@V?$list@UMarker_t@ArbReader@@V?$allocator@UMarker_t@ArbReader@@@std@@@std@@V?$allocator@V?$list@UMarker_t@ArbReader@@V?$allocator@UMarker_t@ArbReader@@@std@@@std@@@2@@std@@KAAEAPEAU_Node@?$_List_nod@V?$list@UMarker_t@ArbReader@@V?$allocator@UMarker_t@ArbReader@@@std@@@std@@V?$allocator@V?$list@UMarker_t@ArbReader@@V?$allocator@UMarker_t@ArbReader@@@std@@@std@@@2@@2@PEAU342@@Z 0000000180009070 f i ArbReader.obj
 0001:00008090       ?begin@?$list@V?$list@UMarker_t@ArbReader@@V?$allocator@UMarker_t@ArbReader@@@std@@@std@@V?$allocator@V?$list@UMarker_t@ArbReader@@V?$allocator@UMarker_t@ArbReader@@@std@@@std@@@2@@std@@QEBA?AV?$_Const_iterator@$00@12@XZ 0000000180009090 f i ArbReader.obj
 0001:000080f0       ?end@?$list@V?$list@UMarker_t@ArbReader@@V?$allocator@UMarker_t@ArbReader@@@std@@@std@@V?$allocator@V?$list@UMarker_t@ArbReader@@V?$allocator@UMarker_t@ArbReader@@@std@@@std@@@2@@std@@QEAA?AV?$_Iterator@$00@12@XZ 00000001800090f0 f i ArbReader.obj
 0001:00008150       ?end@?$list@V?$list@UMarker_t@ArbReader@@V?$allocator@UMarker_t@ArbReader@@@std@@@std@@V?$allocator@V?$list@UMarker_t@ArbReader@@V?$allocator@UMarker_t@ArbReader@@@std@@@std@@@2@@std@@QEBA?AV?$_Const_iterator@$00@12@XZ 0000000180009150 f i ArbReader.obj
 0001:000081b0       ?_Insert@?$list@V?$list@UMarker_t@ArbReader@@V?$allocator@UMarker_t@ArbReader@@@std@@@std@@V?$allocator@V?$list@UMarker_t@ArbReader@@V?$allocator@UMarker_t@ArbReader@@@std@@@std@@@2@@std@@QEAAXV?$_Const_iterator@$00@12@AEBV?$list@UMarker_t@ArbReader@@V?$allocator@UMarker_t@ArbReader@@@std@@@2@@Z 00000001800091b0 f i ArbReader.obj
 0001:000082b0       ?_Buynode@?$list@V?$list@UMarker_t@ArbReader@@V?$allocator@UMarker_t@ArbReader@@@std@@@std@@V?$allocator@V?$list@UMarker_t@ArbReader@@V?$allocator@UMarker_t@ArbReader@@@std@@@std@@@2@@std@@IEAAPEAU_Node@?$_List_nod@V?$list@UMarker_t@ArbReader@@V?$allocator@UMarker_t@ArbReader@@@std@@@std@@V?$allocator@V?$list@UMarker_t@ArbReader@@V?$allocator@UMarker_t@ArbReader@@@std@@@std@@@2@@2@XZ 00000001800092b0 f i ArbReader.obj
 0001:00008370       ?_Tidy@?$list@V?$list@UMarker_t@ArbReader@@V?$allocator@UMarker_t@ArbReader@@@std@@@std@@V?$allocator@V?$list@UMarker_t@ArbReader@@V?$allocator@UMarker_t@ArbReader@@@std@@@std@@@2@@std@@IEAAXXZ 0000000180009370 f i ArbReader.obj
 0001:00008410       ?_Orphan_ptr@?$list@V?$list@UMarker_t@ArbReader@@V?$allocator@UMarker_t@ArbReader@@@std@@@std@@V?$allocator@V?$list@UMarker_t@ArbReader@@V?$allocator@UMarker_t@ArbReader@@@std@@@std@@@2@@std@@IEBAXAEAV12@PEAU_Node@?$_List_nod@V?$list@UMarker_t@ArbReader@@V?$allocator@UMarker_t@ArbReader@@@std@@@std@@V?$allocator@V?$list@UMarker_t@ArbReader@@V?$allocator@UMarker_t@ArbReader@@@std@@@std@@@2@@2@@Z 0000000180009410 f i ArbReader.obj
 0001:000084f0       ??0?$_List_val@V?$list@UMarker_t@ArbReader@@V?$allocator@UMarker_t@ArbReader@@@std@@@std@@V?$allocator@V?$list@UMarker_t@ArbReader@@V?$allocator@UMarker_t@ArbReader@@@std@@@std@@@2@@std@@QEAA@V?$allocator@V?$list@UMarker_t@ArbReader@@V?$allocator@UMarker_t@ArbReader@@@std@@@std@@@1@@Z 00000001800094f0 f i ArbReader.obj
 0001:00008560       ??1?$_Container_base_aux_alloc_empty@V?$allocator@V?$list@UMarker_t@ArbReader@@V?$allocator@UMarker_t@ArbReader@@@std@@@std@@@std@@@std@@IEAA@XZ 0000000180009560 f i ArbReader.obj
 0001:00008580       ??0?$allocator@V?$list@UMarker_t@ArbReader@@V?$allocator@UMarker_t@ArbReader@@@std@@@std@@@std@@QEAA@XZ 0000000180009580 f i ArbReader.obj
 0001:00008590       ?deallocate@?$allocator@U_Node@?$_List_nod@V?$list@UMarker_t@ArbReader@@V?$allocator@UMarker_t@ArbReader@@@std@@@std@@V?$allocator@V?$list@UMarker_t@ArbReader@@V?$allocator@UMarker_t@ArbReader@@@std@@@std@@@2@@std@@@std@@QEAAXPEAU_Node@?$_List_nod@V?$list@UMarker_t@ArbReader@@V?$allocator@UMarker_t@ArbReader@@@std@@@std@@V?$allocator@V?$list@UMarker_t@ArbReader@@V?$allocator@UMarker_t@ArbReader@@@std@@@std@@@2@@2@_K@Z 0000000180009590 f i ArbReader.obj
 0001:000085c0       ?destroy@?$allocator@U_Node@?$_List_nod@V?$list@UMarker_t@ArbReader@@V?$allocator@UMarker_t@ArbReader@@@std@@@std@@V?$allocator@V?$list@UMarker_t@ArbReader@@V?$allocator@UMarker_t@ArbReader@@@std@@@std@@@2@@std@@@std@@QEAAXPEAU_Node@?$_List_nod@V?$list@UMarker_t@ArbReader@@V?$allocator@UMarker_t@ArbReader@@@std@@@std@@V?$allocator@V?$list@UMarker_t@ArbReader@@V?$allocator@UMarker_t@ArbReader@@@std@@@std@@@2@@2@@Z 00000001800095c0 f i ArbReader.obj
 0001:000085f0       ??0?$_Iterator@$00@?$list@USegHeader_t@ArbReader@@V?$allocator@USegHeader_t@ArbReader@@@std@@@std@@QEAA@PEAU_Node@?$_List_nod@USegHeader_t@ArbReader@@V?$allocator@USegHeader_t@ArbReader@@@std@@@2@PEBV12@@Z 00000001800095f0 f i ArbReader.obj
 0001:00008630       ??D?$_Iterator@$00@?$list@USegHeader_t@ArbReader@@V?$allocator@USegHeader_t@ArbReader@@@std@@@std@@QEBAAEAUSegHeader_t@ArbReader@@XZ 0000000180009630 f i ArbReader.obj
 0001:00008650       ??E?$_Iterator@$00@?$list@USegHeader_t@ArbReader@@V?$allocator@USegHeader_t@ArbReader@@@std@@@std@@QEAAAEAV012@XZ 0000000180009650 f i ArbReader.obj
 0001:00008680       ??0?$_Const_iterator@$00@?$list@USegHeader_t@ArbReader@@V?$allocator@USegHeader_t@ArbReader@@@std@@@std@@QEAA@XZ 0000000180009680 f i ArbReader.obj
 0001:000086c0       ??8?$_Const_iterator@$00@?$list@USegHeader_t@ArbReader@@V?$allocator@USegHeader_t@ArbReader@@@std@@@std@@QEBA_NAEBV012@@Z 00000001800096c0 f i ArbReader.obj
 0001:00008720       ?_Nextnode@?$list@UMarker_t@ArbReader@@V?$allocator@UMarker_t@ArbReader@@@std@@@std@@KAAEAPEAU_Node@?$_List_nod@UMarker_t@ArbReader@@V?$allocator@UMarker_t@ArbReader@@@std@@@2@PEAU342@@Z 0000000180009720 f i ArbReader.obj
 0001:00008730       ?_Insert@?$list@UMarker_t@ArbReader@@V?$allocator@UMarker_t@ArbReader@@@std@@@std@@QEAAXV?$_Const_iterator@$00@12@AEBUMarker_t@ArbReader@@@Z 0000000180009730 f i ArbReader.obj
 0001:00008830       ?_Buynode@?$list@UMarker_t@ArbReader@@V?$allocator@UMarker_t@ArbReader@@@std@@@std@@IEAAPEAU_Node@?$_List_nod@UMarker_t@ArbReader@@V?$allocator@UMarker_t@ArbReader@@@std@@@2@XZ 0000000180009830 f i ArbReader.obj
 0001:000088f0       ?_Tidy@?$list@UMarker_t@ArbReader@@V?$allocator@UMarker_t@ArbReader@@@std@@@std@@IEAAXXZ 00000001800098f0 f i ArbReader.obj
 0001:00008990       ??0?$_List_val@UMarker_t@ArbReader@@V?$allocator@UMarker_t@ArbReader@@@std@@@std@@QEAA@V?$allocator@UMarker_t@ArbReader@@@1@@Z 0000000180009990 f i ArbReader.obj
 0001:00008a00       ??1?$_Container_base_aux_alloc_empty@V?$allocator@UMarker_t@ArbReader@@@std@@@std@@IEAA@XZ 0000000180009a00 f i ArbReader.obj
 0001:00008a20       ??0?$allocator@UMarker_t@ArbReader@@@std@@QEAA@XZ 0000000180009a20 f i ArbReader.obj
 0001:00008a30       ?begin@?$vector@V?$vector@UData_t@ArbReader@@V?$allocator@UData_t@ArbReader@@@std@@@std@@V?$allocator@V?$vector@UData_t@ArbReader@@V?$allocator@UData_t@ArbReader@@@std@@@std@@@2@@std@@QEAA?AV?$_Vector_iterator@V?$vector@UData_t@ArbReader@@V?$allocator@UData_t@ArbReader@@@std@@@std@@V?$allocator@V?$vector@UData_t@ArbReader@@V?$allocator@UData_t@ArbReader@@@std@@@std@@@2@@2@XZ 0000000180009a30 f i ArbReader.obj
 0001:00008a90       ?size@?$vector@V?$vector@UData_t@ArbReader@@V?$allocator@UData_t@ArbReader@@@std@@@std@@V?$allocator@V?$vector@UData_t@ArbReader@@V?$allocator@UData_t@ArbReader@@@std@@@std@@@2@@std@@QEBA_KXZ 0000000180009a90 f i ArbReader.obj
 0001:00008ac0       ?_Xran@?$vector@V?$vector@UData_t@ArbReader@@V?$allocator@UData_t@ArbReader@@@std@@@std@@V?$allocator@V?$vector@UData_t@ArbReader@@V?$allocator@UData_t@ArbReader@@@std@@@std@@@2@@std@@KAXXZ 0000000180009ac0 f i ArbReader.obj
 0001:00008b40       ??0out_of_range@std@@QEAA@AEBV?$basic_string@DU?$char_traits@D@std@@V?$allocator@D@2@@1@@Z 0000000180009b40 f i ArbReader.obj
 0001:00008b90       ??0logic_error@std@@QEAA@AEBV?$basic_string@DU?$char_traits@D@std@@V?$allocator@D@2@@1@@Z 0000000180009b90 f i ArbReader.obj
 0001:00008c00       ?what@logic_error@std@@UEBAPEBDXZ 0000000180009c00 f i ArbReader.obj
 0001:00008c30       ??_Elogic_error@std@@UEAAPEAXI@Z 0000000180009c30 f i ArbReader.obj
 0001:00008c30       ??_Glogic_error@std@@UEAAPEAXI@Z 0000000180009c30 f i ArbReader.obj
 0001:00008c80       ??1logic_error@std@@UEAA@XZ 0000000180009c80 f i ArbReader.obj
 0001:00008cd0       ??1out_of_range@std@@UEAA@XZ 0000000180009cd0 f i ArbReader.obj
 0001:00008d00       ??_Gout_of_range@std@@UEAAPEAXI@Z 0000000180009d00 f i ArbReader.obj
 0001:00008d00       ??_Eout_of_range@std@@UEAAPEAXI@Z 0000000180009d00 f i ArbReader.obj
 0001:00008d50       ?capacity@?$vector@UData_t@ArbReader@@V?$allocator@UData_t@ArbReader@@@std@@@std@@QEBA_KXZ 0000000180009d50 f i ArbReader.obj
 0001:00008db0       ?end@?$vector@UData_t@ArbReader@@V?$allocator@UData_t@ArbReader@@@std@@@std@@QEAA?AV?$_Vector_iterator@UData_t@ArbReader@@V?$allocator@UData_t@ArbReader@@@std@@@2@XZ 0000000180009db0 f i ArbReader.obj
 0001:00008e10       ?size@?$vector@UData_t@ArbReader@@V?$allocator@UData_t@ArbReader@@@std@@@std@@QEBA_KXZ 0000000180009e10 f i ArbReader.obj
 0001:00008e40       ?insert@?$vector@UData_t@ArbReader@@V?$allocator@UData_t@ArbReader@@@std@@@std@@QEAA?AV?$_Vector_iterator@UData_t@ArbReader@@V?$allocator@UData_t@ArbReader@@@std@@@2@V?$_Vector_const_iterator@UData_t@ArbReader@@V?$allocator@UData_t@ArbReader@@@std@@@2@AEBUData_t@ArbReader@@@Z 0000000180009e40 f i ArbReader.obj
 0001:00009030       ?_Ufill@?$vector@UData_t@ArbReader@@V?$allocator@UData_t@ArbReader@@@std@@@std@@IEAAPEAUData_t@ArbReader@@PEAU34@_KAEBU34@@Z 000000018000a030 f i ArbReader.obj
 0001:00009090       ?_Orphan_range@?$vector@UData_t@ArbReader@@V?$allocator@UData_t@ArbReader@@@std@@@std@@IEBAXPEAUData_t@ArbReader@@0@Z 000000018000a090 f i ArbReader.obj
 0001:00009160       ??0?$_Iterator@$00@?$list@V?$list@UMarker_t@ArbReader@@V?$allocator@UMarker_t@ArbReader@@@std@@@std@@V?$allocator@V?$list@UMarker_t@ArbReader@@V?$allocator@UMarker_t@ArbReader@@@std@@@std@@@2@@std@@QEAA@PEAU_Node@?$_List_nod@V?$list@UMarker_t@ArbReader@@V?$allocator@UMarker_t@ArbReader@@@std@@@std@@V?$allocator@V?$list@UMarker_t@ArbReader@@V?$allocator@UMarker_t@ArbReader@@@std@@@std@@@2@@2@PEBV12@@Z 000000018000a160 f i ArbReader.obj
 0001:000091a0       ??D?$_Iterator@$00@?$list@V?$list@UMarker_t@ArbReader@@V?$allocator@UMarker_t@ArbReader@@@std@@@std@@V?$allocator@V?$list@UMarker_t@ArbReader@@V?$allocator@UMarker_t@ArbReader@@@std@@@std@@@2@@std@@QEBAAEAV?$list@UMarker_t@ArbReader@@V?$allocator@UMarker_t@ArbReader@@@std@@@2@XZ 000000018000a1a0 f i ArbReader.obj
 0001:000091c0       ??E?$_Iterator@$00@?$list@V?$list@UMarker_t@ArbReader@@V?$allocator@UMarker_t@ArbReader@@@std@@@std@@V?$allocator@V?$list@UMarker_t@ArbReader@@V?$allocator@UMarker_t@ArbReader@@@std@@@std@@@2@@std@@QEAAAEAV012@XZ 000000018000a1c0 f i ArbReader.obj
 0001:000091f0       ??0?$_Const_iterator@$00@?$list@V?$list@UMarker_t@ArbReader@@V?$allocator@UMarker_t@ArbReader@@@std@@@std@@V?$allocator@V?$list@UMarker_t@ArbReader@@V?$allocator@UMarker_t@ArbReader@@@std@@@std@@@2@@std@@QEAA@XZ 000000018000a1f0 f i ArbReader.obj
 0001:00009230       ??D?$_Const_iterator@$00@?$list@UMarker_t@ArbReader@@V?$allocator@UMarker_t@ArbReader@@@std@@@std@@QEBAAEBUMarker_t@ArbReader@@XZ 000000018000a230 f i ArbReader.obj
 0001:00009340       ??E?$_Const_iterator@$00@?$list@UMarker_t@ArbReader@@V?$allocator@UMarker_t@ArbReader@@@std@@@std@@QEAAAEAV012@XZ 000000018000a340 f i ArbReader.obj
 0001:00009460       ??8?$_Const_iterator@$00@?$list@UMarker_t@ArbReader@@V?$allocator@UMarker_t@ArbReader@@@std@@@std@@QEBA_NAEBV012@@Z 000000018000a460 f i ArbReader.obj
 0001:000094c0       ??0?$_Iterator@$00@?$list@UMarker_t@ArbReader@@V?$allocator@UMarker_t@ArbReader@@@std@@@std@@QEAA@PEAU_Node@?$_List_nod@UMarker_t@ArbReader@@V?$allocator@UMarker_t@ArbReader@@@std@@@2@PEBV12@@Z 000000018000a4c0 f i ArbReader.obj
 0001:00009500       ??D?$_Vector_iterator@V?$vector@UData_t@ArbReader@@V?$allocator@UData_t@ArbReader@@@std@@@std@@V?$allocator@V?$vector@UData_t@ArbReader@@V?$allocator@UData_t@ArbReader@@@std@@@std@@@2@@std@@QEBAAEAV?$vector@UData_t@ArbReader@@V?$allocator@UData_t@ArbReader@@@std@@@1@XZ 000000018000a500 f i ArbReader.obj
 0001:00009520       ??H?$_Vector_iterator@V?$vector@UData_t@ArbReader@@V?$allocator@UData_t@ArbReader@@@std@@@std@@V?$allocator@V?$vector@UData_t@ArbReader@@V?$allocator@UData_t@ArbReader@@@std@@@std@@@2@@std@@QEBA?AV01@_J@Z 000000018000a520 f i ArbReader.obj
 0001:000095b0       ??0?$_Bidit@USegHeader_t@ArbReader@@_JPEBU12@AEBU12@@std@@QEAA@XZ 000000018000a5b0 f i ArbReader.obj
 0001:000095e0       ??0out_of_range@std@@QEAA@AEBV01@@Z 000000018000a5e0 f i ArbReader.obj
 0001:00009630       ??0logic_error@std@@QEAA@AEBV01@@Z 000000018000a630 f i ArbReader.obj
 0001:000096a0       ??0?$_Bidit@V?$list@UMarker_t@ArbReader@@V?$allocator@UMarker_t@ArbReader@@@std@@@std@@_JPEBV12@AEBV12@@std@@QEAA@XZ 000000018000a6a0 f i ArbReader.obj
 0001:000096d0       ??0?$_Vector_iterator@V?$vector@UData_t@ArbReader@@V?$allocator@UData_t@ArbReader@@@std@@@std@@V?$allocator@V?$vector@UData_t@ArbReader@@V?$allocator@UData_t@ArbReader@@@std@@@std@@@2@@std@@QEAA@AEBV01@@Z 000000018000a6d0 f i ArbReader.obj
 0001:00009700       ??0?$_Iterator_with_base@Ubidirectional_iterator_tag@std@@USegHeader_t@ArbReader@@_JPEBU34@AEBU34@V_Iterator_base@2@@std@@QEAA@XZ 000000018000a700 f i ArbReader.obj
 0001:00009730       ??0?$_Iterator_with_base@Ubidirectional_iterator_tag@std@@V?$list@UMarker_t@ArbReader@@V?$allocator@UMarker_t@ArbReader@@@std@@@2@_JPEBV32@AEBV32@V_Iterator_base@2@@std@@QEAA@XZ 000000018000a730 f i ArbReader.obj
 0001:00009760       ??0?$_Vector_const_iterator@V?$vector@UData_t@ArbReader@@V?$allocator@UData_t@ArbReader@@@std@@@std@@V?$allocator@V?$vector@UData_t@ArbReader@@V?$allocator@UData_t@ArbReader@@@std@@@std@@@2@@std@@QEAA@AEBV01@@Z 000000018000a760 f i ArbReader.obj
 0001:000097b0       ??0?$_Ranit@V?$vector@UData_t@ArbReader@@V?$allocator@UData_t@ArbReader@@@std@@@std@@_JPEBV12@AEBV12@@std@@QEAA@AEBU01@@Z 000000018000a7b0 f i ArbReader.obj
 0001:000097e0       ??0?$_Iterator_with_base@Urandom_access_iterator_tag@std@@V?$vector@UData_t@ArbReader@@V?$allocator@UData_t@ArbReader@@@std@@@2@_JPEBV32@AEBV32@V_Iterator_base@2@@std@@QEAA@AEBU01@@Z 000000018000a7e0 f i ArbReader.obj
 0001:00009810       ?_Buynode@?$list@USegHeader_t@ArbReader@@V?$allocator@USegHeader_t@ArbReader@@@std@@@std@@IEAAPEAU_Node@?$_List_nod@USegHeader_t@ArbReader@@V?$allocator@USegHeader_t@ArbReader@@@std@@@2@PEAU342@0AEBUSegHeader_t@ArbReader@@@Z 000000018000a810 f i ArbReader.obj
 0001:00009920       ?_Incsize@?$list@USegHeader_t@ArbReader@@V?$allocator@USegHeader_t@ArbReader@@@std@@@std@@IEAAX_K@Z 000000018000a920 f i ArbReader.obj
 0001:00009a00       ??0length_error@std@@QEAA@AEBV?$basic_string@DU?$char_traits@D@std@@V?$allocator@D@2@@1@@Z 000000018000aa00 f i ArbReader.obj
 0001:00009a50       ??1length_error@std@@UEAA@XZ 000000018000aa50 f i ArbReader.obj
 0001:00009a80       ??_Elength_error@std@@UEAAPEAXI@Z 000000018000aa80 f i ArbReader.obj
 0001:00009a80       ??_Glength_error@std@@UEAAPEAXI@Z 000000018000aa80 f i ArbReader.obj
 0001:00009ad0       ??0?$_List_ptr@USegHeader_t@ArbReader@@V?$allocator@USegHeader_t@ArbReader@@@std@@@std@@IEAA@V?$allocator@USegHeader_t@ArbReader@@@1@@Z 000000018000aad0 f i ArbReader.obj
 0001:00009b40       ??0?$allocator@USegHeader_t@ArbReader@@@std@@QEAA@AEBV01@@Z 000000018000ab40 f i ArbReader.obj
 0001:00009b60       ?allocate@?$allocator@U_Node@?$_List_nod@USegHeader_t@ArbReader@@V?$allocator@USegHeader_t@ArbReader@@@std@@@std@@@std@@QEAAPEAU_Node@?$_List_nod@USegHeader_t@ArbReader@@V?$allocator@USegHeader_t@ArbReader@@@std@@@2@_K@Z 000000018000ab60 f i ArbReader.obj
 0001:00009b90       ?construct@?$allocator@PEAU_Node@?$_List_nod@USegHeader_t@ArbReader@@V?$allocator@USegHeader_t@ArbReader@@@std@@@std@@@std@@QEAAXPEAPEAU_Node@?$_List_nod@USegHeader_t@ArbReader@@V?$allocator@USegHeader_t@ArbReader@@@std@@@2@AEBQEAU342@@Z 000000018000ab90 f i ArbReader.obj
 0001:00009bc0       ?destroy@?$allocator@PEAU_Node@?$_List_nod@USegHeader_t@ArbReader@@V?$allocator@USegHeader_t@ArbReader@@@std@@@std@@@std@@QEAAXPEAPEAU_Node@?$_List_nod@USegHeader_t@ArbReader@@V?$allocator@USegHeader_t@ArbReader@@@std@@@2@@Z 000000018000abc0 f i ArbReader.obj
 0001:00009bf0       ?_Buynode@?$list@UArbSeg_t@@V?$allocator@UArbSeg_t@@@std@@@std@@IEAAPEAU_Node@?$_List_nod@UArbSeg_t@@V?$allocator@UArbSeg_t@@@std@@@2@PEAU342@0AEBUArbSeg_t@@@Z 000000018000abf0 f i ArbReader.obj
 0001:00009d00       ?_Incsize@?$list@UArbSeg_t@@V?$allocator@UArbSeg_t@@@std@@@std@@IEAAX_K@Z 000000018000ad00 f i ArbReader.obj
 0001:00009de0       ??0?$_List_ptr@UArbSeg_t@@V?$allocator@UArbSeg_t@@@std@@@std@@IEAA@V?$allocator@UArbSeg_t@@@1@@Z 000000018000ade0 f i ArbReader.obj
 0001:00009e50       ??0?$allocator@UArbSeg_t@@@std@@QEAA@AEBV01@@Z 000000018000ae50 f i ArbReader.obj
 0001:00009e70       ?allocate@?$allocator@U_Node@?$_List_nod@UArbSeg_t@@V?$allocator@UArbSeg_t@@@std@@@std@@@std@@QEAAPEAU_Node@?$_List_nod@UArbSeg_t@@V?$allocator@UArbSeg_t@@@std@@@2@_K@Z 000000018000ae70 f i ArbReader.obj
 0001:00009ea0       ?construct@?$allocator@PEAU_Node@?$_List_nod@UArbSeg_t@@V?$allocator@UArbSeg_t@@@std@@@std@@@std@@QEAAXPEAPEAU_Node@?$_List_nod@UArbSeg_t@@V?$allocator@UArbSeg_t@@@std@@@2@AEBQEAU342@@Z 000000018000aea0 f i ArbReader.obj
 0001:00009ed0       ?destroy@?$allocator@PEAU_Node@?$_List_nod@UArbSeg_t@@V?$allocator@UArbSeg_t@@@std@@@std@@@std@@QEAAXPEAPEAU_Node@?$_List_nod@UArbSeg_t@@V?$allocator@UArbSeg_t@@@std@@@2@@Z 000000018000aed0 f i ArbReader.obj
 0001:00009f00       ?_Buynode@?$list@V?$list@UMarker_t@ArbReader@@V?$allocator@UMarker_t@ArbReader@@@std@@@std@@V?$allocator@V?$list@UMarker_t@ArbReader@@V?$allocator@UMarker_t@ArbReader@@@std@@@std@@@2@@std@@IEAAPEAU_Node@?$_List_nod@V?$list@UMarker_t@ArbReader@@V?$allocator@UMarker_t@ArbReader@@@std@@@std@@V?$allocator@V?$list@UMarker_t@ArbReader@@V?$allocator@UMarker_t@ArbReader@@@std@@@std@@@2@@2@PEAU342@0AEBV?$list@UMarker_t@ArbReader@@V?$allocator@UMarker_t@ArbReader@@@std@@@2@@Z 000000018000af00 f i ArbReader.obj
 0001:0000a010       ?_Incsize@?$list@V?$list@UMarker_t@ArbReader@@V?$allocator@UMarker_t@ArbReader@@@std@@@std@@V?$allocator@V?$list@UMarker_t@ArbReader@@V?$allocator@UMarker_t@ArbReader@@@std@@@std@@@2@@std@@IEAAX_K@Z 000000018000b010 f i ArbReader.obj
 0001:0000a0f0       ??0?$_List_ptr@V?$list@UMarker_t@ArbReader@@V?$allocator@UMarker_t@ArbReader@@@std@@@std@@V?$allocator@V?$list@UMarker_t@ArbReader@@V?$allocator@UMarker_t@ArbReader@@@std@@@std@@@2@@std@@IEAA@V?$allocator@V?$list@UMarker_t@ArbReader@@V?$allocator@UMarker_t@ArbReader@@@std@@@std@@@1@@Z 000000018000b0f0 f i ArbReader.obj
 0001:0000a160       ??0?$allocator@V?$list@UMarker_t@ArbReader@@V?$allocator@UMarker_t@ArbReader@@@std@@@std@@@std@@QEAA@AEBV01@@Z 000000018000b160 f i ArbReader.obj
 0001:0000a180       ?allocate@?$allocator@U_Node@?$_List_nod@V?$list@UMarker_t@ArbReader@@V?$allocator@UMarker_t@ArbReader@@@std@@@std@@V?$allocator@V?$list@UMarker_t@ArbReader@@V?$allocator@UMarker_t@ArbReader@@@std@@@std@@@2@@std@@@std@@QEAAPEAU_Node@?$_List_nod@V?$list@UMarker_t@ArbReader@@V?$allocator@UMarker_t@ArbReader@@@std@@@std@@V?$allocator@V?$list@UMarker_t@ArbReader@@V?$allocator@UMarker_t@ArbReader@@@std@@@std@@@2@@2@_K@Z 000000018000b180 f i ArbReader.obj
 0001:0000a1b0       ?construct@?$allocator@PEAU_Node@?$_List_nod@V?$list@UMarker_t@ArbReader@@V?$allocator@UMarker_t@ArbReader@@@std@@@std@@V?$allocator@V?$list@UMarker_t@ArbReader@@V?$allocator@UMarker_t@ArbReader@@@std@@@std@@@2@@std@@@std@@QEAAXPEAPEAU_Node@?$_List_nod@V?$list@UMarker_t@ArbReader@@V?$allocator@UMarker_t@ArbReader@@@std@@@std@@V?$allocator@V?$list@UMarker_t@ArbReader@@V?$allocator@UMarker_t@ArbReader@@@std@@@std@@@2@@2@AEBQEAU342@@Z 000000018000b1b0 f i ArbReader.obj
 0001:0000a1e0       ?destroy@?$allocator@PEAU_Node@?$_List_nod@V?$list@UMarker_t@ArbReader@@V?$allocator@UMarker_t@ArbReader@@@std@@@std@@V?$allocator@V?$list@UMarker_t@ArbReader@@V?$allocator@UMarker_t@ArbReader@@@std@@@std@@@2@@std@@@std@@QEAAXPEAPEAU_Node@?$_List_nod@V?$list@UMarker_t@ArbReader@@V?$allocator@UMarker_t@ArbReader@@@std@@@std@@V?$allocator@V?$list@UMarker_t@ArbReader@@V?$allocator@UMarker_t@ArbReader@@@std@@@std@@@2@@2@@Z 000000018000b1e0 f i ArbReader.obj
 0001:0000a210       ??0?$_Const_iterator@$00@?$list@USegHeader_t@ArbReader@@V?$allocator@USegHeader_t@ArbReader@@@std@@@std@@QEAA@PEAU_Node@?$_List_nod@USegHeader_t@ArbReader@@V?$allocator@USegHeader_t@ArbReader@@@std@@@2@PEBV12@@Z 000000018000b210 f i ArbReader.obj
 0001:0000a280       ??D?$_Const_iterator@$00@?$list@USegHeader_t@ArbReader@@V?$allocator@USegHeader_t@ArbReader@@@std@@@std@@QEBAAEBUSegHeader_t@ArbReader@@XZ 000000018000b280 f i ArbReader.obj
 0001:0000a390       ??E?$_Const_iterator@$00@?$list@USegHeader_t@ArbReader@@V?$allocator@USegHeader_t@ArbReader@@@std@@@std@@QEAAAEAV012@XZ 000000018000b390 f i ArbReader.obj
 0001:0000a4b0       ?_Mynode@?$_Const_iterator@$00@?$list@USegHeader_t@ArbReader@@V?$allocator@USegHeader_t@ArbReader@@@std@@@std@@QEBAPEAU_Node@?$_List_nod@USegHeader_t@ArbReader@@V?$allocator@USegHeader_t@ArbReader@@@std@@@3@XZ 000000018000b4b0 f i ArbReader.obj
 0001:0000a4d0       ?_Compat@?$_Const_iterator@$00@?$list@USegHeader_t@ArbReader@@V?$allocator@USegHeader_t@ArbReader@@@std@@@std@@QEBAXAEBV123@@Z 000000018000b4d0 f i ArbReader.obj
 0001:0000a5c0       ?_Prevnode@?$list@UMarker_t@ArbReader@@V?$allocator@UMarker_t@ArbReader@@@std@@@std@@KAAEAPEAU_Node@?$_List_nod@UMarker_t@ArbReader@@V?$allocator@UMarker_t@ArbReader@@@std@@@2@PEAU342@@Z 000000018000b5c0 f i ArbReader.obj
 0001:0000a5e0       ?_Myval@?$list@UMarker_t@ArbReader@@V?$allocator@UMarker_t@ArbReader@@@std@@@std@@KAAEAUMarker_t@ArbReader@@PEAU_Node@?$_List_nod@UMarker_t@ArbReader@@V?$allocator@UMarker_t@ArbReader@@@std@@@2@@Z 000000018000b5e0 f i ArbReader.obj
 0001:0000a600       ?clear@?$list@UMarker_t@ArbReader@@V?$allocator@UMarker_t@ArbReader@@@std@@@std@@QEAAXXZ 000000018000b600 f i ArbReader.obj
 0001:0000a710       ?_Buynode@?$list@UMarker_t@ArbReader@@V?$allocator@UMarker_t@ArbReader@@@std@@@std@@IEAAPEAU_Node@?$_List_nod@UMarker_t@ArbReader@@V?$allocator@UMarker_t@ArbReader@@@std@@@2@PEAU342@0AEBUMarker_t@ArbReader@@@Z 000000018000b710 f i ArbReader.obj
 0001:0000a820       ?_Incsize@?$list@UMarker_t@ArbReader@@V?$allocator@UMarker_t@ArbReader@@@std@@@std@@IEAAX_K@Z 000000018000b820 f i ArbReader.obj
 0001:0000a900       ??0?$_List_ptr@UMarker_t@ArbReader@@V?$allocator@UMarker_t@ArbReader@@@std@@@std@@IEAA@V?$allocator@UMarker_t@ArbReader@@@1@@Z 000000018000b900 f i ArbReader.obj
 0001:0000a970       ??0?$allocator@UMarker_t@ArbReader@@@std@@QEAA@AEBV01@@Z 000000018000b970 f i ArbReader.obj
 0001:0000a990       ?deallocate@?$allocator@U_Node@?$_List_nod@UMarker_t@ArbReader@@V?$allocator@UMarker_t@ArbReader@@@std@@@std@@@std@@QEAAXPEAU_Node@?$_List_nod@UMarker_t@ArbReader@@V?$allocator@UMarker_t@ArbReader@@@std@@@2@_K@Z 000000018000b990 f i ArbReader.obj
 0001:0000a9c0       ?allocate@?$allocator@U_Node@?$_List_nod@UMarker_t@ArbReader@@V?$allocator@UMarker_t@ArbReader@@@std@@@std@@@std@@QEAAPEAU_Node@?$_List_nod@UMarker_t@ArbReader@@V?$allocator@UMarker_t@ArbReader@@@std@@@2@_K@Z 000000018000b9c0 f i ArbReader.obj
 0001:0000a9f0       ?construct@?$allocator@PEAU_Node@?$_List_nod@UMarker_t@ArbReader@@V?$allocator@UMarker_t@ArbReader@@@std@@@std@@@std@@QEAAXPEAPEAU_Node@?$_List_nod@UMarker_t@ArbReader@@V?$allocator@UMarker_t@ArbReader@@@std@@@2@AEBQEAU342@@Z 000000018000b9f0 f i ArbReader.obj
 0001:0000aa20       ?destroy@?$allocator@PEAU_Node@?$_List_nod@UMarker_t@ArbReader@@V?$allocator@UMarker_t@ArbReader@@@std@@@std@@@std@@QEAAXPEAPEAU_Node@?$_List_nod@UMarker_t@ArbReader@@V?$allocator@UMarker_t@ArbReader@@@std@@@2@@Z 000000018000ba20 f i ArbReader.obj
 0001:0000aa50       ?begin@?$vector@UData_t@ArbReader@@V?$allocator@UData_t@ArbReader@@@std@@@std@@QEAA?AV?$_Vector_iterator@UData_t@ArbReader@@V?$allocator@UData_t@ArbReader@@@std@@@2@XZ 000000018000ba50 f i ArbReader.obj
 0001:0000aab0       ?_Insert_n@?$vector@UData_t@ArbReader@@V?$allocator@UData_t@ArbReader@@@std@@@std@@IEAAXV?$_Vector_const_iterator@UData_t@ArbReader@@V?$allocator@UData_t@ArbReader@@@std@@@2@_KAEBUData_t@ArbReader@@@Z 000000018000bab0 f i ArbReader.obj
 0001:0000b0d0       ??0?$_Const_iterator@$00@?$list@V?$list@UMarker_t@ArbReader@@V?$allocator@UMarker_t@ArbReader@@@std@@@std@@V?$allocator@V?$list@UMarker_t@ArbReader@@V?$allocator@UMarker_t@ArbReader@@@std@@@std@@@2@@std@@QEAA@PEAU_Node@?$_List_nod@V?$list@UMarker_t@ArbReader@@V?$allocator@UMarker_t@ArbReader@@@std@@@std@@V?$allocator@V?$list@UMarker_t@ArbReader@@V?$allocator@UMarker_t@ArbReader@@@std@@@std@@@2@@2@PEBV12@@Z 000000018000c0d0 f i ArbReader.obj
 0001:0000b140       ??D?$_Const_iterator@$00@?$list@V?$list@UMarker_t@ArbReader@@V?$allocator@UMarker_t@ArbReader@@@std@@@std@@V?$allocator@V?$list@UMarker_t@ArbReader@@V?$allocator@UMarker_t@ArbReader@@@std@@@std@@@2@@std@@QEBAAEBV?$list@UMarker_t@ArbReader@@V?$allocator@UMarker_t@ArbReader@@@std@@@2@XZ 000000018000c140 f i ArbReader.obj
 0001:0000b250       ??E?$_Const_iterator@$00@?$list@V?$list@UMarker_t@ArbReader@@V?$allocator@UMarker_t@ArbReader@@@std@@@std@@V?$allocator@V?$list@UMarker_t@ArbReader@@V?$allocator@UMarker_t@ArbReader@@@std@@@std@@@2@@std@@QEAAAEAV012@XZ 000000018000c250 f i ArbReader.obj
 0001:0000b370       ?_Mynode@?$_Const_iterator@$00@?$list@V?$list@UMarker_t@ArbReader@@V?$allocator@UMarker_t@ArbReader@@@std@@@std@@V?$allocator@V?$list@UMarker_t@ArbReader@@V?$allocator@UMarker_t@ArbReader@@@std@@@std@@@2@@std@@QEBAPEAU_Node@?$_List_nod@V?$list@UMarker_t@ArbReader@@V?$allocator@UMarker_t@ArbReader@@@std@@@std@@V?$allocator@V?$list@UMarker_t@ArbReader@@V?$allocator@UMarker_t@ArbReader@@@std@@@std@@@2@@3@XZ 000000018000c370 f i ArbReader.obj
 0001:0000b390       ??0?$_Const_iterator@$00@?$list@UMarker_t@ArbReader@@V?$allocator@UMarker_t@ArbReader@@@std@@@std@@QEAA@PEAU_Node@?$_List_nod@UMarker_t@ArbReader@@V?$allocator@UMarker_t@ArbReader@@@std@@@2@PEBV12@@Z 000000018000c390 f i ArbReader.obj
 0001:0000b400       ?_Mynode@?$_Const_iterator@$00@?$list@UMarker_t@ArbReader@@V?$allocator@UMarker_t@ArbReader@@@std@@@std@@QEBAPEAU_Node@?$_List_nod@UMarker_t@ArbReader@@V?$allocator@UMarker_t@ArbReader@@@std@@@3@XZ 000000018000c400 f i ArbReader.obj
 0001:0000b420       ?_Compat@?$_Const_iterator@$00@?$list@UMarker_t@ArbReader@@V?$allocator@UMarker_t@ArbReader@@@std@@@std@@QEBAXAEBV123@@Z 000000018000c420 f i ArbReader.obj
 0001:0000b510       ??0?$_Const_iterator@$00@?$list@UArbSeg_t@@V?$allocator@UArbSeg_t@@@std@@@std@@QEAA@PEAU_Node@?$_List_nod@UArbSeg_t@@V?$allocator@UArbSeg_t@@@std@@@2@PEBV12@@Z 000000018000c510 f i ArbReader.obj
 0001:0000b580       ?_Mynode@?$_Const_iterator@$00@?$list@UArbSeg_t@@V?$allocator@UArbSeg_t@@@std@@@std@@QEBAPEAU_Node@?$_List_nod@UArbSeg_t@@V?$allocator@UArbSeg_t@@@std@@@3@XZ 000000018000c580 f i ArbReader.obj
 0001:0000b5a0       ??0?$_Iterator@$00@?$list@UArbSeg_t@@V?$allocator@UArbSeg_t@@@std@@@std@@QEAA@PEAU_Node@?$_List_nod@UArbSeg_t@@V?$allocator@UArbSeg_t@@@std@@@2@PEBV12@@Z 000000018000c5a0 f i ArbReader.obj
 0001:0000b5e0       ??0?$_Vector_iterator@V?$vector@UData_t@ArbReader@@V?$allocator@UData_t@ArbReader@@@std@@@std@@V?$allocator@V?$vector@UData_t@ArbReader@@V?$allocator@UData_t@ArbReader@@@std@@@std@@@2@@std@@QEAA@PEAV?$vector@UData_t@ArbReader@@V?$allocator@UData_t@ArbReader@@@std@@@1@PEBV_Container_base_secure@1@@Z 000000018000c5e0 f i ArbReader.obj
 0001:0000b620       ??Y?$_Vector_iterator@V?$vector@UData_t@ArbReader@@V?$allocator@UData_t@ArbReader@@@std@@@std@@V?$allocator@V?$vector@UData_t@ArbReader@@V?$allocator@UData_t@ArbReader@@@std@@@std@@@2@@std@@QEAAAEAV01@_J@Z 000000018000c620 f i ArbReader.obj
 0001:0000b650       ??D?$_Vector_const_iterator@V?$vector@UData_t@ArbReader@@V?$allocator@UData_t@ArbReader@@@std@@@std@@V?$allocator@V?$vector@UData_t@ArbReader@@V?$allocator@UData_t@ArbReader@@@std@@@std@@@2@@std@@QEBAAEBV?$vector@UData_t@ArbReader@@V?$allocator@UData_t@ArbReader@@@std@@@1@XZ 000000018000c650 f i ArbReader.obj
 0001:0000b750       ??0?$_Vector_iterator@UData_t@ArbReader@@V?$allocator@UData_t@ArbReader@@@std@@@std@@QEAA@PEAUData_t@ArbReader@@PEBV_Container_base_secure@1@@Z 000000018000c750 f i ArbReader.obj
 0001:0000b790       ??H?$_Vector_iterator@UData_t@ArbReader@@V?$allocator@UData_t@ArbReader@@@std@@@std@@QEBA?AV01@_J@Z 000000018000c790 f i ArbReader.obj
 0001:0000b820       ??G?$_Vector_const_iterator@UData_t@ArbReader@@V?$allocator@UData_t@ArbReader@@@std@@@std@@QEBA_JAEBV01@@Z 000000018000c820 f i ArbReader.obj
 0001:0000b870       ??0length_error@std@@QEAA@AEBV01@@Z 000000018000c870 f i ArbReader.obj
 0001:0000b8c0       ??0?$_Bidit@UArbSeg_t@@_JPEBU1@AEBU1@@std@@QEAA@XZ 000000018000c8c0 f i ArbReader.obj
 0001:0000b8f0       ??0?$_Vector_iterator@UData_t@ArbReader@@V?$allocator@UData_t@ArbReader@@@std@@@std@@QEAA@AEBV01@@Z 000000018000c8f0 f i ArbReader.obj
 0001:0000b920       ??0?$_Iterator_with_base@Ubidirectional_iterator_tag@std@@UArbSeg_t@@_JPEBU3@AEBU3@V_Iterator_base@2@@std@@QEAA@XZ 000000018000c920 f i ArbReader.obj
 0001:0000b950       ?_Myval@?$list@USegHeader_t@ArbReader@@V?$allocator@USegHeader_t@ArbReader@@@std@@@std@@KAAEAUSegHeader_t@ArbReader@@PEAU_Node@?$_List_nod@USegHeader_t@ArbReader@@V?$allocator@USegHeader_t@ArbReader@@@std@@@2@@Z 000000018000c950 f i ArbReader.obj
 0001:0000b970       ?max_size@?$list@USegHeader_t@ArbReader@@V?$allocator@USegHeader_t@ArbReader@@@std@@@std@@QEBA_KXZ 000000018000c970 f i ArbReader.obj
 0001:0000b9a0       ??0?$_List_nod@USegHeader_t@ArbReader@@V?$allocator@USegHeader_t@ArbReader@@@std@@@std@@IEAA@V?$allocator@USegHeader_t@ArbReader@@@1@@Z 000000018000c9a0 f i ArbReader.obj
 0001:0000ba10       ?construct@?$allocator@USegHeader_t@ArbReader@@@std@@QEAAXPEAUSegHeader_t@ArbReader@@AEBU34@@Z 000000018000ca10 f i ArbReader.obj
 0001:0000ba40       ?_Myval@?$list@UArbSeg_t@@V?$allocator@UArbSeg_t@@@std@@@std@@KAAEAUArbSeg_t@@PEAU_Node@?$_List_nod@UArbSeg_t@@V?$allocator@UArbSeg_t@@@std@@@2@@Z 000000018000ca40 f i ArbReader.obj
 0001:0000ba60       ?max_size@?$list@UArbSeg_t@@V?$allocator@UArbSeg_t@@@std@@@std@@QEBA_KXZ 000000018000ca60 f i ArbReader.obj
 0001:0000ba90       ??0?$_List_nod@UArbSeg_t@@V?$allocator@UArbSeg_t@@@std@@@std@@IEAA@V?$allocator@UArbSeg_t@@@1@@Z 000000018000ca90 f i ArbReader.obj
 0001:0000bb00       ?construct@?$allocator@UArbSeg_t@@@std@@QEAAXPEAUArbSeg_t@@AEBU3@@Z 000000018000cb00 f i ArbReader.obj
 0001:0000bb30       ?_Myval@?$list@V?$list@UMarker_t@ArbReader@@V?$allocator@UMarker_t@ArbReader@@@std@@@std@@V?$allocator@V?$list@UMarker_t@ArbReader@@V?$allocator@UMarker_t@ArbReader@@@std@@@std@@@2@@std@@KAAEAV?$list@UMarker_t@ArbReader@@V?$allocator@UMarker_t@ArbReader@@@std@@@2@PEAU_Node@?$_List_nod@V?$list@UMarker_t@ArbReader@@V?$allocator@UMarker_t@ArbReader@@@std@@@std@@V?$allocator@V?$list@UMarker_t@ArbReader@@V?$allocator@UMarker_t@ArbReader@@@std@@@std@@@2@@2@@Z 000000018000cb30 f i ArbReader.obj
 0001:0000bb50       ?max_size@?$list@V?$list@UMarker_t@ArbReader@@V?$allocator@UMarker_t@ArbReader@@@std@@@std@@V?$allocator@V?$list@UMarker_t@ArbReader@@V?$allocator@UMarker_t@ArbReader@@@std@@@std@@@2@@std@@QEBA_KXZ 000000018000cb50 f i ArbReader.obj
 0001:0000bb80       ??0?$_List_nod@V?$list@UMarker_t@ArbReader@@V?$allocator@UMarker_t@ArbReader@@@std@@@std@@V?$allocator@V?$list@UMarker_t@ArbReader@@V?$allocator@UMarker_t@ArbReader@@@std@@@std@@@2@@std@@IEAA@V?$allocator@V?$list@UMarker_t@ArbReader@@V?$allocator@UMarker_t@ArbReader@@@std@@@std@@@1@@Z 000000018000cb80 f i ArbReader.obj
 0001:0000bbf0       ?construct@?$allocator@V?$list@UMarker_t@ArbReader@@V?$allocator@UMarker_t@ArbReader@@@std@@@std@@@std@@QEAAXPEAV?$list@UMarker_t@ArbReader@@V?$allocator@UMarker_t@ArbReader@@@std@@@2@AEBV32@@Z 000000018000cbf0 f i ArbReader.obj
 0001:0000bc20       ?max_size@?$list@UMarker_t@ArbReader@@V?$allocator@UMarker_t@ArbReader@@@std@@@std@@QEBA_KXZ 000000018000cc20 f i ArbReader.obj
 0001:0000bc50       ?_Orphan_ptr@?$list@UMarker_t@ArbReader@@V?$allocator@UMarker_t@ArbReader@@@std@@@std@@IEBAXAEAV12@PEAU_Node@?$_List_nod@UMarker_t@ArbReader@@V?$allocator@UMarker_t@ArbReader@@@std@@@2@@Z 000000018000cc50 f i ArbReader.obj
 0001:0000bd30       ??0?$_List_nod@UMarker_t@ArbReader@@V?$allocator@UMarker_t@ArbReader@@@std@@@std@@IEAA@V?$allocator@UMarker_t@ArbReader@@@1@@Z 000000018000cd30 f i ArbReader.obj
 0001:0000bda0       ?construct@?$allocator@UMarker_t@ArbReader@@@std@@QEAAXPEAUMarker_t@ArbReader@@AEBU34@@Z 000000018000cda0 f i ArbReader.obj
 0001:0000bdd0       ?destroy@?$allocator@U_Node@?$_List_nod@UMarker_t@ArbReader@@V?$allocator@UMarker_t@ArbReader@@@std@@@std@@@std@@QEAAXPEAU_Node@?$_List_nod@UMarker_t@ArbReader@@V?$allocator@UMarker_t@ArbReader@@@std@@@2@@Z 000000018000cdd0 f i ArbReader.obj
 0001:0000be00       ?max_size@?$vector@UData_t@ArbReader@@V?$allocator@UData_t@ArbReader@@@std@@@std@@QEBA_KXZ 000000018000ce00 f i ArbReader.obj
 0001:0000be30       ?_Destroy@?$vector@UData_t@ArbReader@@V?$allocator@UData_t@ArbReader@@@std@@@std@@IEAAXPEAUData_t@ArbReader@@0@Z 000000018000ce30 f i ArbReader.obj
 0001:0000be70       ?_Xlen@?$vector@UData_t@ArbReader@@V?$allocator@UData_t@ArbReader@@@std@@@std@@KAXXZ 000000018000ce70 f i ArbReader.obj
 0001:0000bef0       ?deallocate@?$allocator@UData_t@ArbReader@@@std@@QEAAXPEAUData_t@ArbReader@@_K@Z 000000018000cef0 f i ArbReader.obj
 0001:0000bf20       ?allocate@?$allocator@UData_t@ArbReader@@@std@@QEAAPEAUData_t@ArbReader@@_K@Z 000000018000cf20 f i ArbReader.obj
 0001:0000bf50       ??0?$_Vector_const_iterator@V?$vector@UData_t@ArbReader@@V?$allocator@UData_t@ArbReader@@@std@@@std@@V?$allocator@V?$vector@UData_t@ArbReader@@V?$allocator@UData_t@ArbReader@@@std@@@std@@@2@@std@@QEAA@PEAV?$vector@UData_t@ArbReader@@V?$allocator@UData_t@ArbReader@@@std@@@1@PEBV_Container_base_secure@1@@Z 000000018000cf50 f i ArbReader.obj
 0001:0000c060       ??Y?$_Vector_const_iterator@V?$vector@UData_t@ArbReader@@V?$allocator@UData_t@ArbReader@@@std@@@std@@V?$allocator@V?$vector@UData_t@ArbReader@@V?$allocator@UData_t@ArbReader@@@std@@@std@@@2@@std@@QEAAAEAV01@_J@Z 000000018000d060 f i ArbReader.obj
 0001:0000c200       ?_Getmycont@_Iterator_base@std@@QEBAPEBV_Container_base_secure@2@XZ 000000018000d200 f i ArbReader.obj
 0001:0000c220       ?_Has_container@_Iterator_base@std@@QEBA_NXZ 000000018000d220 f i ArbReader.obj
 0001:0000c260       ??Y?$_Vector_iterator@UData_t@ArbReader@@V?$allocator@UData_t@ArbReader@@@std@@@std@@QEAAAEAV01@_J@Z 000000018000d260 f i ArbReader.obj
 0001:0000c290       ??0?$_Vector_const_iterator@UData_t@ArbReader@@V?$allocator@UData_t@ArbReader@@@std@@@std@@QEAA@PEAUData_t@ArbReader@@PEBV_Container_base_secure@1@@Z 000000018000d290 f i ArbReader.obj
 0001:0000c3a0       ?_Compat@?$_Vector_const_iterator@UData_t@ArbReader@@V?$allocator@UData_t@ArbReader@@@std@@@std@@QEBAXAEBV12@@Z 000000018000d3a0 f i ArbReader.obj
 0001:0000c480       ??0?$_Ranit@V?$vector@UData_t@ArbReader@@V?$allocator@UData_t@ArbReader@@@std@@@std@@_JPEBV12@AEBV12@@std@@QEAA@XZ 000000018000d480 f i ArbReader.obj
 0001:0000c4b0       ??0?$_Ranit@UData_t@ArbReader@@_JPEBU12@AEBU12@@std@@QEAA@XZ 000000018000d4b0 f i ArbReader.obj
 0001:0000c4e0       ??0?$_Iterator_with_base@Urandom_access_iterator_tag@std@@V?$vector@UData_t@ArbReader@@V?$allocator@UData_t@ArbReader@@@std@@@2@_JPEBV32@AEBV32@V_Iterator_base@2@@std@@QEAA@XZ 000000018000d4e0 f i ArbReader.obj
 0001:0000c510       ??0?$_Iterator_with_base@Urandom_access_iterator_tag@std@@UData_t@ArbReader@@_JPEBU34@AEBU34@V_Iterator_base@2@@std@@QEAA@XZ 000000018000d510 f i ArbReader.obj
 0001:0000c540       ??0?$_Container_base_aux_alloc_empty@V?$allocator@USegHeader_t@ArbReader@@@std@@@std@@IEAA@V?$allocator@USegHeader_t@ArbReader@@@1@@Z 000000018000d540 f i ArbReader.obj
 0001:0000c570       ?max_size@?$allocator@USegHeader_t@ArbReader@@@std@@QEBA_KXZ 000000018000d570 f i ArbReader.obj
 0001:0000c5c0       ??0?$_Container_base_aux_alloc_empty@V?$allocator@UArbSeg_t@@@std@@@std@@IEAA@V?$allocator@UArbSeg_t@@@1@@Z 000000018000d5c0 f i ArbReader.obj
 0001:0000c5f0       ?max_size@?$allocator@UArbSeg_t@@@std@@QEBA_KXZ 000000018000d5f0 f i ArbReader.obj
 0001:0000c640       ??0?$_Container_base_aux_alloc_empty@V?$allocator@V?$list@UMarker_t@ArbReader@@V?$allocator@UMarker_t@ArbReader@@@std@@@std@@@std@@@std@@IEAA@V?$allocator@V?$list@UMarker_t@ArbReader@@V?$allocator@UMarker_t@ArbReader@@@std@@@std@@@1@@Z 000000018000d640 f i ArbReader.obj
 0001:0000c670       ?max_size@?$allocator@V?$list@UMarker_t@ArbReader@@V?$allocator@UMarker_t@ArbReader@@@std@@@std@@@std@@QEBA_KXZ 000000018000d670 f i ArbReader.obj
 0001:0000c6c0       ??0?$_Container_base_aux_alloc_empty@V?$allocator@UMarker_t@ArbReader@@@std@@@std@@IEAA@V?$allocator@UMarker_t@ArbReader@@@1@@Z 000000018000d6c0 f i ArbReader.obj
 0001:0000c6f0       ?max_size@?$allocator@UMarker_t@ArbReader@@@std@@QEBA_KXZ 000000018000d6f0 f i ArbReader.obj
 0001:0000c740       ?max_size@?$allocator@UData_t@ArbReader@@@std@@QEBA_KXZ 000000018000d740 f i ArbReader.obj
 0001:0000c790       ??Y?$_Vector_const_iterator@UData_t@ArbReader@@V?$allocator@UData_t@ArbReader@@@std@@@std@@QEAAAEAV01@_J@Z 000000018000d790 f i ArbReader.obj
 0001:0000c930       ??$assign@V?$_Const_iterator@$00@?$list@USegHeader_t@ArbReader@@V?$allocator@USegHeader_t@ArbReader@@@std@@@std@@@?$list@USegHeader_t@ArbReader@@V?$allocator@USegHeader_t@ArbReader@@@std@@@std@@QEAAXV?$_Const_iterator@$00@01@0@Z 000000018000d930 f i ArbReader.obj
 0001:0000ca30       ??$assign@V?$_Const_iterator@$00@?$list@UArbSeg_t@@V?$allocator@UArbSeg_t@@@std@@@std@@@?$list@UArbSeg_t@@V?$allocator@UArbSeg_t@@@std@@@std@@QEAAXV?$_Const_iterator@$00@01@0@Z 000000018000da30 f i ArbReader.obj
 0001:0000cb30       ??$assign@V?$_Const_iterator@$00@?$list@V?$list@UMarker_t@ArbReader@@V?$allocator@UMarker_t@ArbReader@@@std@@@std@@V?$allocator@V?$list@UMarker_t@ArbReader@@V?$allocator@UMarker_t@ArbReader@@@std@@@std@@@2@@std@@@?$list@V?$list@UMarker_t@ArbReader@@V?$allocator@UMarker_t@ArbReader@@@std@@@std@@V?$allocator@V?$list@UMarker_t@ArbReader@@V?$allocator@UMarker_t@ArbReader@@@std@@@std@@@2@@std@@QEAAXV?$_Const_iterator@$00@01@0@Z 000000018000db30 f i ArbReader.obj
 0001:0000cc30       ??$_Destroy@U_Node@?$_List_nod@USegHeader_t@ArbReader@@V?$allocator@USegHeader_t@ArbReader@@@std@@@std@@@std@@YAXPEAU_Node@?$_List_nod@USegHeader_t@ArbReader@@V?$allocator@USegHeader_t@ArbReader@@@std@@@0@@Z 000000018000dc30 f i ArbReader.obj
 0001:0000cc40       ??$_Destroy@U_Node@?$_List_nod@UArbSeg_t@@V?$allocator@UArbSeg_t@@@std@@@std@@@std@@YAXPEAU_Node@?$_List_nod@UArbSeg_t@@V?$allocator@UArbSeg_t@@@std@@@0@@Z 000000018000dc40 f i ArbReader.obj
 0001:0000cc50       ??$_Destroy@U_Node@?$_List_nod@V?$list@UMarker_t@ArbReader@@V?$allocator@UMarker_t@ArbReader@@@std@@@std@@V?$allocator@V?$list@UMarker_t@ArbReader@@V?$allocator@UMarker_t@ArbReader@@@std@@@std@@@2@@std@@@std@@YAXPEAU_Node@?$_List_nod@V?$list@UMarker_t@ArbReader@@V?$allocator@UMarker_t@ArbReader@@@std@@@std@@V?$allocator@V?$list@UMarker_t@ArbReader@@V?$allocator@UMarker_t@ArbReader@@@std@@@std@@@2@@0@@Z 000000018000dc50 f i ArbReader.obj
 0001:0000cc70       ??$unchecked_uninitialized_fill_n@PEAUData_t@ArbReader@@_KU12@V?$allocator@UData_t@ArbReader@@@std@@@stdext@@YAXPEAUData_t@ArbReader@@_KAEBU12@AEAV?$allocator@UData_t@ArbReader@@@std@@@Z 000000018000dc70 f i ArbReader.obj
 0001:0000cd00       ??$?0USegHeader_t@ArbReader@@@?$allocator@PEAU_Node@?$_List_nod@USegHeader_t@ArbReader@@V?$allocator@USegHeader_t@ArbReader@@@std@@@std@@@std@@QEAA@AEBV?$allocator@USegHeader_t@ArbReader@@@1@@Z 000000018000dd00 f i ArbReader.obj
 0001:0000cd20       ??$_Allocate@U_Node@?$_List_nod@USegHeader_t@ArbReader@@V?$allocator@USegHeader_t@ArbReader@@@std@@@std@@@std@@YAPEAU_Node@?$_List_nod@USegHeader_t@ArbReader@@V?$allocator@USegHeader_t@ArbReader@@@std@@@0@_KPEAU120@@Z 000000018000dd20 f i ArbReader.obj
 0001:0000cdb0       ??0bad_alloc@std@@QEAA@PEBD@Z 000000018000ddb0 f i ArbReader.obj
 0001:0000ce00       ??1bad_alloc@std@@UEAA@XZ  000000018000de00 f i ArbReader.obj
 0001:0000ce40       ??_Gbad_alloc@std@@UEAAPEAXI@Z 000000018000de40 f i ArbReader.obj
 0001:0000ce40       ??_Ebad_alloc@std@@UEAAPEAXI@Z 000000018000de40 f i ArbReader.obj
 0001:0000ce90       ??$_Construct@PEAU_Node@?$_List_nod@USegHeader_t@ArbReader@@V?$allocator@USegHeader_t@ArbReader@@@std@@@std@@PEAU123@@std@@YAXPEAPEAU_Node@?$_List_nod@USegHeader_t@ArbReader@@V?$allocator@USegHeader_t@ArbReader@@@std@@@0@AEBQEAU120@@Z 000000018000de90 f i ArbReader.obj
 0001:0000cf10       ??2@YAPEAX_KPEAX@Z         000000018000df10 f i ArbReader.obj
 0001:0000cf30       ??$_Destroy@PEAU_Node@?$_List_nod@USegHeader_t@ArbReader@@V?$allocator@USegHeader_t@ArbReader@@@std@@@std@@@std@@YAXPEAPEAU_Node@?$_List_nod@USegHeader_t@ArbReader@@V?$allocator@USegHeader_t@ArbReader@@@std@@@0@@Z 000000018000df30 f i ArbReader.obj
 0001:0000cf40       ??$?0UArbSeg_t@@@?$allocator@PEAU_Node@?$_List_nod@UArbSeg_t@@V?$allocator@UArbSeg_t@@@std@@@std@@@std@@QEAA@AEBV?$allocator@UArbSeg_t@@@1@@Z 000000018000df40 f i ArbReader.obj
 0001:0000cf60       ??$_Allocate@U_Node@?$_List_nod@UArbSeg_t@@V?$allocator@UArbSeg_t@@@std@@@std@@@std@@YAPEAU_Node@?$_List_nod@UArbSeg_t@@V?$allocator@UArbSeg_t@@@std@@@0@_KPEAU120@@Z 000000018000df60 f i ArbReader.obj
 0001:0000cff0       ??$_Construct@PEAU_Node@?$_List_nod@UArbSeg_t@@V?$allocator@UArbSeg_t@@@std@@@std@@PEAU123@@std@@YAXPEAPEAU_Node@?$_List_nod@UArbSeg_t@@V?$allocator@UArbSeg_t@@@std@@@0@AEBQEAU120@@Z 000000018000dff0 f i ArbReader.obj
 0001:0000d070       ??$_Destroy@PEAU_Node@?$_List_nod@UArbSeg_t@@V?$allocator@UArbSeg_t@@@std@@@std@@@std@@YAXPEAPEAU_Node@?$_List_nod@UArbSeg_t@@V?$allocator@UArbSeg_t@@@std@@@0@@Z 000000018000e070 f i ArbReader.obj
 0001:0000d080       ??$?0V?$list@UMarker_t@ArbReader@@V?$allocator@UMarker_t@ArbReader@@@std@@@std@@@?$allocator@PEAU_Node@?$_List_nod@V?$list@UMarker_t@ArbReader@@V?$allocator@UMarker_t@ArbReader@@@std@@@std@@V?$allocator@V?$list@UMarker_t@ArbReader@@V?$allocator@UMarker_t@ArbReader@@@std@@@std@@@2@@std@@@std@@QEAA@AEBV?$allocator@V?$list@UMarker_t@ArbReader@@V?$allocator@UMarker_t@ArbReader@@@std@@@std@@@1@@Z 000000018000e080 f i ArbReader.obj
 0001:0000d0a0       ??$_Allocate@U_Node@?$_List_nod@V?$list@UMarker_t@ArbReader@@V?$allocator@UMarker_t@ArbReader@@@std@@@std@@V?$allocator@V?$list@UMarker_t@ArbReader@@V?$allocator@UMarker_t@ArbReader@@@std@@@std@@@2@@std@@@std@@YAPEAU_Node@?$_List_nod@V?$list@UMarker_t@ArbReader@@V?$allocator@UMarker_t@ArbReader@@@std@@@std@@V?$allocator@V?$list@UMarker_t@ArbReader@@V?$allocator@UMarker_t@ArbReader@@@std@@@std@@@2@@0@_KPEAU120@@Z 000000018000e0a0 f i ArbReader.obj
 0001:0000d120       ??$_Construct@PEAU_Node@?$_List_nod@V?$list@UMarker_t@ArbReader@@V?$allocator@UMarker_t@ArbReader@@@std@@@std@@V?$allocator@V?$list@UMarker_t@ArbReader@@V?$allocator@UMarker_t@ArbReader@@@std@@@std@@@2@@std@@PEAU123@@std@@YAXPEAPEAU_Node@?$_List_nod@V?$list@UMarker_t@ArbReader@@V?$allocator@UMarker_t@ArbReader@@@std@@@std@@V?$allocator@V?$list@UMarker_t@ArbReader@@V?$allocator@UMarker_t@ArbReader@@@std@@@std@@@2@@0@AEBQEAU120@@Z 000000018000e120 f i ArbReader.obj
 0001:0000d1a0       ??$_Destroy@PEAU_Node@?$_List_nod@V?$list@UMarker_t@ArbReader@@V?$allocator@UMarker_t@ArbReader@@@std@@@std@@V?$allocator@V?$list@UMarker_t@ArbReader@@V?$allocator@UMarker_t@ArbReader@@@std@@@std@@@2@@std@@@std@@YAXPEAPEAU_Node@?$_List_nod@V?$list@UMarker_t@ArbReader@@V?$allocator@UMarker_t@ArbReader@@@std@@@std@@V?$allocator@V?$list@UMarker_t@ArbReader@@V?$allocator@UMarker_t@ArbReader@@@std@@@std@@@2@@0@@Z 000000018000e1a0 f i ArbReader.obj
 0001:0000d1b0       ??$?0UMarker_t@ArbReader@@@?$allocator@PEAU_Node@?$_List_nod@UMarker_t@ArbReader@@V?$allocator@UMarker_t@ArbReader@@@std@@@std@@@std@@QEAA@AEBV?$allocator@UMarker_t@ArbReader@@@1@@Z 000000018000e1b0 f i ArbReader.obj
 0001:0000d1d0       ??$_Allocate@U_Node@?$_List_nod@UMarker_t@ArbReader@@V?$allocator@UMarker_t@ArbReader@@@std@@@std@@@std@@YAPEAU_Node@?$_List_nod@UMarker_t@ArbReader@@V?$allocator@UMarker_t@ArbReader@@@std@@@0@_KPEAU120@@Z 000000018000e1d0 f i ArbReader.obj
 0001:0000d260       ??$_Construct@PEAU_Node@?$_List_nod@UMarker_t@ArbReader@@V?$allocator@UMarker_t@ArbReader@@@std@@@std@@PEAU123@@std@@YAXPEAPEAU_Node@?$_List_nod@UMarker_t@ArbReader@@V?$allocator@UMarker_t@ArbReader@@@std@@@0@AEBQEAU120@@Z 000000018000e260 f i ArbReader.obj
 0001:0000d2e0       ??$_Destroy@PEAU_Node@?$_List_nod@UMarker_t@ArbReader@@V?$allocator@UMarker_t@ArbReader@@@std@@@std@@@std@@YAXPEAPEAU_Node@?$_List_nod@UMarker_t@ArbReader@@V?$allocator@UMarker_t@ArbReader@@@std@@@0@@Z 000000018000e2e0 f i ArbReader.obj
 0001:0000d2f0       ??$_Umove@PEAUData_t@ArbReader@@@?$vector@UData_t@ArbReader@@V?$allocator@UData_t@ArbReader@@@std@@@std@@IEAAPEAUData_t@ArbReader@@PEAU23@00@Z 000000018000e2f0 f i ArbReader.obj
 0001:0000d340       ??$fill@PEAUData_t@ArbReader@@U12@@std@@YAXPEAUData_t@ArbReader@@0AEBU12@@Z 000000018000e340 f i ArbReader.obj
 0001:0000d3a0       ??$_Unchecked_move_backward@PEAUData_t@ArbReader@@PEAU12@@stdext@@YAPEAUData_t@ArbReader@@PEAU12@00@Z 000000018000e3a0 f i ArbReader.obj
 0001:0000d450       ??$?0USegHeader_t@ArbReader@@@?$allocator@U_Node@?$_List_nod@USegHeader_t@ArbReader@@V?$allocator@USegHeader_t@ArbReader@@@std@@@std@@@std@@QEAA@AEBV?$allocator@USegHeader_t@ArbReader@@@1@@Z 000000018000e450 f i ArbReader.obj
 0001:0000d470       ??$_Construct@USegHeader_t@ArbReader@@U12@@std@@YAXPEAUSegHeader_t@ArbReader@@AEBU12@@Z 000000018000e470 f i ArbReader.obj
 0001:0000d520       ??$?0UArbSeg_t@@@?$allocator@U_Node@?$_List_nod@UArbSeg_t@@V?$allocator@UArbSeg_t@@@std@@@std@@@std@@QEAA@AEBV?$allocator@UArbSeg_t@@@1@@Z 000000018000e520 f i ArbReader.obj
 0001:0000d540       ??$_Construct@UArbSeg_t@@U1@@std@@YAXPEAUArbSeg_t@@AEBU1@@Z 000000018000e540 f i ArbReader.obj
 0001:0000d5c0       ??$?0V?$list@UMarker_t@ArbReader@@V?$allocator@UMarker_t@ArbReader@@@std@@@std@@@?$allocator@U_Node@?$_List_nod@V?$list@UMarker_t@ArbReader@@V?$allocator@UMarker_t@ArbReader@@@std@@@std@@V?$allocator@V?$list@UMarker_t@ArbReader@@V?$allocator@UMarker_t@ArbReader@@@std@@@std@@@2@@std@@@std@@QEAA@AEBV?$allocator@V?$list@UMarker_t@ArbReader@@V?$allocator@UMarker_t@ArbReader@@@std@@@std@@@1@@Z 000000018000e5c0 f i ArbReader.obj
 0001:0000d5e0       ??$_Construct@V?$list@UMarker_t@ArbReader@@V?$allocator@UMarker_t@ArbReader@@@std@@@std@@V12@@std@@YAXPEAV?$list@UMarker_t@ArbReader@@V?$allocator@UMarker_t@ArbReader@@@std@@@0@AEBV10@@Z 000000018000e5e0 f i ArbReader.obj
 0001:0000d670       ??3@YAXPEAX0@Z             000000018000e670 f i ArbReader.obj
 0001:0000d680       ??$?0UMarker_t@ArbReader@@@?$allocator@U_Node@?$_List_nod@UMarker_t@ArbReader@@V?$allocator@UMarker_t@ArbReader@@@std@@@std@@@std@@QEAA@AEBV?$allocator@UMarker_t@ArbReader@@@1@@Z 000000018000e680 f i ArbReader.obj
 0001:0000d6a0       ??$_Construct@UMarker_t@ArbReader@@U12@@std@@YAXPEAUMarker_t@ArbReader@@AEBU12@@Z 000000018000e6a0 f i ArbReader.obj
 0001:0000d720       ??$_Destroy@U_Node@?$_List_nod@UMarker_t@ArbReader@@V?$allocator@UMarker_t@ArbReader@@@std@@@std@@@std@@YAXPEAU_Node@?$_List_nod@UMarker_t@ArbReader@@V?$allocator@UMarker_t@ArbReader@@@std@@@0@@Z 000000018000e720 f i ArbReader.obj
 0001:0000d730       ??$_Destroy_range@V?$allocator@UData_t@ArbReader@@@std@@@std@@YAXPEAUData_t@ArbReader@@0AEAV?$allocator@UData_t@ArbReader@@@0@@Z 000000018000e730 f i ArbReader.obj
 0001:0000d790       ??$_Allocate@UData_t@ArbReader@@@std@@YAPEAUData_t@ArbReader@@_KPEAU12@@Z 000000018000e790 f i ArbReader.obj
 0001:0000d810       ??_G_Node@?$_List_nod@V?$list@UMarker_t@ArbReader@@V?$allocator@UMarker_t@ArbReader@@@std@@@std@@V?$allocator@V?$list@UMarker_t@ArbReader@@V?$allocator@UMarker_t@ArbReader@@@std@@@std@@@2@@std@@QEAAPEAXI@Z 000000018000e810 f i ArbReader.obj
 0001:0000d860       ??0bad_alloc@std@@QEAA@AEBV01@@Z 000000018000e860 f i ArbReader.obj
 0001:0000d8b0       ??1_Node@?$_List_nod@V?$list@UMarker_t@ArbReader@@V?$allocator@UMarker_t@ArbReader@@@std@@@std@@V?$allocator@V?$list@UMarker_t@ArbReader@@V?$allocator@UMarker_t@ArbReader@@@std@@@std@@@2@@std@@QEAA@XZ 000000018000e8b0 f i ArbReader.obj
 0001:0000d8e0       ??0?$list@UMarker_t@ArbReader@@V?$allocator@UMarker_t@ArbReader@@@std@@@std@@QEAA@AEBV01@@Z 000000018000e8e0 f i ArbReader.obj
 0001:0000dac0       ?begin@?$list@UMarker_t@ArbReader@@V?$allocator@UMarker_t@ArbReader@@@std@@@std@@QEBA?AV?$_Const_iterator@$00@12@XZ 000000018000eac0 f i ArbReader.obj
 0001:0000db20       ?end@?$list@UMarker_t@ArbReader@@V?$allocator@UMarker_t@ArbReader@@@std@@@std@@QEBA?AV?$_Const_iterator@$00@12@XZ 000000018000eb20 f i ArbReader.obj
 0001:0000db80       ??$_Iter_cat@V?$_Const_iterator@$00@?$list@USegHeader_t@ArbReader@@V?$allocator@USegHeader_t@ArbReader@@@std@@@std@@@std@@YA?AUbidirectional_iterator_tag@0@AEBV?$_Const_iterator@$00@?$list@USegHeader_t@ArbReader@@V?$allocator@USegHeader_t@ArbReader@@@std@@@0@@Z 000000018000eb80 f i ArbReader.obj
 0001:0000dba0       ??$_Assign@V?$_Const_iterator@$00@?$list@USegHeader_t@ArbReader@@V?$allocator@USegHeader_t@ArbReader@@@std@@@std@@@?$list@USegHeader_t@ArbReader@@V?$allocator@USegHeader_t@ArbReader@@@std@@@std@@QEAAXV?$_Const_iterator@$00@01@0Uinput_iterator_tag@1@@Z 000000018000eba0 f i ArbReader.obj
 0001:0000dd40       ??$_Iter_cat@V?$_Const_iterator@$00@?$list@UArbSeg_t@@V?$allocator@UArbSeg_t@@@std@@@std@@@std@@YA?AUbidirectional_iterator_tag@0@AEBV?$_Const_iterator@$00@?$list@UArbSeg_t@@V?$allocator@UArbSeg_t@@@std@@@0@@Z 000000018000ed40 f i ArbReader.obj
 0001:0000dd60       ??$_Assign@V?$_Const_iterator@$00@?$list@UArbSeg_t@@V?$allocator@UArbSeg_t@@@std@@@std@@@?$list@UArbSeg_t@@V?$allocator@UArbSeg_t@@@std@@@std@@QEAAXV?$_Const_iterator@$00@01@0Uinput_iterator_tag@1@@Z 000000018000ed60 f i ArbReader.obj
 0001:0000df00       ??$_Iter_cat@V?$_Const_iterator@$00@?$list@V?$list@UMarker_t@ArbReader@@V?$allocator@UMarker_t@ArbReader@@@std@@@std@@V?$allocator@V?$list@UMarker_t@ArbReader@@V?$allocator@UMarker_t@ArbReader@@@std@@@std@@@2@@std@@@std@@YA?AUbidirectional_iterator_tag@0@AEBV?$_Const_iterator@$00@?$list@V?$list@UMarker_t@ArbReader@@V?$allocator@UMarker_t@ArbReader@@@std@@@std@@V?$allocator@V?$list@UMarker_t@ArbReader@@V?$allocator@UMarker_t@ArbReader@@@std@@@std@@@2@@0@@Z 000000018000ef00 f i ArbReader.obj
 0001:0000df20       ??$_Assign@V?$_Const_iterator@$00@?$list@V?$list@UMarker_t@ArbReader@@V?$allocator@UMarker_t@ArbReader@@@std@@@std@@V?$allocator@V?$list@UMarker_t@ArbReader@@V?$allocator@UMarker_t@ArbReader@@@std@@@std@@@2@@std@@@?$list@V?$list@UMarker_t@ArbReader@@V?$allocator@UMarker_t@ArbReader@@@std@@@std@@V?$allocator@V?$list@UMarker_t@ArbReader@@V?$allocator@UMarker_t@ArbReader@@@std@@@std@@@2@@std@@QEAAXV?$_Const_iterator@$00@01@0Uinput_iterator_tag@1@@Z 000000018000ef20 f i ArbReader.obj
 0001:0000e0c0       ??$_Ptr_cat@PEAUData_t@ArbReader@@PEAU12@@std@@YA?AU_Nonscalar_ptr_iterator_tag@0@AEAPEAUData_t@ArbReader@@0@Z 000000018000f0c0 f i ArbReader.obj
 0001:0000e0e0       ??$_Uninit_fill_n@PEAUData_t@ArbReader@@_KU12@V?$allocator@UData_t@ArbReader@@@std@@@std@@YAXPEAUData_t@ArbReader@@_KAEBU12@AEAV?$allocator@UData_t@ArbReader@@@0@U_Nonscalar_ptr_iterator_tag@0@U_Range_checked_iterator_tag@0@@Z 000000018000f0e0 f i ArbReader.obj
 0001:0000e170       ??$_Unchecked_uninitialized_move@PEAUData_t@ArbReader@@PEAU12@V?$allocator@UData_t@ArbReader@@@std@@@stdext@@YAPEAUData_t@ArbReader@@PEAU12@00AEAV?$allocator@UData_t@ArbReader@@@std@@@Z 000000018000f170 f i ArbReader.obj
 0001:0000e210       ??$_Checked_base@PEAUData_t@ArbReader@@@std@@YAPEAUData_t@ArbReader@@AEAPEAU12@@Z 000000018000f210 f i ArbReader.obj
 0001:0000e240       ??$_Fill@PEAUData_t@ArbReader@@U12@@std@@YAXPEAUData_t@ArbReader@@0AEBU12@@Z 000000018000f240 f i ArbReader.obj
 0001:0000e2c0       ??$_Iter_random@PEAUData_t@ArbReader@@PEAU12@@std@@YA?AUrandom_access_iterator_tag@0@AEBQEAUData_t@ArbReader@@0@Z 000000018000f2c0 f i ArbReader.obj
 0001:0000e2f0       ??$_Move_cat@PEAUData_t@ArbReader@@@std@@YA?AU_Undefined_move_tag@0@AEBQEAUData_t@ArbReader@@@Z 000000018000f2f0 f i ArbReader.obj
 0001:0000e310       ??$_Move_backward_opt@PEAUData_t@ArbReader@@PEAU12@Urandom_access_iterator_tag@std@@U_Undefined_move_tag@4@@std@@YAPEAUData_t@ArbReader@@PEAU12@00Urandom_access_iterator_tag@0@U_Undefined_move_tag@0@U_Range_checked_iterator_tag@0@@Z 000000018000f310 f i ArbReader.obj
 0001:0000e3a0       ??$_Destroy_range@V?$allocator@UData_t@ArbReader@@@std@@@std@@YAXPEAUData_t@ArbReader@@0AEAV?$allocator@UData_t@ArbReader@@@0@U_Nonscalar_ptr_iterator_tag@0@@Z 000000018000f3a0 f i ArbReader.obj
 0001:0000e400       ??$insert@V?$_Const_iterator@$00@?$list@UMarker_t@ArbReader@@V?$allocator@UMarker_t@ArbReader@@@std@@@std@@@?$list@UMarker_t@ArbReader@@V?$allocator@UMarker_t@ArbReader@@@std@@@std@@QEAAXV?$_Const_iterator@$00@01@00@Z 000000018000f400 f i ArbReader.obj
 0001:0000e580       ?begin@?$list@UArbSeg_t@@V?$allocator@UArbSeg_t@@@std@@@std@@QEAA?AV?$_Iterator@$00@12@XZ 000000018000f580 f i ArbReader.obj
 0001:0000e5e0       ?construct@?$allocator@UData_t@ArbReader@@@std@@QEAAXPEAUData_t@ArbReader@@AEBU34@@Z 000000018000f5e0 f i ArbReader.obj
 0001:0000e610       ?destroy@?$allocator@UData_t@ArbReader@@@std@@QEAAXPEAUData_t@ArbReader@@@Z 000000018000f610 f i ArbReader.obj
 0001:0000e640       ??$insert@V?$_Const_iterator@$00@?$list@USegHeader_t@ArbReader@@V?$allocator@USegHeader_t@ArbReader@@@std@@@std@@@?$list@USegHeader_t@ArbReader@@V?$allocator@USegHeader_t@ArbReader@@@std@@@std@@QEAAXV?$_Const_iterator@$00@01@00@Z 000000018000f640 f i ArbReader.obj
 0001:0000e7c0       ??$insert@V?$_Const_iterator@$00@?$list@UArbSeg_t@@V?$allocator@UArbSeg_t@@@std@@@std@@@?$list@UArbSeg_t@@V?$allocator@UArbSeg_t@@@std@@@std@@QEAAXV?$_Const_iterator@$00@01@00@Z 000000018000f7c0 f i ArbReader.obj
 0001:0000e940       ??$insert@V?$_Const_iterator@$00@?$list@V?$list@UMarker_t@ArbReader@@V?$allocator@UMarker_t@ArbReader@@@std@@@std@@V?$allocator@V?$list@UMarker_t@ArbReader@@V?$allocator@UMarker_t@ArbReader@@@std@@@std@@@2@@std@@@?$list@V?$list@UMarker_t@ArbReader@@V?$allocator@UMarker_t@ArbReader@@@std@@@std@@V?$allocator@V?$list@UMarker_t@ArbReader@@V?$allocator@UMarker_t@ArbReader@@@std@@@std@@@2@@std@@QEAAXV?$_Const_iterator@$00@01@00@Z 000000018000f940 f i ArbReader.obj
 0001:0000eac0       ??$_Uninit_move@PEAUData_t@ArbReader@@PEAU12@V?$allocator@UData_t@ArbReader@@@std@@U_Undefined_move_tag@4@@std@@YAPEAUData_t@ArbReader@@PEAU12@00AEAV?$allocator@UData_t@ArbReader@@@0@U_Undefined_move_tag@0@U_Range_checked_iterator_tag@0@@Z 000000018000fac0 f i ArbReader.obj
 0001:0000eb10       ??$_Checked_base@PEAUData_t@ArbReader@@@std@@YAPEAUData_t@ArbReader@@AEAPEAU12@U_Unchanged_checked_iterator_base_type_tag@0@@Z 000000018000fb10 f i ArbReader.obj
 0001:0000eb30       ??$_Debug_range@PEAUData_t@ArbReader@@@std@@YAXPEAUData_t@ArbReader@@0PEB_WI@Z 000000018000fb30 f i ArbReader.obj
 0001:0000eb90       ??$_Copy_backward_opt@PEAUData_t@ArbReader@@PEAU12@@std@@YAPEAUData_t@ArbReader@@PEAU12@00Urandom_access_iterator_tag@0@U_Nonscalar_ptr_iterator_tag@0@U_Range_checked_iterator_tag@0@@Z 000000018000fb90 f i ArbReader.obj
 0001:0000ec50       ??$_Iter_cat@V?$_Const_iterator@$00@?$list@UMarker_t@ArbReader@@V?$allocator@UMarker_t@ArbReader@@@std@@@std@@@std@@YA?AUbidirectional_iterator_tag@0@AEBV?$_Const_iterator@$00@?$list@UMarker_t@ArbReader@@V?$allocator@UMarker_t@ArbReader@@@std@@@0@@Z 000000018000fc50 f i ArbReader.obj
 0001:0000ec70       ??$_Insert@V?$_Const_iterator@$00@?$list@UMarker_t@ArbReader@@V?$allocator@UMarker_t@ArbReader@@@std@@@std@@@?$list@UMarker_t@ArbReader@@V?$allocator@UMarker_t@ArbReader@@@std@@@std@@QEAAXV?$_Const_iterator@$00@01@00Uforward_iterator_tag@1@@Z 000000018000fc70 f i ArbReader.obj
 0001:0000ee70       ??$_Construct@UData_t@ArbReader@@U12@@std@@YAXPEAUData_t@ArbReader@@AEBU12@@Z 000000018000fe70 f i ArbReader.obj
 0001:0000eef0       ??$_Destroy@UData_t@ArbReader@@@std@@YAXPEAUData_t@ArbReader@@@Z 000000018000fef0 f i ArbReader.obj
 0001:0000ef00       ?erase@?$list@UMarker_t@ArbReader@@V?$allocator@UMarker_t@ArbReader@@@std@@@std@@QEAA?AV?$_Iterator@$00@12@V?$_Const_iterator@$00@12@@Z 000000018000ff00 f i ArbReader.obj
 0001:0000f170       ??F?$_Const_iterator@$00@?$list@UMarker_t@ArbReader@@V?$allocator@UMarker_t@ArbReader@@@std@@@std@@QEAAAEAV012@XZ 0000000180010170 f i ArbReader.obj
 0001:0000f290       ?_Make_iter@?$list@UMarker_t@ArbReader@@V?$allocator@UMarker_t@ArbReader@@@std@@@std@@QEBA?AV?$_Iterator@$00@12@V?$_Const_iterator@$00@12@@Z 0000000180010290 f i ArbReader.obj
 0001:0000f310       ??$_Insert@V?$_Const_iterator@$00@?$list@USegHeader_t@ArbReader@@V?$allocator@USegHeader_t@ArbReader@@@std@@@std@@@?$list@USegHeader_t@ArbReader@@V?$allocator@USegHeader_t@ArbReader@@@std@@@std@@QEAAXV?$_Const_iterator@$00@01@00Uforward_iterator_tag@1@@Z 0000000180010310 f i ArbReader.obj
 0001:0000f510       ??$_Insert@V?$_Const_iterator@$00@?$list@UArbSeg_t@@V?$allocator@UArbSeg_t@@@std@@@std@@@?$list@UArbSeg_t@@V?$allocator@UArbSeg_t@@@std@@@std@@QEAAXV?$_Const_iterator@$00@01@00Uforward_iterator_tag@1@@Z 0000000180010510 f i ArbReader.obj
 0001:0000f710       ??$_Insert@V?$_Const_iterator@$00@?$list@V?$list@UMarker_t@ArbReader@@V?$allocator@UMarker_t@ArbReader@@@std@@@std@@V?$allocator@V?$list@UMarker_t@ArbReader@@V?$allocator@UMarker_t@ArbReader@@@std@@@std@@@2@@std@@@?$list@V?$list@UMarker_t@ArbReader@@V?$allocator@UMarker_t@ArbReader@@@std@@@std@@V?$allocator@V?$list@UMarker_t@ArbReader@@V?$allocator@UMarker_t@ArbReader@@@std@@@std@@@2@@std@@QEAAXV?$_Const_iterator@$00@01@00Uforward_iterator_tag@1@@Z 0000000180010710 f i ArbReader.obj
 0001:0000f910       ??$unchecked_uninitialized_copy@PEAUData_t@ArbReader@@PEAU12@V?$allocator@UData_t@ArbReader@@@std@@@stdext@@YAPEAUData_t@ArbReader@@PEAU12@00AEAV?$allocator@UData_t@ArbReader@@@std@@@Z 0000000180010910 f i ArbReader.obj
 0001:0000f9b0       ??$_Iter_cat@PEAUData_t@ArbReader@@@std@@YA?AUrandom_access_iterator_tag@0@AEBQEAUData_t@ArbReader@@@Z 00000001800109b0 f i ArbReader.obj
 0001:0000f9d0       ??$_Debug_range2@PEAUData_t@ArbReader@@@std@@YAXPEAUData_t@ArbReader@@0PEB_WIUrandom_access_iterator_tag@0@@Z 00000001800109d0 f i ArbReader.obj
 0001:0000fa70       ??$_Copy_backward_opt@PEAUData_t@ArbReader@@PEAU12@Uforward_iterator_tag@std@@@std@@YAPEAUData_t@ArbReader@@PEAU12@00Uforward_iterator_tag@0@U_Nonscalar_ptr_iterator_tag@0@U_Range_checked_iterator_tag@0@@Z 0000000180010a70 f i ArbReader.obj
 0001:0000fb10       ??$_Debug_range@V?$_Const_iterator@$00@?$list@UMarker_t@ArbReader@@V?$allocator@UMarker_t@ArbReader@@@std@@@std@@@std@@YAXV?$_Const_iterator@$00@?$list@UMarker_t@ArbReader@@V?$allocator@UMarker_t@ArbReader@@@std@@@0@0PEB_WI@Z 0000000180010b10 f i ArbReader.obj
 0001:0000fc30       ?erase@?$list@USegHeader_t@ArbReader@@V?$allocator@USegHeader_t@ArbReader@@@std@@@std@@QEAA?AV?$_Iterator@$00@12@V?$_Const_iterator@$00@12@@Z 0000000180010c30 f i ArbReader.obj
 0001:0000fea0       ?erase@?$list@UArbSeg_t@@V?$allocator@UArbSeg_t@@@std@@@std@@QEAA?AV?$_Iterator@$00@12@V?$_Const_iterator@$00@12@@Z 0000000180010ea0 f i ArbReader.obj
 0001:00010110       ?erase@?$list@V?$list@UMarker_t@ArbReader@@V?$allocator@UMarker_t@ArbReader@@@std@@@std@@V?$allocator@V?$list@UMarker_t@ArbReader@@V?$allocator@UMarker_t@ArbReader@@@std@@@std@@@2@@std@@QEAA?AV?$_Iterator@$00@12@V?$_Const_iterator@$00@12@@Z 0000000180011110 f i ArbReader.obj
 0001:00010380       ??F?$_Const_iterator@$00@?$list@USegHeader_t@ArbReader@@V?$allocator@USegHeader_t@ArbReader@@@std@@@std@@QEAAAEAV012@XZ 0000000180011380 f i ArbReader.obj
 0001:000104a0       ??F?$_Const_iterator@$00@?$list@V?$list@UMarker_t@ArbReader@@V?$allocator@UMarker_t@ArbReader@@@std@@@std@@V?$allocator@V?$list@UMarker_t@ArbReader@@V?$allocator@UMarker_t@ArbReader@@@std@@@std@@@2@@std@@QEAAAEAV012@XZ 00000001800114a0 f i ArbReader.obj
 0001:000105c0       ??9?$_Const_iterator@$00@?$list@V?$list@UMarker_t@ArbReader@@V?$allocator@UMarker_t@ArbReader@@@std@@@std@@V?$allocator@V?$list@UMarker_t@ArbReader@@V?$allocator@UMarker_t@ArbReader@@@std@@@std@@@2@@std@@QEBA_NAEBV012@@Z 00000001800115c0 f i ArbReader.obj
 0001:00010610       ??D?$_Const_iterator@$00@?$list@UArbSeg_t@@V?$allocator@UArbSeg_t@@@std@@@std@@QEBAAEBUArbSeg_t@@XZ 0000000180011610 f i ArbReader.obj
 0001:00010720       ??E?$_Const_iterator@$00@?$list@UArbSeg_t@@V?$allocator@UArbSeg_t@@@std@@@std@@QEAAAEAV012@XZ 0000000180011720 f i ArbReader.obj
 0001:00010840       ??F?$_Const_iterator@$00@?$list@UArbSeg_t@@V?$allocator@UArbSeg_t@@@std@@@std@@QEAAAEAV012@XZ 0000000180011840 f i ArbReader.obj
 0001:00010960       ??9?$_Const_iterator@$00@?$list@UArbSeg_t@@V?$allocator@UArbSeg_t@@@std@@@std@@QEBA_NAEBV012@@Z 0000000180011960 f i ArbReader.obj
 0001:000109b0       ?_Make_iter@?$list@USegHeader_t@ArbReader@@V?$allocator@USegHeader_t@ArbReader@@@std@@@std@@QEBA?AV?$_Iterator@$00@12@V?$_Const_iterator@$00@12@@Z 00000001800119b0 f i ArbReader.obj
 0001:00010a30       ?_Make_iter@?$list@UArbSeg_t@@V?$allocator@UArbSeg_t@@@std@@@std@@QEBA?AV?$_Iterator@$00@12@V?$_Const_iterator@$00@12@@Z 0000000180011a30 f i ArbReader.obj
 0001:00010ab0       ?_Make_iter@?$list@V?$list@UMarker_t@ArbReader@@V?$allocator@UMarker_t@ArbReader@@@std@@@std@@V?$allocator@V?$list@UMarker_t@ArbReader@@V?$allocator@UMarker_t@ArbReader@@@std@@@std@@@2@@std@@QEBA?AV?$_Iterator@$00@12@V?$_Const_iterator@$00@12@@Z 0000000180011ab0 f i ArbReader.obj
 0001:00010b30       ??E?$_Const_iterator@$00@?$list@USegHeader_t@ArbReader@@V?$allocator@USegHeader_t@ArbReader@@@std@@@std@@QEAA?AV012@H@Z 0000000180011b30 f i ArbReader.obj
 0001:00010bc0       ??E?$_Const_iterator@$00@?$list@V?$list@UMarker_t@ArbReader@@V?$allocator@UMarker_t@ArbReader@@@std@@@std@@V?$allocator@V?$list@UMarker_t@ArbReader@@V?$allocator@UMarker_t@ArbReader@@@std@@@std@@@2@@std@@QEAA?AV012@H@Z 0000000180011bc0 f i ArbReader.obj
 0001:00010c50       ??8?$_Const_iterator@$00@?$list@V?$list@UMarker_t@ArbReader@@V?$allocator@UMarker_t@ArbReader@@@std@@@std@@V?$allocator@V?$list@UMarker_t@ArbReader@@V?$allocator@UMarker_t@ArbReader@@@std@@@std@@@2@@std@@QEBA_NAEBV012@@Z 0000000180011c50 f i ArbReader.obj
 0001:00010cb0       ??E?$_Const_iterator@$00@?$list@UArbSeg_t@@V?$allocator@UArbSeg_t@@@std@@@std@@QEAA?AV012@H@Z 0000000180011cb0 f i ArbReader.obj
 0001:00010d40       ??8?$_Const_iterator@$00@?$list@UArbSeg_t@@V?$allocator@UArbSeg_t@@@std@@@std@@QEBA_NAEBV012@@Z 0000000180011d40 f i ArbReader.obj
 0001:00010da0       ?_Compat@?$_Const_iterator@$00@?$list@V?$list@UMarker_t@ArbReader@@V?$allocator@UMarker_t@ArbReader@@@std@@@std@@V?$allocator@V?$list@UMarker_t@ArbReader@@V?$allocator@UMarker_t@ArbReader@@@std@@@std@@@2@@std@@QEBAXAEBV123@@Z 0000000180011da0 f i ArbReader.obj
 0001:00010e90       ?_Compat@?$_Const_iterator@$00@?$list@UArbSeg_t@@V?$allocator@UArbSeg_t@@@std@@@std@@QEBAXAEBV123@@Z 0000000180011e90 f i ArbReader.obj
 0001:00010f80       ??$_Debug_range@V?$_Const_iterator@$00@?$list@USegHeader_t@ArbReader@@V?$allocator@USegHeader_t@ArbReader@@@std@@@std@@@std@@YAXV?$_Const_iterator@$00@?$list@USegHeader_t@ArbReader@@V?$allocator@USegHeader_t@ArbReader@@@std@@@0@0PEB_WI@Z 0000000180011f80 f i ArbReader.obj
 0001:000110a0       ??$_Debug_range@V?$_Const_iterator@$00@?$list@UArbSeg_t@@V?$allocator@UArbSeg_t@@@std@@@std@@@std@@YAXV?$_Const_iterator@$00@?$list@UArbSeg_t@@V?$allocator@UArbSeg_t@@@std@@@0@0PEB_WI@Z 00000001800120a0 f i ArbReader.obj
 0001:000111c0       ??$_Debug_range@V?$_Const_iterator@$00@?$list@V?$list@UMarker_t@ArbReader@@V?$allocator@UMarker_t@ArbReader@@@std@@@std@@V?$allocator@V?$list@UMarker_t@ArbReader@@V?$allocator@UMarker_t@ArbReader@@@std@@@std@@@2@@std@@@std@@YAXV?$_Const_iterator@$00@?$list@V?$list@UMarker_t@ArbReader@@V?$allocator@UMarker_t@ArbReader@@@std@@@std@@V?$allocator@V?$list@UMarker_t@ArbReader@@V?$allocator@UMarker_t@ArbReader@@@std@@@std@@@2@@0@0PEB_WI@Z 00000001800121c0 f i ArbReader.obj
 0001:000112e0       ??$_Uninit_copy@PEAUData_t@ArbReader@@PEAU12@V?$allocator@UData_t@ArbReader@@@std@@@std@@YAPEAUData_t@ArbReader@@PEAU12@00AEAV?$allocator@UData_t@ArbReader@@@0@U_Nonscalar_ptr_iterator_tag@0@U_Range_checked_iterator_tag@0@@Z 00000001800122e0 f i ArbReader.obj
 0001:000113c0       ??$_Debug_pointer@UData_t@ArbReader@@@std@@YAXPEAUData_t@ArbReader@@PEB_WI@Z 00000001800123c0 f i ArbReader.obj
 0001:00011410       ??$_Debug_range2@V?$_Const_iterator@$00@?$list@UMarker_t@ArbReader@@V?$allocator@UMarker_t@ArbReader@@@std@@@std@@@std@@YAXV?$_Const_iterator@$00@?$list@UMarker_t@ArbReader@@V?$allocator@UMarker_t@ArbReader@@@std@@@0@0PEB_WIUinput_iterator_tag@0@@Z 0000000180012410 f i ArbReader.obj
 0001:00011460       ??$_Debug_range2@V?$_Const_iterator@$00@?$list@USegHeader_t@ArbReader@@V?$allocator@USegHeader_t@ArbReader@@@std@@@std@@@std@@YAXV?$_Const_iterator@$00@?$list@USegHeader_t@ArbReader@@V?$allocator@USegHeader_t@ArbReader@@@std@@@0@0PEB_WIUinput_iterator_tag@0@@Z 0000000180012460 f i ArbReader.obj
 0001:000114b0       ??$_Debug_range2@V?$_Const_iterator@$00@?$list@UArbSeg_t@@V?$allocator@UArbSeg_t@@@std@@@std@@@std@@YAXV?$_Const_iterator@$00@?$list@UArbSeg_t@@V?$allocator@UArbSeg_t@@@std@@@0@0PEB_WIUinput_iterator_tag@0@@Z 00000001800124b0 f i ArbReader.obj
 0001:00011500       ??$_Debug_range2@V?$_Const_iterator@$00@?$list@V?$list@UMarker_t@ArbReader@@V?$allocator@UMarker_t@ArbReader@@@std@@@std@@V?$allocator@V?$list@UMarker_t@ArbReader@@V?$allocator@UMarker_t@ArbReader@@@std@@@std@@@2@@std@@@std@@YAXV?$_Const_iterator@$00@?$list@V?$list@UMarker_t@ArbReader@@V?$allocator@UMarker_t@ArbReader@@@std@@@std@@V?$allocator@V?$list@UMarker_t@ArbReader@@V?$allocator@UMarker_t@ArbReader@@@std@@@std@@@2@@0@0PEB_WIUinput_iterator_tag@0@@Z 0000000180012500 f i ArbReader.obj
 0001:00011550       ??0CalFileR1A@@AEAA@II@Z   0000000180012550 f   CalFileR1A.obj
 0001:000115f0       ??1CalFileR1A@@EEAA@XZ     00000001800125f0 f   CalFileR1A.obj
 0001:00011970       ?Open@CalFileR1A@@UEAAHXZ  0000000180012970 f   CalFileR1A.obj
 0001:00011ca0       ?Map2Buf@CalFileR1A@@UEAAHW4CalItem@ICalFile@@@Z 0000000180012ca0 f   CalFileR1A.obj
 0001:00011f90       ?Map2Mem@CalFileR1A@@UEAAHXZ 0000000180012f90 f   CalFileR1A.obj
 0001:000120c0       ?Add@CalFileR1A@@UEAAHW4CalItem@ICalFile@@PEAX@Z 00000001800130c0 f   CalFileR1A.obj
 0001:00012250       ?Create@CalFileR1A@@UEAAHXZ 0000000180013250 f   CalFileR1A.obj
 0001:00012d90       ?Load@CalFileR1A@@UEAAHAEAUFileInfo@ICalFile@@@Z 0000000180013d90 f   CalFileR1A.obj
 0001:00013260       ?GetItemSize@CalFileR1A@@UEAAHW4CalItem@ICalFile@@AEAI1@Z 0000000180014260 f   CalFileR1A.obj
 0001:000132f0       ?GetItemSizeV0000@CalFileR1A@@QEAAHW4CalItem@ICalFile@@AEAI1@Z 00000001800142f0 f   CalFileR1A.obj
 0001:000134b0       ?GetItemSizeV0001@CalFileR1A@@QEAAHW4CalItem@ICalFile@@AEAI1@Z 00000001800144b0 f   CalFileR1A.obj
 0001:00013680       ?GetItemSizeV0002@CalFileR1A@@QEAAHW4CalItem@ICalFile@@AEAI1@Z 0000000180014680 f   CalFileR1A.obj
 0001:00013890       ?GetItemSizeV0004@CalFileR1A@@QEAAHW4CalItem@ICalFile@@AEAI1@Z 0000000180014890 f   CalFileR1A.obj
 0001:00013ad0       ?GetTxAtt@CalFileR1A@@QEAAX_KW4IOMode@SP1401@@PEAM@Z 0000000180014ad0 f   CalFileR1A.obj
 0001:00013b40       ?GetTxAtt@CalFileR1A@@QEAAX_KW4IOMode@SP1401@@HAEAN@Z 0000000180014b40 f   CalFileR1A.obj
 0001:00013bb0       ?GetTxPower@CalFileR1A@@QEAAX_KNW4IOMode@SP1401@@AEANAEAH3AEAW4TxPAAtt@3@3@Z 0000000180014bb0 f   CalFileR1A.obj
 0001:00014690       ??_ECalFileR1A@@EEAAPEAXI@Z 0000000180015690 f i CalFileR1A.obj
 0001:00014690       ??_GCalFileR1A@@EEAAPEAXI@Z 0000000180015690 f i CalFileR1A.obj
 0001:000146e0       ??0TxSidebandTableR1A@@QEAA@XZ 00000001800156e0 f i CalFileR1A.obj
 0001:00014730       ??_ETxSidebandTableR1A@@UEAAPEAXI@Z 0000000180015730 f i CalFileR1A.obj
 0001:00014730       ??_GTxSidebandTableR1A@@UEAAPEAXI@Z 0000000180015730 f i CalFileR1A.obj
 0001:00014780       ??1TxSidebandTableR1A@@UEAA@XZ 0000000180015780 f i CalFileR1A.obj
 0001:000147e0       ??0TxLOLeakageTableR1A@@QEAA@XZ 00000001800157e0 f i CalFileR1A.obj
 0001:00014830       ??_GTxLOLeakageTableR1A@@UEAAPEAXI@Z 0000000180015830 f i CalFileR1A.obj
 0001:00014830       ??_ETxLOLeakageTableR1A@@UEAAPEAXI@Z 0000000180015830 f i CalFileR1A.obj
 0001:00014880       ??1TxLOLeakageTableR1A@@UEAA@XZ 0000000180015880 f i CalFileR1A.obj
 0001:000148e0       ??0TxAttTableR1A@@QEAA@XZ  00000001800158e0 f i CalFileR1A.obj
 0001:00014930       ??_ETxAttTableR1A@@UEAAPEAXI@Z 0000000180015930 f i CalFileR1A.obj
 0001:00014930       ??_GTxAttTableR1A@@UEAAPEAXI@Z 0000000180015930 f i CalFileR1A.obj
 0001:00014980       ??1TxAttTableR1A@@UEAA@XZ  0000000180015980 f i CalFileR1A.obj
 0001:000149e0       ??0TxPowerTableR1A@@QEAA@XZ 00000001800159e0 f i CalFileR1A.obj
 0001:00014a30       ??_GTxPowerTableR1A@@UEAAPEAXI@Z 0000000180015a30 f i CalFileR1A.obj
 0001:00014a30       ??_ETxPowerTableR1A@@UEAAPEAXI@Z 0000000180015a30 f i CalFileR1A.obj
 0001:00014a80       ??1TxPowerTableR1A@@UEAA@XZ 0000000180015a80 f i CalFileR1A.obj
 0001:00014ae0       ??0RxRefTableR1A@@QEAA@XZ  0000000180015ae0 f i CalFileR1A.obj
 0001:00014b30       ??_ERxRefTableR1A@@UEAAPEAXI@Z 0000000180015b30 f i CalFileR1A.obj
 0001:00014b30       ??_GRxRefTableR1A@@UEAAPEAXI@Z 0000000180015b30 f i CalFileR1A.obj
 0001:00014b80       ??1RxRefTableR1A@@UEAA@XZ  0000000180015b80 f i CalFileR1A.obj
 0001:00014be0       ?MapBuf@TxSidebandTableR1A@@QEAAXPEAUDataF@1@@Z 0000000180015be0 f i CalFileR1A.obj
 0001:00014c00       ?MapBuf@TxLOLeakageTableR1A@@QEAAXPEAUDataF@1@@Z 0000000180015c00 f i CalFileR1A.obj
 0001:00014c20       ?MapBuf@X9119Table@@QEAAXPEAUData@1@@Z 0000000180015c20 f i CalFileR1A.obj
 0001:00014c40       ?MapBuf@TxAttTableR1A@@QEAAXPEAUDataF@1@@Z 0000000180015c40 f i CalFileR1A.obj
 0001:00014c60       ?MapBuf@TxPowerTableR1A@@QEAAXPEAUDataF@1@@Z 0000000180015c60 f i CalFileR1A.obj
 0001:00014c80       ?MapBuf@RxRefTableR1A@@QEAAXPEAUDataF@1@@Z 0000000180015c80 f i CalFileR1A.obj
 0001:00014ca0       ??0CalFileR1C@@AEAA@II@Z   0000000180015ca0 f   CalFileR1C.obj
 0001:00014e30       ??1CalFileR1C@@EEAA@XZ     0000000180015e30 f   CalFileR1C.obj
 0001:000159f0       ?Open@CalFileR1C@@UEAAHXZ  00000001800169f0 f   CalFileR1C.obj
 0001:00016260       ?SetBW@CalFileR1C@@UEAAHW4BW@SP1401@@@Z 0000000180017260 f   CalFileR1C.obj
 0001:00016bc0       ?Add@CalFileR1C@@UEAAHW4CalItem@ICalFile@@PEAX@Z 0000000180017bc0 f   CalFileR1C.obj
 0001:00017010       ?Map2Buf@CalFileR1C@@UEAAHW4CalItem@ICalFile@@@Z 0000000180018010 f   CalFileR1C.obj
 0001:00017b70       ?Map2Mem@CalFileR1C@@UEAAHXZ 0000000180018b70 f   CalFileR1C.obj
 0001:00017e50       ?Create@CalFileR1C@@UEAAHXZ 0000000180018e50 f   CalFileR1C.obj
 0001:00018f40       ?Load@CalFileR1C@@UEAAHAEAUFileInfo@ICalFile@@@Z 0000000180019f40 f   CalFileR1C.obj
 0001:000194a0       ?GetItemSize@CalFileR1C@@UEAAHW4CalItem@ICalFile@@AEAI1@Z 000000018001a4a0 f   CalFileR1C.obj
 0001:0001a9a0       ??_GCalFileR1C@@EEAAPEAXI@Z 000000018001b9a0 f i CalFileR1C.obj
 0001:0001a9a0       ??_ECalFileR1C@@EEAAPEAXI@Z 000000018001b9a0 f i CalFileR1C.obj
 0001:0001a9f0       ??0TxAttOPTableR1C@@QEAA@XZ 000000018001b9f0 f i CalFileR1C.obj
 0001:0001aa40       ??_ETxAttOPTableR1C@@UEAAPEAXI@Z 000000018001ba40 f i CalFileR1C.obj
 0001:0001aa40       ??_GTxAttOPTableR1C@@UEAAPEAXI@Z 000000018001ba40 f i CalFileR1C.obj
 0001:0001aa90       ??1TxAttOPTableR1C@@UEAA@XZ 000000018001ba90 f i CalFileR1C.obj
 0001:0001aaf0       ??0TxAttIOTableR1C@@QEAA@XZ 000000018001baf0 f i CalFileR1C.obj
 0001:0001ab40       ??_GTxAttIOTableR1C@@UEAAPEAXI@Z 000000018001bb40 f i CalFileR1C.obj
 0001:0001ab40       ??_ETxAttIOTableR1C@@UEAAPEAXI@Z 000000018001bb40 f i CalFileR1C.obj
 0001:0001ab90       ??1TxAttIOTableR1C@@UEAA@XZ 000000018001bb90 f i CalFileR1C.obj
 0001:0001abf0       ??0TxPowerOPTableR1C@@QEAA@XZ 000000018001bbf0 f i CalFileR1C.obj
 0001:0001ac40       ??_ETxPowerOPTableR1C@@UEAAPEAXI@Z 000000018001bc40 f i CalFileR1C.obj
 0001:0001ac40       ??_GTxPowerOPTableR1C@@UEAAPEAXI@Z 000000018001bc40 f i CalFileR1C.obj
 0001:0001ac90       ??1TxPowerOPTableR1C@@UEAA@XZ 000000018001bc90 f i CalFileR1C.obj
 0001:0001acf0       ??0TxPowerIOTableR1C@@QEAA@XZ 000000018001bcf0 f i CalFileR1C.obj
 0001:0001ad40       ??_GTxPowerIOTableR1C@@UEAAPEAXI@Z 000000018001bd40 f i CalFileR1C.obj
 0001:0001ad40       ??_ETxPowerIOTableR1C@@UEAAPEAXI@Z 000000018001bd40 f i CalFileR1C.obj
 0001:0001ad90       ??1TxPowerIOTableR1C@@UEAA@XZ 000000018001bd90 f i CalFileR1C.obj
 0001:0001adf0       ??0RxRefOPTableR1C@@QEAA@XZ 000000018001bdf0 f i CalFileR1C.obj
 0001:0001ae40       ??_ERxRefOPTableR1C@@UEAAPEAXI@Z 000000018001be40 f i CalFileR1C.obj
 0001:0001ae40       ??_GRxRefOPTableR1C@@UEAAPEAXI@Z 000000018001be40 f i CalFileR1C.obj
 0001:0001ae90       ??1RxRefOPTableR1C@@UEAA@XZ 000000018001be90 f i CalFileR1C.obj
 0001:0001aef0       ??0RxRefIOTableR1C@@QEAA@XZ 000000018001bef0 f i CalFileR1C.obj
 0001:0001af40       ??_ERxRefIOTableR1C@@UEAAPEAXI@Z 000000018001bf40 f i CalFileR1C.obj
 0001:0001af40       ??_GRxRefIOTableR1C@@UEAAPEAXI@Z 000000018001bf40 f i CalFileR1C.obj
 0001:0001af90       ??1RxRefIOTableR1C@@UEAA@XZ 000000018001bf90 f i CalFileR1C.obj
 0001:0001aff0       ??0RxAttOPTableR1C@@QEAA@XZ 000000018001bff0 f i CalFileR1C.obj
 0001:0001b040       ??_ERxAttOPTableR1C@@UEAAPEAXI@Z 000000018001c040 f i CalFileR1C.obj
 0001:0001b040       ??_GRxAttOPTableR1C@@UEAAPEAXI@Z 000000018001c040 f i CalFileR1C.obj
 0001:0001b090       ??1RxAttOPTableR1C@@UEAA@XZ 000000018001c090 f i CalFileR1C.obj
 0001:0001b0f0       ??0RxAttIOTableR1C@@QEAA@XZ 000000018001c0f0 f i CalFileR1C.obj
 0001:0001b140       ??_GRxAttIOTableR1C@@UEAAPEAXI@Z 000000018001c140 f i CalFileR1C.obj
 0001:0001b140       ??_ERxAttIOTableR1C@@UEAAPEAXI@Z 000000018001c140 f i CalFileR1C.obj
 0001:0001b190       ??1RxAttIOTableR1C@@UEAA@XZ 000000018001c190 f i CalFileR1C.obj
 0001:0001b1f0       ??0TxFilter_80M_TableR1C@@QEAA@XZ 000000018001c1f0 f i CalFileR1C.obj
 0001:0001b240       ??_ETxFilter_80M_TableR1C@@UEAAPEAXI@Z 000000018001c240 f i CalFileR1C.obj
 0001:0001b240       ??_GTxFilter_80M_TableR1C@@UEAAPEAXI@Z 000000018001c240 f i CalFileR1C.obj
 0001:0001b290       ??1TxFilter_80M_TableR1C@@UEAA@XZ 000000018001c290 f i CalFileR1C.obj
 0001:0001b2f0       ??0TxFilter_160M_TableR1C@@QEAA@XZ 000000018001c2f0 f i CalFileR1C.obj
 0001:0001b340       ??_ETxFilter_160M_TableR1C@@UEAAPEAXI@Z 000000018001c340 f i CalFileR1C.obj
 0001:0001b340       ??_GTxFilter_160M_TableR1C@@UEAAPEAXI@Z 000000018001c340 f i CalFileR1C.obj
 0001:0001b390       ??1TxFilter_160M_TableR1C@@UEAA@XZ 000000018001c390 f i CalFileR1C.obj
 0001:0001b3f0       ??0RxFilter_80M_TableR1C@@QEAA@XZ 000000018001c3f0 f i CalFileR1C.obj
 0001:0001b440       ??_ERxFilter_80M_TableR1C@@UEAAPEAXI@Z 000000018001c440 f i CalFileR1C.obj
 0001:0001b440       ??_GRxFilter_80M_TableR1C@@UEAAPEAXI@Z 000000018001c440 f i CalFileR1C.obj
 0001:0001b490       ??1RxFilter_80M_TableR1C@@UEAA@XZ 000000018001c490 f i CalFileR1C.obj
 0001:0001b4f0       ??0RxFilter_160M_TableR1C@@QEAA@XZ 000000018001c4f0 f i CalFileR1C.obj
 0001:0001b540       ??_ERxFilter_160M_TableR1C@@UEAAPEAXI@Z 000000018001c540 f i CalFileR1C.obj
 0001:0001b540       ??_GRxFilter_160M_TableR1C@@UEAAPEAXI@Z 000000018001c540 f i CalFileR1C.obj
 0001:0001b590       ??1RxFilter_160M_TableR1C@@UEAA@XZ 000000018001c590 f i CalFileR1C.obj
 0001:0001b5f0       ??0TxFilterOffTableR1C@@QEAA@XZ 000000018001c5f0 f i CalFileR1C.obj
 0001:0001b640       ??_GTxFilterOffTableR1C@@UEAAPEAXI@Z 000000018001c640 f i CalFileR1C.obj
 0001:0001b640       ??_ETxFilterOffTableR1C@@UEAAPEAXI@Z 000000018001c640 f i CalFileR1C.obj
 0001:0001b690       ??1TxFilterOffTableR1C@@UEAA@XZ 000000018001c690 f i CalFileR1C.obj
 0001:0001b6f0       ??0RxFilterOffTableR1C@@QEAA@XZ 000000018001c6f0 f i CalFileR1C.obj
 0001:0001b740       ??_ERxFilterOffTableR1C@@UEAAPEAXI@Z 000000018001c740 f i CalFileR1C.obj
 0001:0001b740       ??_GRxFilterOffTableR1C@@UEAAPEAXI@Z 000000018001c740 f i CalFileR1C.obj
 0001:0001b790       ??1RxFilterOffTableR1C@@UEAA@XZ 000000018001c790 f i CalFileR1C.obj
 0001:0001b7f0       ?MapBuf@TxSidebandTableR1C@@QEAAXPEAUDataF@1@@Z 000000018001c7f0 f i CalFileR1C.obj
 0001:0001b810       ?MapBuf@TxLOLeakageTableR1C@@QEAAXPEAUDataF@1@@Z 000000018001c810 f i CalFileR1C.obj
 0001:0001b830       ?MapBuf@TxAttOPTableR1C@@QEAAXPEAUDataF@1@@Z 000000018001c830 f i CalFileR1C.obj
 0001:0001b850       ?MapBuf@TxAttIOTableR1C@@QEAAXPEAUDataF@1@@Z 000000018001c850 f i CalFileR1C.obj
 0001:0001b870       ?MapBuf@TxPowerOPTableR1C@@QEAAXPEAUDataF@1@@Z 000000018001c870 f i CalFileR1C.obj
 0001:0001b890       ?MapBuf@TxPowerIOTableR1C@@QEAAXPEAUDataF@1@@Z 000000018001c890 f i CalFileR1C.obj
 0001:0001b8b0       ?MapBuf@RxRefOPTableR1C@@QEAAXPEAUDataF@1@@Z 000000018001c8b0 f i CalFileR1C.obj
 0001:0001b8d0       ?MapBuf@RxRefIOTableR1C@@QEAAXPEAUDataF@1@@Z 000000018001c8d0 f i CalFileR1C.obj
 0001:0001b8f0       ?MapBuf@RxAttOPTableR1C@@QEAAXPEAUDataF@1@@Z 000000018001c8f0 f i CalFileR1C.obj
 0001:0001b910       ?MapBuf@RxAttIOTableR1C@@QEAAXPEAUDataF@1@@Z 000000018001c910 f i CalFileR1C.obj
 0001:0001b930       ?MapBuf@TxRFFr_0_TableR1C@@QEAAXPEAUDataF@TxRFFrTable@@@Z 000000018001c930 f i CalFileR1C.obj
 0001:0001b950       ?MapBuf@TxRFFr_1_TableR1C@@QEAAXPEAUDataF@TxRFFrTable@@@Z 000000018001c950 f i CalFileR1C.obj
 0001:0001b970       ??0TxIFFrTableR1C@@QEAA@XZ 000000018001c970 f i CalFileR1C.obj
 0001:0001b990       ?MapBuf@TxIFFrTableR1C@@QEAAXPEAUDataF@1@@Z 000000018001c990 f i CalFileR1C.obj
 0001:0001b9b0       ??_ETxIFFrTableR1C@@UEAAPEAXI@Z 000000018001c9b0 f i CalFileR1C.obj
 0001:0001b9b0       ??_GTxIFFrTableR1C@@UEAAPEAXI@Z 000000018001c9b0 f i CalFileR1C.obj
 0001:0001ba00       ??1TxIFFrTableR1C@@UEAA@XZ 000000018001ca00 f i CalFileR1C.obj
 0001:0001ba20       ?MapBuf@TxFilter_80M_TableR1C@@QEAAXPEAUDataF@1@@Z 000000018001ca20 f i CalFileR1C.obj
 0001:0001ba40       ?MapBuf@TxFilter_160M_TableR1C@@QEAAXPEAUDataF@1@@Z 000000018001ca40 f i CalFileR1C.obj
 0001:0001ba60       ??0RxRFFrTableR1C@@QEAA@XZ 000000018001ca60 f i CalFileR1C.obj
 0001:0001ba80       ?MapBuf@RxRFFrTableR1C@@QEAAXPEAUDataF@1@@Z 000000018001ca80 f i CalFileR1C.obj
 0001:0001baa0       ??_GRxRFFrTableR1C@@UEAAPEAXI@Z 000000018001caa0 f i CalFileR1C.obj
 0001:0001baa0       ??_ERxRFFrTableR1C@@UEAAPEAXI@Z 000000018001caa0 f i CalFileR1C.obj
 0001:0001baf0       ??1RxRFFrTableR1C@@UEAA@XZ 000000018001caf0 f i CalFileR1C.obj
 0001:0001bb10       ??0RxIFFrTableR1C@@QEAA@XZ 000000018001cb10 f i CalFileR1C.obj
 0001:0001bb30       ?MapBuf@RxIFFrTableR1C@@QEAAXPEAUDataF@1@@Z 000000018001cb30 f i CalFileR1C.obj
 0001:0001bb50       ??_ERxIFFrTableR1C@@UEAAPEAXI@Z 000000018001cb50 f i CalFileR1C.obj
 0001:0001bb50       ??_GRxIFFrTableR1C@@UEAAPEAXI@Z 000000018001cb50 f i CalFileR1C.obj
 0001:0001bba0       ??1RxIFFrTableR1C@@UEAA@XZ 000000018001cba0 f i CalFileR1C.obj
 0001:0001bbc0       ?MapBuf@RxFilter_80M_TableR1C@@QEAAXPEAUDataF@1@@Z 000000018001cbc0 f i CalFileR1C.obj
 0001:0001bbe0       ?MapBuf@RxFilter_160M_TableR1C@@QEAAXPEAUDataF@1@@Z 000000018001cbe0 f i CalFileR1C.obj
 0001:0001bc00       ?MapBuf@TxFilterOffTableR1C@@QEAAXPEAUDataF@1@@Z 000000018001cc00 f i CalFileR1C.obj
 0001:0001bc20       ?MapBuf@RxFilterOffTableR1C@@QEAAXPEAUDataF@1@@Z 000000018001cc20 f i CalFileR1C.obj
 0001:0001bc40       ??0TxRFFr_0_TableR1C@@QEAA@XZ 000000018001cc40 f i CalFileR1C.obj
 0001:0001bc80       ??0TxRFFrTable@@QEAA@XZ    000000018001cc80 f i CalFileR1C.obj
 0001:0001bca0       ??_ETxRFFrTable@@UEAAPEAXI@Z 000000018001cca0 f i CalFileR1C.obj
 0001:0001bca0       ??_GTxRFFrTable@@UEAAPEAXI@Z 000000018001cca0 f i CalFileR1C.obj
 0001:0001bcf0       ??1TxRFFrTable@@UEAA@XZ    000000018001ccf0 f i CalFileR1C.obj
 0001:0001bd10       ??0TxRFFr_1_TableR1C@@QEAA@XZ 000000018001cd10 f i CalFileR1C.obj
 0001:0001bd50       ??_GTxRFFr_0_TableR1C@@UEAAPEAXI@Z 000000018001cd50 f i CalFileR1C.obj
 0001:0001bd50       ??_ETxRFFr_0_TableR1C@@UEAAPEAXI@Z 000000018001cd50 f i CalFileR1C.obj
 0001:0001bda0       ??_GTxRFFr_1_TableR1C@@UEAAPEAXI@Z 000000018001cda0 f i CalFileR1C.obj
 0001:0001bda0       ??_ETxRFFr_1_TableR1C@@UEAAPEAXI@Z 000000018001cda0 f i CalFileR1C.obj
 0001:0001bdf0       ??1TxRFFr_0_TableR1C@@UEAA@XZ 000000018001cdf0 f i CalFileR1C.obj
 0001:0001be10       ??1TxRFFr_1_TableR1C@@UEAA@XZ 000000018001ce10 f i CalFileR1C.obj
 0001:0001be30       ?Target@CfvCtrl@@QEAAXPEAVICalFile@@@Z 000000018001ce30 f   CfvCtrl.obj
 0001:0001be50       ?ForConv_0000_0001@CfvCtrl@@QEAAHXZ 000000018001ce50 f   CfvCtrl.obj
 0001:0001c8d0       ?ForConv_0001_0002@CfvCtrl@@QEAAHXZ 000000018001d8d0 f   CfvCtrl.obj
 0001:0001dca0       ?ForConv_0002_0003@CfvCtrl@@QEAAHXZ 000000018001eca0 f   CfvCtrl.obj
 0001:0001eb20       ?ForConv_0003_0004@CfvCtrl@@QEAAHXZ 000000018001fb20 f   CfvCtrl.obj
 0001:00020070       ?ForConv_0004_0005@CfvCtrl@@QEAAHXZ 0000000180021070 f   CfvCtrl.obj
 0001:00021490       ?ForwardConvert@CfvCtrl@@QEAAHH@Z 0000000180022490 f   CfvCtrl.obj
 0001:00022ad0       ?strrchr@@YAPEADPEADH@Z    0000000180023ad0 f i CfvCtrl.obj
 0001:00022b00       ??0DMAMgr@@AEAA@XZ         0000000180023b00 f   DMAMgr.obj
 0001:00022c10       ??1DMAMgr@@AEAA@XZ         0000000180023c10 f   DMAMgr.obj
 0001:00022d70       ??4DMAMgr@@AEAAAEAV0@AEAV0@@Z 0000000180023d70 f   DMAMgr.obj
 0001:00022d90       ?Instance@DMAMgr@@SAAEAV1@XZ 0000000180023d90 f   DMAMgr.obj
 0001:00022df0       ?FpgaRead@DMAMgr@@QEAAHPEAVviPCIDev@@PEAIIPEAM@Z 0000000180023df0 f   DMAMgr.obj
 0001:00023470       ?FpgaReadAll@DMAMgr@@QEAAHPEAVviPCIDev@@PEAII@Z 0000000180024470 f   DMAMgr.obj
 0001:00023730       ?WDumpToBuf@DMAMgr@@QEAAHPEAHI@Z 0000000180024730 f   DMAMgr.obj
 0001:000238a0       ?WDumpToBufCh@DMAMgr@@QEAAHIPEAHI0@Z 00000001800248a0 f   DMAMgr.obj
 0001:00023ac0       ?WDumpToFileCh@DMAMgr@@QEAAHIPEADI0@Z 0000000180024ac0 f   DMAMgr.obj
 0001:00023db0       ?IQToBuf@DMAMgr@@QEAAHIPEAF0I00@Z 0000000180024db0 f   DMAMgr.obj
 0001:00024030       ?IQToFile@DMAMgr@@QEAAHIPEADI0@Z 0000000180025030 f   DMAMgr.obj
 0001:00024340       ?Reset@DMAMgr@@QEAAHPEAVviPCIDev@@@Z 0000000180025340 f   DMAMgr.obj
 0001:00024f40       ?RAlloc@DMAMgr@@QEAAHXZ    0000000180025f40 f   DMAMgr.obj
 0001:00025030       ?RSendPhyAddr@DMAMgr@@QEAAHPEAVviPCIDev@@@Z 0000000180026030 f   DMAMgr.obj
 0001:000251b0       ?RStart@DMAMgr@@QEAAHPEAVviPCIDev@@@Z 00000001800261b0 f   DMAMgr.obj
 0001:00025e20       ?WAlloc@DMAMgr@@QEAAHXZ    0000000180026e20 f   DMAMgr.obj
 0001:00025f30       ?WSendPhyAddr@DMAMgr@@QEAAHPEAVviPCIDev@@@Z 0000000180026f30 f   DMAMgr.obj
 0001:00026450       ?WStart@DMAMgr@@QEAAHPEAVviPCIDev@@@Z 0000000180027450 f   DMAMgr.obj
 0001:000270c0       ?GetUsrSpc@DMAMgr@@QEBAPEAIXZ 00000001800280c0 f   DMAMgr.obj
 0001:00028250       ??0FileInfo@ICalFile@@QEAA@XZ 0000000180029250 f   ICalFile.obj
 0001:00028290       ??1FileInfo@ICalFile@@QEAA@XZ 0000000180029290 f   ICalFile.obj
 0001:000282e0       ??0ItemBuf@ICalFile@@QEAA@XZ 00000001800292e0 f   ICalFile.obj
 0001:00028330       ??1ItemBuf@ICalFile@@QEAA@XZ 0000000180029330 f   ICalFile.obj
 0001:00028380       ??4ItemBuf@ICalFile@@QEAA?AU01@AEBU01@@Z 0000000180029380 f   ICalFile.obj
 0001:00028410       ??0ICalFile@@QEAA@II@Z     0000000180029410 f   ICalFile.obj
 0001:00028480       ??1ICalFile@@UEAA@XZ       0000000180029480 f   ICalFile.obj
 0001:000284a0       ?SetBW@ICalFile@@UEAAHW4BW@SP1401@@@Z 00000001800294a0 f   ICalFile.obj
 0001:000284c0       ?GetBw@ICalFile@@QEAA?AW4BW@SP1401@@XZ 00000001800294c0 f   ICalFile.obj
 0001:000284e0       ?GetRfIdx@ICalFile@@QEAAIXZ 00000001800294e0 f   ICalFile.obj
 0001:00028500       ?GetRfuIdx@ICalFile@@QEAAIXZ 0000000180029500 f   ICalFile.obj
 0001:00028520       ?GetOrdinal@ICalFile@@QEAAIXZ 0000000180029520 f   ICalFile.obj
 0001:00028540       ?GetFileVer@ICalFile@@UEAAHXZ 0000000180029540 f   ICalFile.obj
 0001:00028830       ?GetFixItemTableR1A@ICalFile@@SAIPEAUItemInfo@1@AEAI@Z 0000000180029830 f   ICalFile.obj
 0001:00028a60       ?GetFixItemTableR1C@ICalFile@@SAIPEAUItemInfo@1@AEAI@Z 0000000180029a60 f   ICalFile.obj
 0001:00029000       ?GetMaxItemByte@ICalFile@@SAIPEAUItemInfo@1@I@Z 000000018002a000 f   ICalFile.obj
 0001:000290a0       ?GetMaxItemByte@ICalFile@@SAIXZ 000000018002a0a0 f   ICalFile.obj
 0001:00029150       ?GetX9119@ICalFile@@SAPEAVX9119Table@@XZ 000000018002a150 f   ICalFile.obj
 0001:00029160       ?Open@ICalFile@@UEAAHXZ    000000018002a160 f   ICalFile.obj
 0001:000291e0       ?IsFileValid@ICalFile@@UEAA_NXZ 000000018002a1e0 f   ICalFile.obj
 0001:00029370       ?WriteFromPos@ICalFile@@UEAAHPEADIIPEAX@Z 000000018002a370 f   ICalFile.obj
 0001:000295a0       ?ReadFromPos@ICalFile@@UEAAHPEADIIPEAX@Z 000000018002a5a0 f   ICalFile.obj
 0001:000297d0       ?Write@ICalFile@@UEAAHW4CalItem@1@@Z 000000018002a7d0 f   ICalFile.obj
 0001:00029970       ?Read@ICalFile@@UEAAHW4CalItem@1@PEAX@Z 000000018002a970 f   ICalFile.obj
 0001:00029b30       ?ShowFileVer@ICalFile@@UEAAXPEAUFileVer@1@@Z 000000018002ab30 f   ICalFile.obj
 0001:00029b50       ?ShowFileInfo@ICalFile@@UEAAXPEAUFileInfo@1@@Z 000000018002ab50 f   ICalFile.obj
 0001:00029b70       ?ShowItemInfo@ICalFile@@UEAAXPEAUItemInfo@1@@Z 000000018002ab70 f   ICalFile.obj
 0001:0002a1d0       ??_GICalFile@@UEAAPEAXI@Z  000000018002b1d0 f i ICalFile.obj
 0001:0002a1d0       ??_EICalFile@@UEAAPEAXI@Z  000000018002b1d0 f i ICalFile.obj
 0001:0002a220       ??0CfvCtrl@@QEAA@XZ        000000018002b220 f i ICalFile.obj
 0001:0002a240       ??1CfvCtrl@@UEAA@XZ        000000018002b240 f i ICalFile.obj
 0001:0002a260       ??_ECfvCtrl@@UEAAPEAXI@Z   000000018002b260 f i ICalFile.obj
 0001:0002a260       ??_GCfvCtrl@@UEAAPEAXI@Z   000000018002b260 f i ICalFile.obj
 0001:0002a2b0       ??0CIQBufMgr@@AEAA@XZ      000000018002b2b0 f   IQBufMgr.obj
 0001:0002a310       ??1CIQBufMgr@@AEAA@XZ      000000018002b310 f   IQBufMgr.obj
 0001:0002a390       ??4CIQBufMgr@@AEAAAEAV0@AEAV0@@Z 000000018002b390 f   IQBufMgr.obj
 0001:0002a3b0       ?Instance@CIQBufMgr@@SAAEAV1@XZ 000000018002b3b0 f   IQBufMgr.obj
 0001:0002a410       ?New@CIQBufMgr@@QEAAXI@Z   000000018002b410 f   IQBufMgr.obj
 0001:0002a6d0       ?SetSr@CIQBufMgr@@QEAAXI@Z 000000018002b6d0 f   IQBufMgr.obj
 0001:0002a6f0       ?GetSr@CIQBufMgr@@QEAAIXZ  000000018002b6f0 f   IQBufMgr.obj
 0001:0002a710       ?GetI@CIQBufMgr@@QEBAPEAFXZ 000000018002b710 f   IQBufMgr.obj
 0001:0002a730       ?GetQ@CIQBufMgr@@QEBAPEAFXZ 000000018002b730 f   IQBufMgr.obj
 0001:0002a750       ?GetI@CIQBufMgr@@QEBAFI@Z  000000018002b750 f   IQBufMgr.obj
 0001:0002a770       ?GetQ@CIQBufMgr@@QEBAFI@Z  000000018002b770 f   IQBufMgr.obj
 0001:0002a7a0       ?GetNormFreq@CIQBufMgr@@QEBAPEANXZ 000000018002b7a0 f   IQBufMgr.obj
 0001:0002a7c0       ?GetPower@CIQBufMgr@@QEBAPEANXZ 000000018002b7c0 f   IQBufMgr.obj
 0001:0002a7e0       ?GetNormFreq@CIQBufMgr@@QEBANI@Z 000000018002b7e0 f   IQBufMgr.obj
 0001:0002a810       ?GetPower@CIQBufMgr@@QEBANI@Z 000000018002b810 f   IQBufMgr.obj
 0001:0002a840       ?_2Ptr@CIQBufMgr@@QEAAXPEAH0@Z 000000018002b840 f   IQBufMgr.obj
 0001:0002a8e0       ?DFT@CIQBufMgr@@QEAAXXZ    000000018002b8e0 f   IQBufMgr.obj
 0001:0002ad00       ?TDGetSamples@CIQBufMgr@@QEAAIXZ 000000018002bd00 f   IQBufMgr.obj
 0001:0002ad20       ?DFTGetPts@CIQBufMgr@@QEAAIII@Z 000000018002bd20 f   IQBufMgr.obj
 0001:0002ad60       ?DFTGetPts@CIQBufMgr@@QEAAIXZ 000000018002bd60 f   IQBufMgr.obj
 0001:0002b040       ??0ISP1401@@QEAA@XZ        000000018002c040 f   ISP1401.obj
 0001:0002b0d0       ??1ISP1401@@QEAA@XZ        000000018002c0d0 f   ISP1401.obj
 0001:0002b1b0       ?GetBw@ISP1401@@UEAA?AW4BW@SP1401@@XZ 000000018002c1b0 f   ISP1401.obj
 0001:0002b1e0       ?SetEnableExpt@ISP1401@@UEAAX_N@Z 000000018002c1e0 f   ISP1401.obj
 0001:0002b200       ?GetRfIdx@ISP1401@@UEAAIXZ 000000018002c200 f   ISP1401.obj
 0001:0002b230       ?GetRfuIdx@ISP1401@@UEAAIXZ 000000018002c230 f   ISP1401.obj
 0001:0002b260       ?GetCalFile@ISP1401@@UEAAPEAVICalFile@@XZ 000000018002c260 f   ISP1401.obj
 0001:0002b280       ?GetK7@ISP1401@@UEAAPEAVviPCIDev@@XZ 000000018002c280 f   ISP1401.obj
 0001:0002b2a0       ?Connect@ISP1401@@UEAAHPEAVviPCIDev@@@Z 000000018002c2a0 f   ISP1401.obj
 0001:0002b2d0       ?GetHwVer@ISP1401@@SAHPEBDAEAW4HwVer@1@@Z 000000018002c2d0 f   ISP1401.obj
 0001:0002b380       ?GetK7Ver@ISP1401@@UEAAHAEAI@Z 000000018002c380 f   ISP1401.obj
 0001:0002b4e0       ?SetSN@ISP1401@@UEAAHPEBDH@Z 000000018002c4e0 f   ISP1401.obj
 0001:0002b5d0       ?SetSN@ISP1401@@UEAAHPEAD@Z 000000018002c5d0 f   ISP1401.obj
 0001:0002b620       ?GetSN@ISP1401@@UEAAHPEAD@Z 000000018002c620 f   ISP1401.obj
 0001:0002b670       ?GetArbReader@ISP1401@@UEAAPEAVArbReader@@XZ 000000018002c670 f   ISP1401.obj
 0001:0002b690       ?IsValidSN@ISP1401@@SAHPEBD@Z 000000018002c690 f   ISP1401.obj
 0001:0002b8b0       ?SetArbSegment@ISP1401@@UEAAHAEBUArbSeg_t@@@Z 000000018002c8b0 f   ISP1401.obj
 0001:0002cfd0       ?SetArbSegments@ISP1401@@UEAAHG@Z 000000018002dfd0 f   ISP1401.obj
 0001:0002d180       ?SetArbParam@ISP1401@@UEAAHIII@Z 000000018002e180 f   ISP1401.obj
 0001:0002d380       ?SetArbTrigger@ISP1401@@UEAAH_N0II@Z 000000018002e380 f   ISP1401.obj
 0001:0002d5a0       ?SetArbManualTrigger@ISP1401@@UEAAHXZ 000000018002e5a0 f   ISP1401.obj
 0001:0002e5c0       ?SetArbMultiSegMode@ISP1401@@UEAAHII@Z 000000018002f5c0 f   ISP1401.obj
 0001:0002e790       ?SetArbMultiSegNext@ISP1401@@UEAAHI@Z 000000018002f790 f   ISP1401.obj
 0001:0002f7d0       ?GetArbCurrentSeg@ISP1401@@UEAAIXZ 00000001800307d0 f   ISP1401.obj
 0001:0002f970       ?GetArbCurrentSample@ISP1401@@UEAAIXZ 0000000180030970 f   ISP1401.obj
 0001:0002fb10       ?GetArbCurrentCycle@ISP1401@@UEAAIXZ 0000000180030b10 f   ISP1401.obj
 0001:0002fcb0       ?GetArbCurrentTimer@ISP1401@@UEAANXZ 0000000180030cb0 f   ISP1401.obj
 0001:00030060       ?SetArbFreqOffset@ISP1401@@UEAAHI@Z 0000000180031060 f   ISP1401.obj
 0001:000312b0       ?SetArbMkrDelay@ISP1401@@UEAAHPEAG@Z 00000001800322b0 f   ISP1401.obj
 0001:000316b0       ?SetArbUnperiodMarkerStart@ISP1401@@UEAAHXZ 00000001800326b0 f   ISP1401.obj
 0001:000316d0       ?SetArbUnperiodAddMarker@ISP1401@@UEAAHHII@Z 00000001800326d0 f   ISP1401.obj
 0001:0003af60       ?SetArbUnperiodMarkerEnd@ISP1401@@UEAAHHH@Z 000000018003bf60 f   ISP1401.obj
 0001:0003fc70       ?ArbLoad@ISP1401@@UEAAHPEAD@Z 0000000180040c70 f   ISP1401.obj
 0001:000407a0       ?ArbStart@ISP1401@@UEAAHXZ 00000001800417a0 f   ISP1401.obj
 0001:00040960       ?ArbStop@ISP1401@@UEAAHXZ  0000000180041960 f   ISP1401.obj
 0001:00040b10       ?WriteEEPROM@ISP1401@@UEAAHGIPEAD@Z 0000000180041b10 f   ISP1401.obj
 0001:000421c0       ?ReadEEPROM@ISP1401@@UEAAHGIPEAD@Z 00000001800431c0 f   ISP1401.obj
 0001:00042d00       ?SetNListIQCapTrigOffset@ISP1401@@UEAAHI@Z 0000000180043d00 f   ISP1401.obj
 0001:00042eb0       ?SetNListIQCapCapOffset@ISP1401@@UEAAHI@Z 0000000180043eb0 f   ISP1401.obj
 0001:00043090       ?IQCapStart@ISP1401@@UEAAHXZ 0000000180044090 f   ISP1401.obj
 0001:00044210       ?IQCapAbort@ISP1401@@UEAAHXZ 0000000180045210 f   ISP1401.obj
 0001:00044380       ?IQDump2Buf@ISP1401@@UEAAHPEAF0I@Z 0000000180045380 f   ISP1401.obj
 0001:000443a0       ?IQDump2File@ISP1401@@UEAAHPEADI@Z 00000001800453a0 f   ISP1401.obj
 0001:000443c0       ?SetIQCapSamples@ISP1401@@UEAAHI@Z 00000001800453c0 f   ISP1401.obj
 0001:00044530       ?GetIQCapSamples@ISP1401@@UEAAHAEAI@Z 0000000180045530 f   ISP1401.obj
 0001:000446c0       ?SetIQCapTrigGap@ISP1401@@UEAAHI@Z 00000001800456c0 f   ISP1401.obj
 0001:00044890       ?IQCap@ISP1401@@UEAAHXZ    0000000180045890 f   ISP1401.obj
 0001:00045930       ?SetPowerMeasSrc@ISP1401@@UEAAHW4IQCapSrcs@1@_N@Z 0000000180046930 f   ISP1401.obj
 0001:00045af0       ?SetPowerMeasTimeout@ISP1401@@UEAAHI@Z 0000000180046af0 f   ISP1401.obj
 0001:00045d00       ?GetPowerMeasTimeout@ISP1401@@UEAAHAEA_N@Z 0000000180046d00 f   ISP1401.obj
 0001:00045ef0       ?SetPowerMeasTrigThreshold@ISP1401@@UEAAHN@Z 0000000180046ef0 f   ISP1401.obj
 0001:000460e0       ?SetPowerMesaTrigGap@ISP1401@@UEAAHI@Z 00000001800470e0 f   ISP1401.obj
 0001:000462b0       ?PowerMeasStart@ISP1401@@UEAAHXZ 00000001800472b0 f   ISP1401.obj
 0001:000476b0       ?PowerMeasAbort@ISP1401@@UEAAHXZ 00000001800486b0 f   ISP1401.obj
 0001:00047850       ?SetPowerMeasSamples@ISP1401@@UEAAHI@Z 0000000180048850 f   ISP1401.obj
 0001:00047a00       ?GetPowerMeasSamples@ISP1401@@UEAAHAEAI@Z 0000000180048a00 f   ISP1401.obj
 0001:00047bb0       ?GetPowerMeasState@ISP1401@@UEAAHAEAW4PowerMeasState@1@@Z 0000000180048bb0 f   ISP1401.obj
 0001:00047d60       ?GetPowerMeasPeak@ISP1401@@UEAAHAEAN@Z 0000000180048d60 f   ISP1401.obj
 0001:00047f30       ?GetPowerMeasPower@ISP1401@@UEAAHAEAN@Z 0000000180048f30 f   ISP1401.obj
 0001:00048380       ?GetADS5474@ISP1401@@UEAAHAEA_J@Z 0000000180049380 f   ISP1401.obj
 0001:0004afe0       ?GetADS5474Manual@ISP1401@@UEAAHAEA_J@Z 000000018004bfe0 f   ISP1401.obj
 0001:0004b230       ?SetRxIFFilterSw@ISP1401@@UEAAHW4RxIFFilter@1@@Z 000000018004c230 f   ISP1401.obj
 0001:0004b420       ?GetAD7680@ISP1401@@UEAAHAEAI@Z 000000018004c420 f   ISP1401.obj
 0001:000555e0       ??_GArbReader@@QEAAPEAXI@Z 00000001800565e0 f i ISP1401.obj
 0001:00055630       ?strstr@@YAPEADPEADPEBD@Z  0000000180056630 f i ISP1401.obj
 0001:00055660       ??4?$_Iterator@$00@?$list@UArbSeg_t@@V?$allocator@UArbSeg_t@@@std@@@std@@QEAAAEAV012@AEBV012@@Z 0000000180056660 f i ISP1401.obj
 0001:00055690       ??4?$_Const_iterator@$00@?$list@UArbSeg_t@@V?$allocator@UArbSeg_t@@@std@@@std@@QEAAAEAV012@AEBV012@@Z 0000000180056690 f i ISP1401.obj
 0001:000556e0       ??4?$_Bidit@UArbSeg_t@@_JPEBU1@AEBU1@@std@@QEAAAEAU01@AEBU01@@Z 00000001800566e0 f i ISP1401.obj
 0001:00055710       ??4?$_Iterator_with_base@Ubidirectional_iterator_tag@std@@UArbSeg_t@@_JPEBU3@AEBU3@V_Iterator_base@2@@std@@QEAAAEAU01@AEBU01@@Z 0000000180056710 f i ISP1401.obj
 0001:00055740       ?pow@@YANNH@Z              0000000180056740 f i ISP1401.obj
 0001:00055770       ??0?$_Iterator@$00@?$list@UArbSeg_t@@V?$allocator@UArbSeg_t@@@std@@@std@@QEAA@XZ 0000000180056770 f i ISP1401.obj
 0001:000557a0       ??D?$_Iterator@$00@?$list@UArbSeg_t@@V?$allocator@UArbSeg_t@@@std@@@std@@QEBAAEAUArbSeg_t@@XZ 00000001800567a0 f i ISP1401.obj
 0001:000557c0       ??E?$_Iterator@$00@?$list@UArbSeg_t@@V?$allocator@UArbSeg_t@@@std@@@std@@QEAA?AV012@H@Z 00000001800567c0 f i ISP1401.obj
 0001:00055850       ??0?$_Iterator@$00@?$list@UArbSeg_t@@V?$allocator@UArbSeg_t@@@std@@@std@@QEAA@AEBV012@@Z 0000000180056850 f i ISP1401.obj
 0001:00055880       ??E?$_Iterator@$00@?$list@UArbSeg_t@@V?$allocator@UArbSeg_t@@@std@@@std@@QEAAAEAV012@XZ 0000000180056880 f i ISP1401.obj
 0001:000558b0       ??0?$_Const_iterator@$00@?$list@UArbSeg_t@@V?$allocator@UArbSeg_t@@@std@@@std@@QEAA@XZ 00000001800568b0 f i ISP1401.obj
 0001:000558f0       ??$_Pow_int@N@@YANNH@Z     00000001800568f0 f i ISP1401.obj
 0001:000559d0       ?Add@RxAttOPTableR1C@@UEAAXPEAUDataF@1@@Z 00000001800569d0 f   RxAttTable.obj
 0001:00055a50       ??0DataF@RxAttOPTableR1C@@QEAA@XZ 0000000180056a50 f   RxAttTable.obj
 0001:00055b70       ?Map2Mem@RxAttOPTableR1C@@QEAAXXZ 0000000180056b70 f   RxAttTable.obj
 0001:00055ca0       ?Get@RxAttOPTableR1C@@QEAAH_KN@Z 0000000180056ca0 f   RxAttTable.obj
 0001:00055db0       ?Get@RxAttOPTableR1C@@QEAAX_KPEAUDataM@1@@Z 0000000180056db0 f   RxAttTable.obj
 0001:00055e60       ?Get@RxAttOPTableR1C@@QEAAX_KPEAUDataF@1@@Z 0000000180056e60 f   RxAttTable.obj
 0001:00055f90       ?SaveAs@RxAttOPTableR1C@@QEAAXPEAD@Z 0000000180056f90 f   RxAttTable.obj
 0001:00055fe0       ?Add@RxAttIOTableR1C@@UEAAXPEAUDataF@1@@Z 0000000180056fe0 f   RxAttTable.obj
 0001:00056060       ??0DataF@RxAttIOTableR1C@@QEAA@XZ 0000000180057060 f   RxAttTable.obj
 0001:00056180       ?Map2Mem@RxAttIOTableR1C@@QEAAXXZ 0000000180057180 f   RxAttTable.obj
 0001:000562b0       ?Get@RxAttIOTableR1C@@QEAAH_KN@Z 00000001800572b0 f   RxAttTable.obj
 0001:000563c0       ?Get@RxAttIOTableR1C@@QEAAX_KPEAUDataM@1@@Z 00000001800573c0 f   RxAttTable.obj
 0001:00056470       ?Get@RxAttIOTableR1C@@QEAAX_KPEAUDataF@1@@Z 0000000180057470 f   RxAttTable.obj
 0001:000565a0       ?SaveAs@RxAttIOTableR1C@@QEAAXPEAD@Z 00000001800575a0 f   RxAttTable.obj
 0001:000568f0       ??$discretept@_K@@YAX_K_JAEA_K2@Z 00000001800578f0 f i RxAttTable.obj
 0001:00056a20       ?Add@RxFilterOffTableR1C@@UEAAXPEAUDataF@1@@Z 0000000180057a20 f   RxFilterOffTable.obj
 0001:00056aa0       ??0DataF@RxFilterOffTableR1C@@QEAA@XZ 0000000180057aa0 f   RxFilterOffTable.obj
 0001:00056ba0       ?Map2Mem@RxFilterOffTableR1C@@QEAAXXZ 0000000180057ba0 f   RxFilterOffTable.obj
 0001:00056cc0       ?Get@RxFilterOffTableR1C@@QEAAX_KPEAUDataM@1@@Z 0000000180057cc0 f   RxFilterOffTable.obj
 0001:00056d60       ?Get@RxFilterOffTableR1C@@QEAAX_KPEAUDataF@1@@Z 0000000180057d60 f   RxFilterOffTable.obj
 0001:00056e20       ?SaveAs@RxFilterOffTableR1C@@QEAAXPEAD@Z 0000000180057e20 f   RxFilterOffTable.obj
 0001:00057110       ??0DataF@RxRFFrTableR1C@@QEAA@XZ 0000000180058110 f   RxFilterTable.obj
 0001:00057140       ?Add@RxRFFrTableR1C@@UEAAXPEAUDataF@1@@Z 0000000180058140 f   RxFilterTable.obj
 0001:000571b0       ?Get@RxRFFrTableR1C@@QEAAX_KPEAUDataF@1@@Z 00000001800581b0 f   RxFilterTable.obj
 0001:00057210       ?SaveAs@RxRFFrTableR1C@@QEAAXPEAD@Z 0000000180058210 f   RxFilterTable.obj
 0001:000572d0       ??0DataF@RxIFFrTableR1C@@QEAA@XZ 00000001800582d0 f   RxFilterTable.obj
 0001:00057300       ?Add@RxIFFrTableR1C@@UEAAXPEAUDataF@1@@Z 0000000180058300 f   RxFilterTable.obj
 0001:00057370       ?Get@RxIFFrTableR1C@@QEAAXNPEAUDataF@1@@Z 0000000180058370 f   RxFilterTable.obj
 0001:000573d0       ?SaveAs@RxIFFrTableR1C@@QEAAXPEAD@Z 00000001800583d0 f   RxFilterTable.obj
 0001:000574a0       ?Add@RxFilter_80M_TableR1C@@UEAAXPEAUDataF@1@@Z 00000001800584a0 f   RxFilterTable.obj
 0001:00057520       ??0DataF@RxFilter_80M_TableR1C@@QEAA@XZ 0000000180058520 f   RxFilterTable.obj
 0001:00057670       ?_2Double@DataM@RxFilter_80M_TableR1C@@QEAAXPEAN0@Z 0000000180058670 f   RxFilterTable.obj
 0001:00057700       ?Map2Mem@RxFilter_80M_TableR1C@@QEAAXXZ 0000000180058700 f   RxFilterTable.obj
 0001:00057890       ?Get@RxFilter_80M_TableR1C@@QEAAX_KPEAUDataM@1@@Z 0000000180058890 f   RxFilterTable.obj
 0001:00057940       ?Get@RxFilter_80M_TableR1C@@QEAAX_KPEAUDataF@1@@Z 0000000180058940 f   RxFilterTable.obj
 0001:00057a00       ?SaveAs@RxFilter_80M_TableR1C@@QEAAXPEAD@Z 0000000180058a00 f   RxFilterTable.obj
 0001:00057a20       ?Add@RxFilter_160M_TableR1C@@UEAAXPEAUDataF@1@@Z 0000000180058a20 f   RxFilterTable.obj
 0001:00057aa0       ??0DataF@RxFilter_160M_TableR1C@@QEAA@XZ 0000000180058aa0 f   RxFilterTable.obj
 0001:00057bf0       ?_2Double@DataM@RxFilter_160M_TableR1C@@QEAAXPEAN0@Z 0000000180058bf0 f   RxFilterTable.obj
 0001:00057c80       ?Map2Mem@RxFilter_160M_TableR1C@@QEAAXXZ 0000000180058c80 f   RxFilterTable.obj
 0001:00057e10       ?Get@RxFilter_160M_TableR1C@@QEAAX_KPEAUDataM@1@@Z 0000000180058e10 f   RxFilterTable.obj
 0001:00057ec0       ?Get@RxFilter_160M_TableR1C@@QEAAX_KPEAUDataF@1@@Z 0000000180058ec0 f   RxFilterTable.obj
 0001:00057f80       ?SaveAs@RxFilter_160M_TableR1C@@QEAAXPEAD@Z 0000000180058f80 f   RxFilterTable.obj
 0001:00058330       ?Add@RxRefTableR1A@@UEAAXPEAUDataF@1@@Z 0000000180059330 f   RxRefTable.obj
 0001:00058390       ??0DataF@RxRefTableR1A@@QEAA@XZ 0000000180059390 f   RxRefTable.obj
 0001:000584b0       ?Map2Mem@RxRefTableR1A@@QEAAXXZ 00000001800594b0 f   RxRefTable.obj
 0001:000588d0       ?GetSGPower@RxRefTableR1A@@SAHH@Z 00000001800598d0 f   RxRefTable.obj
 0001:000588f0       ?GuessBaseOP@RxRefTableR1A@@SAXAEAHAEAN0@Z 00000001800598f0 f   RxRefTable.obj
 0001:00058bf0       ?GuessBaseIO@RxRefTableR1A@@SAXAEAHAEAN0@Z 0000000180059bf0 f   RxRefTable.obj
 0001:00058ef0       ?GetIO@RxRefTableR1A@@QEAAX_KNAEA_JAEAHAEAN2@Z 0000000180059ef0 f   RxRefTable.obj
 0001:000594f0       ?GetOP@RxRefTableR1A@@QEAAX_KNAEA_JAEAHAEAN2@Z 000000018005a4f0 f   RxRefTable.obj
 0001:00059ae0       ?Get@RxRefTableR1A@@QEAAX_KNW4IOMode@SP1401@@AEA_JAEAW4RxLNAAtt@3@AEANAEAH@Z 000000018005aae0 f   RxRefTable.obj
 0001:00059bd0       ?SaveAs@RxRefTableR1A@@QEAAXPEAD@Z 000000018005abd0 f   RxRefTable.obj
 0001:00059e40       ?Add@RxRefOPTableR1C@@UEAAXPEAUDataF@1@@Z 000000018005ae40 f   RxRefTable.obj
 0001:00059ec0       ??0DataF@RxRefOPTableR1C@@QEAA@XZ 000000018005aec0 f   RxRefTable.obj
 0001:0005a050       ?Map2Mem@RxRefOPTableR1C@@QEAAXXZ 000000018005b050 f   RxRefTable.obj
 0001:0005a350       ?GetConfigTable@RxRefOPTableR1C@@SAXHUDataM@1@PEAURxStateM@1@@Z 000000018005b350 f   RxRefTable.obj
 0001:0005a7f0       ?GetRefSegIdx@RxRefOPTableR1C@@SAHN@Z 000000018005b7f0 f   RxRefTable.obj
 0001:0005a840       ?GuessBase@RxRefOPTableR1C@@SAXHAEAH00AEAN11@Z 000000018005b840 f   RxRefTable.obj
 0001:0005a980       ?GetBase@RxRefOPTableR1C@@QEAAX_KPEAUDataM@1@@Z 000000018005b980 f   RxRefTable.obj
 0001:0005aec0       ?GetBase@RxRefOPTableR1C@@QEAAX_KPEAUDataF@1@@Z 000000018005bec0 f   RxRefTable.obj
 0001:0005aff0       ?Get@RxRefOPTableR1C@@QEAAX_KNPEAURxStateM@1@@Z 000000018005bff0 f   RxRefTable.obj
 0001:0005b130       ?Get@RxRefOPTableR1C@@QEAAX_KNPEAURxStateF@1@PEAUtm@@@Z 000000018005c130 f   RxRefTable.obj
 0001:0005b380       ?SaveAs@RxRefOPTableR1C@@QEAAXPEAD@Z 000000018005c380 f   RxRefTable.obj
 0001:0005b630       ?Add@RxRefIOTableR1C@@UEAAXPEAUDataF@1@@Z 000000018005c630 f   RxRefTable.obj
 0001:0005b6b0       ??0DataF@RxRefIOTableR1C@@QEAA@XZ 000000018005c6b0 f   RxRefTable.obj
 0001:0005b840       ?Map2Mem@RxRefIOTableR1C@@QEAAXXZ 000000018005c840 f   RxRefTable.obj
 0001:0005bb40       ?GetConfigTable@RxRefIOTableR1C@@SAXHUDataM@1@PEAURxStateM@RxRefOPTableR1C@@@Z 000000018005cb40 f   RxRefTable.obj
 0001:0005bfe0       ?GuessBase@RxRefIOTableR1C@@SAXHAEAH00AEAN11@Z 000000018005cfe0 f   RxRefTable.obj
 0001:0005c110       ?GetRefSegIdx@RxRefIOTableR1C@@SAHN@Z 000000018005d110 f   RxRefTable.obj
 0001:0005c160       ?GetBase@RxRefIOTableR1C@@QEAAX_KPEAUDataM@1@@Z 000000018005d160 f   RxRefTable.obj
 0001:0005c6a0       ?GetBase@RxRefIOTableR1C@@QEAAX_KPEAUDataF@1@@Z 000000018005d6a0 f   RxRefTable.obj
 0001:0005c7d0       ?Get@RxRefIOTableR1C@@QEAAX_KNPEAURxStateM@RxRefOPTableR1C@@@Z 000000018005d7d0 f   RxRefTable.obj
 0001:0005c900       ?Get@RxRefIOTableR1C@@QEAAX_KNPEAURxStateF@RxRefOPTableR1C@@PEAUtm@@@Z 000000018005d900 f   RxRefTable.obj
 0001:0005cb50       ?SaveAs@RxRefIOTableR1C@@QEAAXPEAD@Z 000000018005db50 f   RxRefTable.obj
 0001:0005e0a0       ??$discretept@N@@YAXN_JAEAN1@Z 000000018005f0a0 f i RxRefTable.obj
 0001:0005e1f0       ??$linear@_KH@@YAX_KH0H0AEAH@Z 000000018005f1f0 f i RxRefTable.obj
 0001:0005e2a0       ??MPointKey@CSGPMMFile@@QEBA_NAEBU01@@Z 000000018005f2a0 f   sgpmm.obj
 0001:0005e300       ??4PointKey@CSGPMMFile@@QEAAAEAU01@AEBU01@@Z 000000018005f300 f   sgpmm.obj
 0001:0005e340       ??0CSGPMMFile@@QEAA@PEAD@Z 000000018005f340 f   sgpmm.obj
 0001:0005e440       ??1CSGPMMFile@@UEAA@XZ     000000018005f440 f   sgpmm.obj
 0001:0005e480       ?Create@CSGPMMFile@@AEAAHUPoint@1@@Z 000000018005f480 f   sgpmm.obj
 0001:0005e5e0       ?Insert@CSGPMMFile@@AEAAHUPoint@1@@Z 000000018005f5e0 f   sgpmm.obj
 0001:0005e740       ?Get@CSGPMMFile@@QEAAH_KMAEAM@Z 000000018005f740 f   sgpmm.obj
 0001:0005e860       ?Fuse@CSGPMMFile@@QEAAHAEAV?$vector@UPoint@CSGPMMFile@@V?$allocator@UPoint@CSGPMMFile@@@std@@@std@@@Z 000000018005f860 f   sgpmm.obj
 0001:0005e9b0       ?Commit@CSGPMMFile@@QEAAHXZ 000000018005f9b0 f   sgpmm.obj
 0001:0005ed20       ?To2DArray@CSGPMMFile@@QEAAHAEAV?$vector@V?$vector@UPoint@CSGPMMFile@@V?$allocator@UPoint@CSGPMMFile@@@std@@@std@@V?$allocator@V?$vector@UPoint@CSGPMMFile@@V?$allocator@UPoint@CSGPMMFile@@@std@@@std@@@2@@std@@PEAV?$vector@_KV?$allocator@_K@std@@@3@PEAV?$vector@MV?$allocator@M@std@@@3@@Z 000000018005fd20 f   sgpmm.obj
 0001:0005f210       ?Map2buf@CSGPMMFile@@AEAAHXZ 0000000180060210 f   sgpmm.obj
 0001:0005f730       ?Clear@CSGPMMFile@@QEAAHXZ 0000000180060730 f   sgpmm.obj
 0001:0005fc80       ??_GCSGPMMFile@@UEAAPEAXI@Z 0000000180060c80 f i sgpmm.obj
 0001:0005fc80       ??_ECSGPMMFile@@UEAAPEAXI@Z 0000000180060c80 f i sgpmm.obj
 0001:0005fcd0       ??1?$map@UPointKey@CSGPMMFile@@MU?$less@UPointKey@CSGPMMFile@@@std@@V?$allocator@U?$pair@$$CBUPointKey@CSGPMMFile@@M@std@@@4@@std@@QEAA@XZ 0000000180060cd0 f i sgpmm.obj
 0001:0005fcf0       ??1iterator@?$_Tree@V?$_Tmap_traits@UPointKey@CSGPMMFile@@MU?$less@UPointKey@CSGPMMFile@@@std@@V?$allocator@U?$pair@$$CBUPointKey@CSGPMMFile@@M@std@@@4@$0A@@std@@@std@@QEAA@XZ 0000000180060cf0 f i sgpmm.obj
 0001:0005fd10       ??1?$pair@Viterator@?$_Tree@V?$_Tmap_traits@UPointKey@CSGPMMFile@@MU?$less@UPointKey@CSGPMMFile@@@std@@V?$allocator@U?$pair@$$CBUPointKey@CSGPMMFile@@M@std@@@4@$0A@@std@@@std@@_N@std@@QEAA@XZ 0000000180060d10 f i sgpmm.obj
 0001:0005fd30       ??1const_iterator@?$_Tree@V?$_Tmap_traits@UPointKey@CSGPMMFile@@MU?$less@UPointKey@CSGPMMFile@@@std@@V?$allocator@U?$pair@$$CBUPointKey@CSGPMMFile@@M@std@@@4@$0A@@std@@@std@@QEAA@XZ 0000000180060d30 f i sgpmm.obj
 0001:0005fd50       ??1?$_Bidit@U?$pair@$$CBUPointKey@CSGPMMFile@@M@std@@_JPEBU12@AEBU12@@std@@QEAA@XZ 0000000180060d50 f i sgpmm.obj
 0001:0005fd70       ??1?$_Iterator_with_base@Ubidirectional_iterator_tag@std@@U?$pair@$$CBUPointKey@CSGPMMFile@@M@2@_JPEBU32@AEBU32@V_Iterator_base@2@@std@@QEAA@XZ 0000000180060d70 f i sgpmm.obj
 0001:0005fd90       ??1?$_Vector_iterator@UPoint@CSGPMMFile@@V?$allocator@UPoint@CSGPMMFile@@@std@@@std@@QEAA@XZ 0000000180060d90 f i sgpmm.obj
 0001:0005fdb0       ??4?$_Vector_iterator@UPoint@CSGPMMFile@@V?$allocator@UPoint@CSGPMMFile@@@std@@@std@@QEAAAEAV01@AEBV01@@Z 0000000180060db0 f i sgpmm.obj
 0001:0005fde0       ??1?$_Vector_const_iterator@UPoint@CSGPMMFile@@V?$allocator@UPoint@CSGPMMFile@@@std@@@std@@QEAA@XZ 0000000180060de0 f i sgpmm.obj
 0001:0005fe00       ??4?$_Vector_const_iterator@UPoint@CSGPMMFile@@V?$allocator@UPoint@CSGPMMFile@@@std@@@std@@QEAAAEAV01@AEBV01@@Z 0000000180060e00 f i sgpmm.obj
 0001:0005fe50       ??1?$_Ranit@UPoint@CSGPMMFile@@_JPEBU12@AEBU12@@std@@QEAA@XZ 0000000180060e50 f i sgpmm.obj
 0001:0005fe70       ??4?$_Ranit@UPoint@CSGPMMFile@@_JPEBU12@AEBU12@@std@@QEAAAEAU01@AEBU01@@Z 0000000180060e70 f i sgpmm.obj
 0001:0005fea0       ??1?$_Iterator_with_base@Urandom_access_iterator_tag@std@@UPoint@CSGPMMFile@@_JPEBU34@AEBU34@V_Iterator_base@2@@std@@QEAA@XZ 0000000180060ea0 f i sgpmm.obj
 0001:0005fec0       ??4?$_Iterator_with_base@Urandom_access_iterator_tag@std@@UPoint@CSGPMMFile@@_JPEBU34@AEBU34@V_Iterator_base@2@@std@@QEAAAEAU01@AEBU01@@Z 0000000180060ec0 f i sgpmm.obj
 0001:0005fef0       ??4iterator@?$_Tree@V?$_Tmap_traits@UPointKey@CSGPMMFile@@MU?$less@UPointKey@CSGPMMFile@@@std@@V?$allocator@U?$pair@$$CBUPointKey@CSGPMMFile@@M@std@@@4@$0A@@std@@@std@@QEAAAEAV012@AEBV012@@Z 0000000180060ef0 f i sgpmm.obj
 0001:0005ff20       ??4const_iterator@?$_Tree@V?$_Tmap_traits@UPointKey@CSGPMMFile@@MU?$less@UPointKey@CSGPMMFile@@@std@@V?$allocator@U?$pair@$$CBUPointKey@CSGPMMFile@@M@std@@@4@$0A@@std@@@std@@QEAAAEAV012@AEBV012@@Z 0000000180060f20 f i sgpmm.obj
 0001:0005ff70       ??4?$_Bidit@U?$pair@$$CBUPointKey@CSGPMMFile@@M@std@@_JPEBU12@AEBU12@@std@@QEAAAEAU01@AEBU01@@Z 0000000180060f70 f i sgpmm.obj
 0001:0005ffa0       ??4?$_Iterator_with_base@Ubidirectional_iterator_tag@std@@U?$pair@$$CBUPointKey@CSGPMMFile@@M@2@_JPEBU32@AEBU32@V_Iterator_base@2@@std@@QEAAAEAU01@AEBU01@@Z 0000000180060fa0 f i sgpmm.obj
 0001:0005ffd0       ??0?$map@UPointKey@CSGPMMFile@@MU?$less@UPointKey@CSGPMMFile@@@std@@V?$allocator@U?$pair@$$CBUPointKey@CSGPMMFile@@M@std@@@4@@std@@QEAA@XZ 0000000180060fd0 f i sgpmm.obj
 0001:00060010       ??1?$_Tree@V?$_Tmap_traits@UPointKey@CSGPMMFile@@MU?$less@UPointKey@CSGPMMFile@@@std@@V?$allocator@U?$pair@$$CBUPointKey@CSGPMMFile@@M@std@@@4@$0A@@std@@@std@@QEAA@XZ 0000000180061010 f i sgpmm.obj
 0001:00060050       ?begin@?$_Tree@V?$_Tmap_traits@UPointKey@CSGPMMFile@@MU?$less@UPointKey@CSGPMMFile@@@std@@V?$allocator@U?$pair@$$CBUPointKey@CSGPMMFile@@M@std@@@4@$0A@@std@@@std@@QEAA?AViterator@12@XZ 0000000180061050 f i sgpmm.obj
 0001:000600b0       ?end@?$_Tree@V?$_Tmap_traits@UPointKey@CSGPMMFile@@MU?$less@UPointKey@CSGPMMFile@@@std@@V?$allocator@U?$pair@$$CBUPointKey@CSGPMMFile@@M@std@@@4@$0A@@std@@@std@@QEAA?AViterator@12@XZ 00000001800610b0 f i sgpmm.obj
 0001:00060110       ?size@?$_Tree@V?$_Tmap_traits@UPointKey@CSGPMMFile@@MU?$less@UPointKey@CSGPMMFile@@@std@@V?$allocator@U?$pair@$$CBUPointKey@CSGPMMFile@@M@std@@@4@$0A@@std@@@std@@QEBA_KXZ 0000000180061110 f i sgpmm.obj
 0001:00060130       ?insert@?$_Tree@V?$_Tmap_traits@UPointKey@CSGPMMFile@@MU?$less@UPointKey@CSGPMMFile@@@std@@V?$allocator@U?$pair@$$CBUPointKey@CSGPMMFile@@M@std@@@4@$0A@@std@@@std@@QEAA?AU?$pair@Viterator@?$_Tree@V?$_Tmap_traits@UPointKey@CSGPMMFile@@MU?$less@UPointKey@CSGPMMFile@@@std@@V?$allocator@U?$pair@$$CBUPointKey@CSGPMMFile@@M@std@@@4@$0A@@std@@@std@@_N@2@AEBU?$pair@$$CBUPointKey@CSGPMMFile@@M@2@@Z 0000000180061130 f i sgpmm.obj
 0001:00060660       ?clear@?$_Tree@V?$_Tmap_traits@UPointKey@CSGPMMFile@@MU?$less@UPointKey@CSGPMMFile@@@std@@V?$allocator@U?$pair@$$CBUPointKey@CSGPMMFile@@M@std@@@4@$0A@@std@@@std@@QEAAXXZ 0000000180061660 f i sgpmm.obj
 0001:00060720       ?find@?$_Tree@V?$_Tmap_traits@UPointKey@CSGPMMFile@@MU?$less@UPointKey@CSGPMMFile@@@std@@V?$allocator@U?$pair@$$CBUPointKey@CSGPMMFile@@M@std@@@4@$0A@@std@@@std@@QEAA?AViterator@12@AEBUPointKey@CSGPMMFile@@@Z 0000000180061720 f i sgpmm.obj
 0001:00060960       ??Diterator@?$_Tree@V?$_Tmap_traits@UPointKey@CSGPMMFile@@MU?$less@UPointKey@CSGPMMFile@@@std@@V?$allocator@U?$pair@$$CBUPointKey@CSGPMMFile@@M@std@@@4@$0A@@std@@@std@@QEBAAEAU?$pair@$$CBUPointKey@CSGPMMFile@@M@2@XZ 0000000180061960 f i sgpmm.obj
 0001:00060980       ??Citerator@?$_Tree@V?$_Tmap_traits@UPointKey@CSGPMMFile@@MU?$less@UPointKey@CSGPMMFile@@@std@@V?$allocator@U?$pair@$$CBUPointKey@CSGPMMFile@@M@std@@@4@$0A@@std@@@std@@QEBAPEAU?$pair@$$CBUPointKey@CSGPMMFile@@M@2@XZ 0000000180061980 f i sgpmm.obj
 0001:000609a0       ??Eiterator@?$_Tree@V?$_Tmap_traits@UPointKey@CSGPMMFile@@MU?$less@UPointKey@CSGPMMFile@@@std@@V?$allocator@U?$pair@$$CBUPointKey@CSGPMMFile@@M@std@@@4@$0A@@std@@@std@@QEAA?AV012@H@Z 00000001800619a0 f i sgpmm.obj
 0001:00060a30       ??8const_iterator@?$_Tree@V?$_Tmap_traits@UPointKey@CSGPMMFile@@MU?$less@UPointKey@CSGPMMFile@@@std@@V?$allocator@U?$pair@$$CBUPointKey@CSGPMMFile@@M@std@@@4@$0A@@std@@@std@@QEBA_NAEBV012@@Z 0000000180061a30 f i sgpmm.obj
 0001:00060b40       ??9const_iterator@?$_Tree@V?$_Tmap_traits@UPointKey@CSGPMMFile@@MU?$less@UPointKey@CSGPMMFile@@@std@@V?$allocator@U?$pair@$$CBUPointKey@CSGPMMFile@@M@std@@@4@$0A@@std@@@std@@QEBA_NAEBV012@@Z 0000000180061b40 f i sgpmm.obj
 0001:00060b90       ??0?$pair@$$CBUPointKey@CSGPMMFile@@M@std@@QEAA@AEBUPointKey@CSGPMMFile@@AEBM@Z 0000000180061b90 f i sgpmm.obj
 0001:00060c00       ??0?$vector@UPoint@CSGPMMFile@@V?$allocator@UPoint@CSGPMMFile@@@std@@@std@@QEAA@XZ 0000000180061c00 f i sgpmm.obj
 0001:00060c60       ??1?$vector@UPoint@CSGPMMFile@@V?$allocator@UPoint@CSGPMMFile@@@std@@@std@@QEAA@XZ 0000000180061c60 f i sgpmm.obj
 0001:00060ca0       ??4?$vector@UPoint@CSGPMMFile@@V?$allocator@UPoint@CSGPMMFile@@@std@@@std@@QEAAAEAV01@AEBV01@@Z 0000000180061ca0 f i sgpmm.obj
 0001:00060f30       ?begin@?$vector@UPoint@CSGPMMFile@@V?$allocator@UPoint@CSGPMMFile@@@std@@@std@@QEAA?AV?$_Vector_iterator@UPoint@CSGPMMFile@@V?$allocator@UPoint@CSGPMMFile@@@std@@@2@XZ 0000000180061f30 f i sgpmm.obj
 0001:00060f90       ?end@?$vector@UPoint@CSGPMMFile@@V?$allocator@UPoint@CSGPMMFile@@@std@@@std@@QEAA?AV?$_Vector_iterator@UPoint@CSGPMMFile@@V?$allocator@UPoint@CSGPMMFile@@@std@@@2@XZ 0000000180061f90 f i sgpmm.obj
 0001:00060ff0       ?push_back@?$vector@UPoint@CSGPMMFile@@V?$allocator@UPoint@CSGPMMFile@@@std@@@std@@QEAAXAEBUPoint@CSGPMMFile@@@Z 0000000180061ff0 f i sgpmm.obj
 0001:00061160       ?clear@?$vector@UPoint@CSGPMMFile@@V?$allocator@UPoint@CSGPMMFile@@@std@@@std@@QEAAXXZ 0000000180062160 f i sgpmm.obj
 0001:000612c0       ??0?$_Vector_iterator@UPoint@CSGPMMFile@@V?$allocator@UPoint@CSGPMMFile@@@std@@@std@@QEAA@XZ 00000001800622c0 f i sgpmm.obj
 0001:000612f0       ??D?$_Vector_iterator@UPoint@CSGPMMFile@@V?$allocator@UPoint@CSGPMMFile@@@std@@@std@@QEBAAEAUPoint@CSGPMMFile@@XZ 00000001800622f0 f i sgpmm.obj
 0001:00061310       ??E?$_Vector_iterator@UPoint@CSGPMMFile@@V?$allocator@UPoint@CSGPMMFile@@@std@@@std@@QEAA?AV01@H@Z 0000000180062310 f i sgpmm.obj
 0001:000613a0       ??9?$_Vector_const_iterator@UPoint@CSGPMMFile@@V?$allocator@UPoint@CSGPMMFile@@@std@@@std@@QEBA_NAEBV01@@Z 00000001800623a0 f i sgpmm.obj
 0001:000613f0       ?push_back@?$vector@V?$vector@UPoint@CSGPMMFile@@V?$allocator@UPoint@CSGPMMFile@@@std@@@std@@V?$allocator@V?$vector@UPoint@CSGPMMFile@@V?$allocator@UPoint@CSGPMMFile@@@std@@@std@@@2@@std@@QEAAXAEBV?$vector@UPoint@CSGPMMFile@@V?$allocator@UPoint@CSGPMMFile@@@std@@@2@@Z 00000001800623f0 f i sgpmm.obj
 0001:00061560       ?clear@?$vector@V?$vector@UPoint@CSGPMMFile@@V?$allocator@UPoint@CSGPMMFile@@@std@@@std@@V?$allocator@V?$vector@UPoint@CSGPMMFile@@V?$allocator@UPoint@CSGPMMFile@@@std@@@std@@@2@@std@@QEAAXXZ 0000000180062560 f i sgpmm.obj
 0001:000616c0       ?push_back@?$vector@_KV?$allocator@_K@std@@@std@@QEAAXAEB_K@Z 00000001800626c0 f i sgpmm.obj
 0001:00061830       ?clear@?$vector@_KV?$allocator@_K@std@@@std@@QEAAXXZ 0000000180062830 f i sgpmm.obj
 0001:00061990       ?push_back@?$vector@MV?$allocator@M@std@@@std@@QEAAXAEBM@Z 0000000180062990 f i sgpmm.obj
 0001:00061b00       ?clear@?$vector@MV?$allocator@M@std@@@std@@QEAAXXZ 0000000180062b00 f i sgpmm.obj
 0001:00061c60       ??1?$_Tree_val@V?$_Tmap_traits@UPointKey@CSGPMMFile@@MU?$less@UPointKey@CSGPMMFile@@@std@@V?$allocator@U?$pair@$$CBUPointKey@CSGPMMFile@@M@std@@@4@$0A@@std@@@std@@QEAA@XZ 0000000180062c60 f i sgpmm.obj
 0001:00061c80       ??0iterator@?$_Tree@V?$_Tmap_traits@UPointKey@CSGPMMFile@@MU?$less@UPointKey@CSGPMMFile@@@std@@V?$allocator@U?$pair@$$CBUPointKey@CSGPMMFile@@M@std@@@4@$0A@@std@@@std@@QEAA@AEBV012@@Z 0000000180062c80 f i sgpmm.obj
 0001:00061cb0       ??1?$_Vector_val@UPoint@CSGPMMFile@@V?$allocator@UPoint@CSGPMMFile@@@std@@@std@@QEAA@XZ 0000000180062cb0 f i sgpmm.obj
 0001:00061cd0       ??0?$_Vector_const_iterator@UPoint@CSGPMMFile@@V?$allocator@UPoint@CSGPMMFile@@@std@@@std@@QEAA@AEBV01@@Z 0000000180062cd0 f i sgpmm.obj
 0001:00061d20       ??0?$_Vector_iterator@UPoint@CSGPMMFile@@V?$allocator@UPoint@CSGPMMFile@@@std@@@std@@QEAA@AEBV01@@Z 0000000180062d20 f i sgpmm.obj
 0001:00061d50       ??1?$_Vector_iterator@V?$vector@UPoint@CSGPMMFile@@V?$allocator@UPoint@CSGPMMFile@@@std@@@std@@V?$allocator@V?$vector@UPoint@CSGPMMFile@@V?$allocator@UPoint@CSGPMMFile@@@std@@@std@@@2@@std@@QEAA@XZ 0000000180062d50 f i sgpmm.obj
 0001:00061d70       ??0?$_Vector_const_iterator@V?$vector@UPoint@CSGPMMFile@@V?$allocator@UPoint@CSGPMMFile@@@std@@@std@@V?$allocator@V?$vector@UPoint@CSGPMMFile@@V?$allocator@UPoint@CSGPMMFile@@@std@@@std@@@2@@std@@QEAA@AEBV01@@Z 0000000180062d70 f i sgpmm.obj
 0001:00061dc0       ??1?$_Vector_const_iterator@V?$vector@UPoint@CSGPMMFile@@V?$allocator@UPoint@CSGPMMFile@@@std@@@std@@V?$allocator@V?$vector@UPoint@CSGPMMFile@@V?$allocator@UPoint@CSGPMMFile@@@std@@@std@@@2@@std@@QEAA@XZ 0000000180062dc0 f i sgpmm.obj
 0001:00061de0       ??1?$_Vector_iterator@_KV?$allocator@_K@std@@@std@@QEAA@XZ 0000000180062de0 f i sgpmm.obj
 0001:00061e00       ??0?$_Vector_const_iterator@_KV?$allocator@_K@std@@@std@@QEAA@AEBV01@@Z 0000000180062e00 f i sgpmm.obj
 0001:00061e50       ??1?$_Vector_const_iterator@_KV?$allocator@_K@std@@@std@@QEAA@XZ 0000000180062e50 f i sgpmm.obj
 0001:00061e70       ??1?$_Vector_iterator@MV?$allocator@M@std@@@std@@QEAA@XZ 0000000180062e70 f i sgpmm.obj
 0001:00061e90       ??0?$_Vector_const_iterator@MV?$allocator@M@std@@@std@@QEAA@AEBV01@@Z 0000000180062e90 f i sgpmm.obj
 0001:00061ee0       ??1?$_Vector_const_iterator@MV?$allocator@M@std@@@std@@QEAA@XZ 0000000180062ee0 f i sgpmm.obj
 0001:00061f00       ??1?$_Tree_ptr@V?$_Tmap_traits@UPointKey@CSGPMMFile@@MU?$less@UPointKey@CSGPMMFile@@@std@@V?$allocator@U?$pair@$$CBUPointKey@CSGPMMFile@@M@std@@@4@$0A@@std@@@std@@QEAA@XZ 0000000180062f00 f i sgpmm.obj
 0001:00061f20       ??0const_iterator@?$_Tree@V?$_Tmap_traits@UPointKey@CSGPMMFile@@MU?$less@UPointKey@CSGPMMFile@@@std@@V?$allocator@U?$pair@$$CBUPointKey@CSGPMMFile@@M@std@@@4@$0A@@std@@@std@@QEAA@AEBV012@@Z 0000000180062f20 f i sgpmm.obj
 0001:00061f70       ??0?$_Ranit@UPoint@CSGPMMFile@@_JPEBU12@AEBU12@@std@@QEAA@AEBU01@@Z 0000000180062f70 f i sgpmm.obj
 0001:00061fa0       ??0?$_Ranit@V?$vector@UPoint@CSGPMMFile@@V?$allocator@UPoint@CSGPMMFile@@@std@@@std@@_JPEBV12@AEBV12@@std@@QEAA@AEBU01@@Z 0000000180062fa0 f i sgpmm.obj
 0001:00061fd0       ??1?$_Ranit@V?$vector@UPoint@CSGPMMFile@@V?$allocator@UPoint@CSGPMMFile@@@std@@@std@@_JPEBV12@AEBV12@@std@@QEAA@XZ 0000000180062fd0 f i sgpmm.obj
 0001:00061ff0       ??0?$_Ranit@_K_JPEB_KAEB_K@std@@QEAA@AEBU01@@Z 0000000180062ff0 f i sgpmm.obj
 0001:00062020       ??1?$_Ranit@_K_JPEB_KAEB_K@std@@QEAA@XZ 0000000180063020 f i sgpmm.obj
 0001:00062040       ??0?$_Ranit@M_JPEBMAEBM@std@@QEAA@AEBU01@@Z 0000000180063040 f i sgpmm.obj
 0001:00062070       ??1?$_Ranit@M_JPEBMAEBM@std@@QEAA@XZ 0000000180063070 f i sgpmm.obj
 0001:00062090       ??1?$_Tree_nod@V?$_Tmap_traits@UPointKey@CSGPMMFile@@MU?$less@UPointKey@CSGPMMFile@@@std@@V?$allocator@U?$pair@$$CBUPointKey@CSGPMMFile@@M@std@@@4@$0A@@std@@@std@@QEAA@XZ 0000000180063090 f i sgpmm.obj
 0001:000620b0       ??0?$_Bidit@U?$pair@$$CBUPointKey@CSGPMMFile@@M@std@@_JPEBU12@AEBU12@@std@@QEAA@AEBU01@@Z 00000001800630b0 f i sgpmm.obj
 0001:000620e0       ??0?$_Iterator_with_base@Urandom_access_iterator_tag@std@@UPoint@CSGPMMFile@@_JPEBU34@AEBU34@V_Iterator_base@2@@std@@QEAA@AEBU01@@Z 00000001800630e0 f i sgpmm.obj
 0001:00062110       ??0?$_Iterator_with_base@Urandom_access_iterator_tag@std@@V?$vector@UPoint@CSGPMMFile@@V?$allocator@UPoint@CSGPMMFile@@@std@@@2@_JPEBV32@AEBV32@V_Iterator_base@2@@std@@QEAA@AEBU01@@Z 0000000180063110 f i sgpmm.obj
 0001:00062140       ??1?$_Iterator_with_base@Urandom_access_iterator_tag@std@@V?$vector@UPoint@CSGPMMFile@@V?$allocator@UPoint@CSGPMMFile@@@std@@@2@_JPEBV32@AEBV32@V_Iterator_base@2@@std@@QEAA@XZ 0000000180063140 f i sgpmm.obj
 0001:00062160       ??0?$_Iterator_with_base@Urandom_access_iterator_tag@std@@_K_JPEB_KAEB_KV_Iterator_base@2@@std@@QEAA@AEBU01@@Z 0000000180063160 f i sgpmm.obj
 0001:00062190       ??1?$_Iterator_with_base@Urandom_access_iterator_tag@std@@_K_JPEB_KAEB_KV_Iterator_base@2@@std@@QEAA@XZ 0000000180063190 f i sgpmm.obj
 0001:000621b0       ??0?$_Iterator_with_base@Urandom_access_iterator_tag@std@@M_JPEBMAEBMV_Iterator_base@2@@std@@QEAA@AEBU01@@Z 00000001800631b0 f i sgpmm.obj
 0001:000621e0       ??1?$_Iterator_with_base@Urandom_access_iterator_tag@std@@M_JPEBMAEBMV_Iterator_base@2@@std@@QEAA@XZ 00000001800631e0 f i sgpmm.obj
 0001:00062200       ??1?$_Tmap_traits@UPointKey@CSGPMMFile@@MU?$less@UPointKey@CSGPMMFile@@@std@@V?$allocator@U?$pair@$$CBUPointKey@CSGPMMFile@@M@std@@@4@$0A@@std@@QEAA@XZ 0000000180063200 f i sgpmm.obj
 0001:00062220       ??0?$_Iterator_with_base@Ubidirectional_iterator_tag@std@@U?$pair@$$CBUPointKey@CSGPMMFile@@M@2@_JPEBU32@AEBU32@V_Iterator_base@2@@std@@QEAA@AEBU01@@Z 0000000180063220 f i sgpmm.obj
 0001:00062250       ?_Isnil@?$_Tree@V?$_Tmap_traits@UPointKey@CSGPMMFile@@MU?$less@UPointKey@CSGPMMFile@@@std@@V?$allocator@U?$pair@$$CBUPointKey@CSGPMMFile@@M@std@@@4@$0A@@std@@@std@@KAAEADPEAU_Node@?$_Tree_nod@V?$_Tmap_traits@UPointKey@CSGPMMFile@@MU?$less@UPointKey@CSGPMMFile@@@std@@V?$allocator@U?$pair@$$CBUPointKey@CSGPMMFile@@M@std@@@4@$0A@@std@@@2@@Z 0000000180063250 f i sgpmm.obj
 0001:00062270       ?_Key@?$_Tree@V?$_Tmap_traits@UPointKey@CSGPMMFile@@MU?$less@UPointKey@CSGPMMFile@@@std@@V?$allocator@U?$pair@$$CBUPointKey@CSGPMMFile@@M@std@@@4@$0A@@std@@@std@@KAAEBUPointKey@CSGPMMFile@@PEAU_Node@?$_Tree_nod@V?$_Tmap_traits@UPointKey@CSGPMMFile@@MU?$less@UPointKey@CSGPMMFile@@@std@@V?$allocator@U?$pair@$$CBUPointKey@CSGPMMFile@@M@std@@@4@$0A@@std@@@2@@Z 0000000180063270 f i sgpmm.obj
 0001:000622a0       ?_Left@?$_Tree@V?$_Tmap_traits@UPointKey@CSGPMMFile@@MU?$less@UPointKey@CSGPMMFile@@@std@@V?$allocator@U?$pair@$$CBUPointKey@CSGPMMFile@@M@std@@@4@$0A@@std@@@std@@KAAEAPEAU_Node@?$_Tree_nod@V?$_Tmap_traits@UPointKey@CSGPMMFile@@MU?$less@UPointKey@CSGPMMFile@@@std@@V?$allocator@U?$pair@$$CBUPointKey@CSGPMMFile@@M@std@@@4@$0A@@std@@@2@PEAU342@@Z 00000001800632a0 f i sgpmm.obj
 0001:000622b0       ?_Right@?$_Tree@V?$_Tmap_traits@UPointKey@CSGPMMFile@@MU?$less@UPointKey@CSGPMMFile@@@std@@V?$allocator@U?$pair@$$CBUPointKey@CSGPMMFile@@M@std@@@4@$0A@@std@@@std@@KAAEAPEAU_Node@?$_Tree_nod@V?$_Tmap_traits@UPointKey@CSGPMMFile@@MU?$less@UPointKey@CSGPMMFile@@@std@@V?$allocator@U?$pair@$$CBUPointKey@CSGPMMFile@@M@std@@@4@$0A@@std@@@2@PEAU342@@Z 00000001800632b0 f i sgpmm.obj
 0001:000622d0       ??0?$_Tree@V?$_Tmap_traits@UPointKey@CSGPMMFile@@MU?$less@UPointKey@CSGPMMFile@@@std@@V?$allocator@U?$pair@$$CBUPointKey@CSGPMMFile@@M@std@@@4@$0A@@std@@@std@@QEAA@AEBU?$less@UPointKey@CSGPMMFile@@@1@AEBV?$allocator@U?$pair@$$CBUPointKey@CSGPMMFile@@M@std@@@1@@Z 00000001800632d0 f i sgpmm.obj
 0001:00062350       ?lower_bound@?$_Tree@V?$_Tmap_traits@UPointKey@CSGPMMFile@@MU?$less@UPointKey@CSGPMMFile@@@std@@V?$allocator@U?$pair@$$CBUPointKey@CSGPMMFile@@M@std@@@4@$0A@@std@@@std@@QEAA?AViterator@12@AEBUPointKey@CSGPMMFile@@@Z 0000000180063350 f i sgpmm.obj
 0001:000623c0       ?_Erase@?$_Tree@V?$_Tmap_traits@UPointKey@CSGPMMFile@@MU?$less@UPointKey@CSGPMMFile@@@std@@V?$allocator@U?$pair@$$CBUPointKey@CSGPMMFile@@M@std@@@4@$0A@@std@@@std@@IEAAXPEAU_Node@?$_Tree_nod@V?$_Tmap_traits@UPointKey@CSGPMMFile@@MU?$less@UPointKey@CSGPMMFile@@@std@@V?$allocator@U?$pair@$$CBUPointKey@CSGPMMFile@@M@std@@@4@$0A@@std@@@2@@Z 00000001800633c0 f i sgpmm.obj
 0001:00062480       ?_Insert@?$_Tree@V?$_Tmap_traits@UPointKey@CSGPMMFile@@MU?$less@UPointKey@CSGPMMFile@@@std@@V?$allocator@U?$pair@$$CBUPointKey@CSGPMMFile@@M@std@@@4@$0A@@std@@@std@@IEAA?AViterator@12@_NPEAU_Node@?$_Tree_nod@V?$_Tmap_traits@UPointKey@CSGPMMFile@@MU?$less@UPointKey@CSGPMMFile@@@std@@V?$allocator@U?$pair@$$CBUPointKey@CSGPMMFile@@M@std@@@4@$0A@@std@@@2@AEBU?$pair@$$CBUPointKey@CSGPMMFile@@M@2@@Z 0000000180063480 f i sgpmm.obj
 0001:00062ae0       ?_Lmost@?$_Tree@V?$_Tmap_traits@UPointKey@CSGPMMFile@@MU?$less@UPointKey@CSGPMMFile@@@std@@V?$allocator@U?$pair@$$CBUPointKey@CSGPMMFile@@M@std@@@4@$0A@@std@@@std@@IEBAAEAPEAU_Node@?$_Tree_nod@V?$_Tmap_traits@UPointKey@CSGPMMFile@@MU?$less@UPointKey@CSGPMMFile@@@std@@V?$allocator@U?$pair@$$CBUPointKey@CSGPMMFile@@M@std@@@4@$0A@@std@@@2@XZ 0000000180063ae0 f i sgpmm.obj
 0001:00062b10       ?_Rmost@?$_Tree@V?$_Tmap_traits@UPointKey@CSGPMMFile@@MU?$less@UPointKey@CSGPMMFile@@@std@@V?$allocator@U?$pair@$$CBUPointKey@CSGPMMFile@@M@std@@@4@$0A@@std@@@std@@IEBAAEAPEAU_Node@?$_Tree_nod@V?$_Tmap_traits@UPointKey@CSGPMMFile@@MU?$less@UPointKey@CSGPMMFile@@@std@@V?$allocator@U?$pair@$$CBUPointKey@CSGPMMFile@@M@std@@@4@$0A@@std@@@2@XZ 0000000180063b10 f i sgpmm.obj
 0001:00062b40       ?_Root@?$_Tree@V?$_Tmap_traits@UPointKey@CSGPMMFile@@MU?$less@UPointKey@CSGPMMFile@@@std@@V?$allocator@U?$pair@$$CBUPointKey@CSGPMMFile@@M@std@@@4@$0A@@std@@@std@@IEBAAEAPEAU_Node@?$_Tree_nod@V?$_Tmap_traits@UPointKey@CSGPMMFile@@MU?$less@UPointKey@CSGPMMFile@@@std@@V?$allocator@U?$pair@$$CBUPointKey@CSGPMMFile@@M@std@@@4@$0A@@std@@@2@XZ 0000000180063b40 f i sgpmm.obj
 0001:00062b70       ?_Orphan_ptr@?$_Tree@V?$_Tmap_traits@UPointKey@CSGPMMFile@@MU?$less@UPointKey@CSGPMMFile@@@std@@V?$allocator@U?$pair@$$CBUPointKey@CSGPMMFile@@M@std@@@4@$0A@@std@@@std@@IEBAXAEAV12@PEAU_Node@?$_Tree_nod@V?$_Tmap_traits@UPointKey@CSGPMMFile@@MU?$less@UPointKey@CSGPMMFile@@@std@@V?$allocator@U?$pair@$$CBUPointKey@CSGPMMFile@@M@std@@@4@$0A@@std@@@2@@Z 0000000180063b70 f i sgpmm.obj
 0001:00062c50       ?_Tidy@?$_Tree@V?$_Tmap_traits@UPointKey@CSGPMMFile@@MU?$less@UPointKey@CSGPMMFile@@@std@@V?$allocator@U?$pair@$$CBUPointKey@CSGPMMFile@@M@std@@@4@$0A@@std@@@std@@IEAAXXZ 0000000180063c50 f i sgpmm.obj
 0001:00062e90       ?_Kfn@?$_Tmap_traits@UPointKey@CSGPMMFile@@MU?$less@UPointKey@CSGPMMFile@@@std@@V?$allocator@U?$pair@$$CBUPointKey@CSGPMMFile@@M@std@@@4@$0A@@std@@SAAEBUPointKey@CSGPMMFile@@AEBU?$pair@$$CBUPointKey@CSGPMMFile@@M@2@@Z 0000000180063e90 f i sgpmm.obj
 0001:00062ea0       ??1?$_Container_base_aux_alloc_empty@V?$allocator@U?$pair@$$CBUPointKey@CSGPMMFile@@M@std@@@std@@@std@@IEAA@XZ 0000000180063ea0 f i sgpmm.obj
 0001:00062ec0       ??0?$allocator@U?$pair@$$CBUPointKey@CSGPMMFile@@M@std@@@std@@QEAA@XZ 0000000180063ec0 f i sgpmm.obj
 0001:00062ed0       ??0iterator@?$_Tree@V?$_Tmap_traits@UPointKey@CSGPMMFile@@MU?$less@UPointKey@CSGPMMFile@@@std@@V?$allocator@U?$pair@$$CBUPointKey@CSGPMMFile@@M@std@@@4@$0A@@std@@@std@@QEAA@PEAU_Node@?$_Tree_nod@V?$_Tmap_traits@UPointKey@CSGPMMFile@@MU?$less@UPointKey@CSGPMMFile@@@std@@V?$allocator@U?$pair@$$CBUPointKey@CSGPMMFile@@M@std@@@4@$0A@@std@@@2@PEBV12@@Z 0000000180063ed0 f i sgpmm.obj
 0001:00062f10       ??Eiterator@?$_Tree@V?$_Tmap_traits@UPointKey@CSGPMMFile@@MU?$less@UPointKey@CSGPMMFile@@@std@@V?$allocator@U?$pair@$$CBUPointKey@CSGPMMFile@@M@std@@@4@$0A@@std@@@std@@QEAAAEAV012@XZ 0000000180063f10 f i sgpmm.obj
 0001:00062f40       ??Fiterator@?$_Tree@V?$_Tmap_traits@UPointKey@CSGPMMFile@@MU?$less@UPointKey@CSGPMMFile@@@std@@V?$allocator@U?$pair@$$CBUPointKey@CSGPMMFile@@M@std@@@4@$0A@@std@@@std@@QEAAAEAV012@XZ 0000000180063f40 f i sgpmm.obj
 0001:00062f70       ??Dconst_iterator@?$_Tree@V?$_Tmap_traits@UPointKey@CSGPMMFile@@MU?$less@UPointKey@CSGPMMFile@@@std@@V?$allocator@U?$pair@$$CBUPointKey@CSGPMMFile@@M@std@@@4@$0A@@std@@@std@@QEBAAEBU?$pair@$$CBUPointKey@CSGPMMFile@@M@2@XZ 0000000180063f70 f i sgpmm.obj
 0001:00063070       ?_Mynode@const_iterator@?$_Tree@V?$_Tmap_traits@UPointKey@CSGPMMFile@@MU?$less@UPointKey@CSGPMMFile@@@std@@V?$allocator@U?$pair@$$CBUPointKey@CSGPMMFile@@M@std@@@4@$0A@@std@@@std@@QEBAPEAU_Node@?$_Tree_nod@V?$_Tmap_traits@UPointKey@CSGPMMFile@@MU?$less@UPointKey@CSGPMMFile@@@std@@V?$allocator@U?$pair@$$CBUPointKey@CSGPMMFile@@M@std@@@4@$0A@@std@@@3@XZ 0000000180064070 f i sgpmm.obj
 0001:00063090       ??0?$pair@Viterator@?$_Tree@V?$_Tmap_traits@UPointKey@CSGPMMFile@@MU?$less@UPointKey@CSGPMMFile@@@std@@V?$allocator@U?$pair@$$CBUPointKey@CSGPMMFile@@M@std@@@4@$0A@@std@@@std@@_N@std@@QEAA@AEBViterator@?$_Tree@V?$_Tmap_traits@UPointKey@CSGPMMFile@@MU?$less@UPointKey@CSGPMMFile@@@std@@V?$allocator@U?$pair@$$CBUPointKey@CSGPMMFile@@M@std@@@4@$0A@@std@@@1@AEB_N@Z 0000000180064090 f i sgpmm.obj
 0001:000630e0       ?capacity@?$vector@UPoint@CSGPMMFile@@V?$allocator@UPoint@CSGPMMFile@@@std@@@std@@QEBA_KXZ 00000001800640e0 f i sgpmm.obj
 0001:00063140       ?size@?$vector@UPoint@CSGPMMFile@@V?$allocator@UPoint@CSGPMMFile@@@std@@@std@@QEBA_KXZ 0000000180064140 f i sgpmm.obj
 0001:00063170       ?insert@?$vector@UPoint@CSGPMMFile@@V?$allocator@UPoint@CSGPMMFile@@@std@@@std@@QEAA?AV?$_Vector_iterator@UPoint@CSGPMMFile@@V?$allocator@UPoint@CSGPMMFile@@@std@@@2@V?$_Vector_const_iterator@UPoint@CSGPMMFile@@V?$allocator@UPoint@CSGPMMFile@@@std@@@2@AEBUPoint@CSGPMMFile@@@Z 0000000180064170 f i sgpmm.obj
 0001:00063360       ?erase@?$vector@UPoint@CSGPMMFile@@V?$allocator@UPoint@CSGPMMFile@@@std@@@std@@QEAA?AV?$_Vector_iterator@UPoint@CSGPMMFile@@V?$allocator@UPoint@CSGPMMFile@@@std@@@2@V?$_Vector_const_iterator@UPoint@CSGPMMFile@@V?$allocator@UPoint@CSGPMMFile@@@std@@@2@0@Z 0000000180064360 f i sgpmm.obj
 0001:00063600       ?_Buy@?$vector@UPoint@CSGPMMFile@@V?$allocator@UPoint@CSGPMMFile@@@std@@@std@@IEAA_N_K@Z 0000000180064600 f i sgpmm.obj
 0001:000636e0       ?_Destroy@?$vector@UPoint@CSGPMMFile@@V?$allocator@UPoint@CSGPMMFile@@@std@@@std@@IEAAXPEAUPoint@CSGPMMFile@@0@Z 00000001800646e0 f i sgpmm.obj
 0001:00063720       ?_Tidy@?$vector@UPoint@CSGPMMFile@@V?$allocator@UPoint@CSGPMMFile@@@std@@@std@@IEAAXXZ 0000000180064720 f i sgpmm.obj
 0001:000637f0       ?_Ufill@?$vector@UPoint@CSGPMMFile@@V?$allocator@UPoint@CSGPMMFile@@@std@@@std@@IEAAPEAUPoint@CSGPMMFile@@PEAU34@_KAEBU34@@Z 00000001800647f0 f i sgpmm.obj
 0001:00063850       ?_Orphan_range@?$vector@UPoint@CSGPMMFile@@V?$allocator@UPoint@CSGPMMFile@@@std@@@std@@IEBAXPEAUPoint@CSGPMMFile@@0@Z 0000000180064850 f i sgpmm.obj
 0001:00063920       ??0?$_Vector_val@UPoint@CSGPMMFile@@V?$allocator@UPoint@CSGPMMFile@@@std@@@std@@IEAA@V?$allocator@UPoint@CSGPMMFile@@@1@@Z 0000000180064920 f i sgpmm.obj
 0001:00063990       ??1?$_Container_base_aux_alloc_empty@V?$allocator@UPoint@CSGPMMFile@@@std@@@std@@IEAA@XZ 0000000180064990 f i sgpmm.obj
 0001:000639b0       ??0?$allocator@UPoint@CSGPMMFile@@@std@@QEAA@XZ 00000001800649b0 f i sgpmm.obj
 0001:000639c0       ?deallocate@?$allocator@UPoint@CSGPMMFile@@@std@@QEAAXPEAUPoint@CSGPMMFile@@_K@Z 00000001800649c0 f i sgpmm.obj
 0001:000639f0       ??0?$_Vector_iterator@UPoint@CSGPMMFile@@V?$allocator@UPoint@CSGPMMFile@@@std@@@std@@QEAA@PEAUPoint@CSGPMMFile@@PEBV_Container_base_secure@1@@Z 00000001800649f0 f i sgpmm.obj
 0001:00063a30       ??E?$_Vector_iterator@UPoint@CSGPMMFile@@V?$allocator@UPoint@CSGPMMFile@@@std@@@std@@QEAAAEAV01@XZ 0000000180064a30 f i sgpmm.obj
 0001:00063a60       ??0?$_Vector_const_iterator@UPoint@CSGPMMFile@@V?$allocator@UPoint@CSGPMMFile@@@std@@@std@@QEAA@XZ 0000000180064a60 f i sgpmm.obj
 0001:00063aa0       ??D?$_Vector_const_iterator@UPoint@CSGPMMFile@@V?$allocator@UPoint@CSGPMMFile@@@std@@@std@@QEBAAEBUPoint@CSGPMMFile@@XZ 0000000180064aa0 f i sgpmm.obj
 0001:00063ba0       ??8?$_Vector_const_iterator@UPoint@CSGPMMFile@@V?$allocator@UPoint@CSGPMMFile@@@std@@@std@@QEBA_NAEBV01@@Z 0000000180064ba0 f i sgpmm.obj
 0001:00063c00       ?capacity@?$vector@V?$vector@UPoint@CSGPMMFile@@V?$allocator@UPoint@CSGPMMFile@@@std@@@std@@V?$allocator@V?$vector@UPoint@CSGPMMFile@@V?$allocator@UPoint@CSGPMMFile@@@std@@@std@@@2@@std@@QEBA_KXZ 0000000180064c00 f i sgpmm.obj
 0001:00063c60       ?begin@?$vector@V?$vector@UPoint@CSGPMMFile@@V?$allocator@UPoint@CSGPMMFile@@@std@@@std@@V?$allocator@V?$vector@UPoint@CSGPMMFile@@V?$allocator@UPoint@CSGPMMFile@@@std@@@std@@@2@@std@@QEAA?AV?$_Vector_iterator@V?$vector@UPoint@CSGPMMFile@@V?$allocator@UPoint@CSGPMMFile@@@std@@@std@@V?$allocator@V?$vector@UPoint@CSGPMMFile@@V?$allocator@UPoint@CSGPMMFile@@@std@@@std@@@2@@2@XZ 0000000180064c60 f i sgpmm.obj
 0001:00063cc0       ?end@?$vector@V?$vector@UPoint@CSGPMMFile@@V?$allocator@UPoint@CSGPMMFile@@@std@@@std@@V?$allocator@V?$vector@UPoint@CSGPMMFile@@V?$allocator@UPoint@CSGPMMFile@@@std@@@std@@@2@@std@@QEAA?AV?$_Vector_iterator@V?$vector@UPoint@CSGPMMFile@@V?$allocator@UPoint@CSGPMMFile@@@std@@@std@@V?$allocator@V?$vector@UPoint@CSGPMMFile@@V?$allocator@UPoint@CSGPMMFile@@@std@@@std@@@2@@2@XZ 0000000180064cc0 f i sgpmm.obj
 0001:00063d20       ?size@?$vector@V?$vector@UPoint@CSGPMMFile@@V?$allocator@UPoint@CSGPMMFile@@@std@@@std@@V?$allocator@V?$vector@UPoint@CSGPMMFile@@V?$allocator@UPoint@CSGPMMFile@@@std@@@std@@@2@@std@@QEBA_KXZ 0000000180064d20 f i sgpmm.obj
 0001:00063d50       ?insert@?$vector@V?$vector@UPoint@CSGPMMFile@@V?$allocator@UPoint@CSGPMMFile@@@std@@@std@@V?$allocator@V?$vector@UPoint@CSGPMMFile@@V?$allocator@UPoint@CSGPMMFile@@@std@@@std@@@2@@std@@QEAA?AV?$_Vector_iterator@V?$vector@UPoint@CSGPMMFile@@V?$allocator@UPoint@CSGPMMFile@@@std@@@std@@V?$allocator@V?$vector@UPoint@CSGPMMFile@@V?$allocator@UPoint@CSGPMMFile@@@std@@@std@@@2@@2@V?$_Vector_const_iterator@V?$vector@UPoint@CSGPMMFile@@V?$allocator@UPoint@CSGPMMFile@@@std@@@std@@V?$allocator@V?$vector@UPoint@CSGPMMFile@@V?$allocator@UPoint@CSGPMMFile@@@std@@@std@@@2@@2@AEBV?$vector@UPoint@CSGPMMFile@@V?$allocator@UPoint@CSGPMMFile@@@std@@@2@@Z 0000000180064d50 f i sgpmm.obj
 0001:00063f40       ?erase@?$vector@V?$vector@UPoint@CSGPMMFile@@V?$allocator@UPoint@CSGPMMFile@@@std@@@std@@V?$allocator@V?$vector@UPoint@CSGPMMFile@@V?$allocator@UPoint@CSGPMMFile@@@std@@@std@@@2@@std@@QEAA?AV?$_Vector_iterator@V?$vector@UPoint@CSGPMMFile@@V?$allocator@UPoint@CSGPMMFile@@@std@@@std@@V?$allocator@V?$vector@UPoint@CSGPMMFile@@V?$allocator@UPoint@CSGPMMFile@@@std@@@std@@@2@@2@V?$_Vector_const_iterator@V?$vector@UPoint@CSGPMMFile@@V?$allocator@UPoint@CSGPMMFile@@@std@@@std@@V?$allocator@V?$vector@UPoint@CSGPMMFile@@V?$allocator@UPoint@CSGPMMFile@@@std@@@std@@@2@@2@0@Z 0000000180064f40 f i sgpmm.obj
 0001:000641e0       ?_Ufill@?$vector@V?$vector@UPoint@CSGPMMFile@@V?$allocator@UPoint@CSGPMMFile@@@std@@@std@@V?$allocator@V?$vector@UPoint@CSGPMMFile@@V?$allocator@UPoint@CSGPMMFile@@@std@@@std@@@2@@std@@IEAAPEAV?$vector@UPoint@CSGPMMFile@@V?$allocator@UPoint@CSGPMMFile@@@std@@@2@PEAV32@_KAEBV32@@Z 00000001800651e0 f i sgpmm.obj
 0001:00064240       ?_Orphan_range@?$vector@V?$vector@UPoint@CSGPMMFile@@V?$allocator@UPoint@CSGPMMFile@@@std@@@std@@V?$allocator@V?$vector@UPoint@CSGPMMFile@@V?$allocator@UPoint@CSGPMMFile@@@std@@@std@@@2@@std@@IEBAXPEAV?$vector@UPoint@CSGPMMFile@@V?$allocator@UPoint@CSGPMMFile@@@std@@@2@0@Z 0000000180065240 f i sgpmm.obj
 0001:00064310       ?capacity@?$vector@_KV?$allocator@_K@std@@@std@@QEBA_KXZ 0000000180065310 f i sgpmm.obj
 0001:00064370       ?begin@?$vector@_KV?$allocator@_K@std@@@std@@QEAA?AV?$_Vector_iterator@_KV?$allocator@_K@std@@@2@XZ 0000000180065370 f i sgpmm.obj
 0001:000643d0       ?end@?$vector@_KV?$allocator@_K@std@@@std@@QEAA?AV?$_Vector_iterator@_KV?$allocator@_K@std@@@2@XZ 00000001800653d0 f i sgpmm.obj
 0001:00064430       ?size@?$vector@_KV?$allocator@_K@std@@@std@@QEBA_KXZ 0000000180065430 f i sgpmm.obj
 0001:00064460       ?insert@?$vector@_KV?$allocator@_K@std@@@std@@QEAA?AV?$_Vector_iterator@_KV?$allocator@_K@std@@@2@V?$_Vector_const_iterator@_KV?$allocator@_K@std@@@2@AEB_K@Z 0000000180065460 f i sgpmm.obj
 0001:00064650       ?erase@?$vector@_KV?$allocator@_K@std@@@std@@QEAA?AV?$_Vector_iterator@_KV?$allocator@_K@std@@@2@V?$_Vector_const_iterator@_KV?$allocator@_K@std@@@2@0@Z 0000000180065650 f i sgpmm.obj
 0001:000648f0       ?_Ufill@?$vector@_KV?$allocator@_K@std@@@std@@IEAAPEA_KPEA_K_KAEB_K@Z 00000001800658f0 f i sgpmm.obj
 0001:00064950       ?_Orphan_range@?$vector@_KV?$allocator@_K@std@@@std@@IEBAXPEA_K0@Z 0000000180065950 f i sgpmm.obj
 0001:00064a20       ?capacity@?$vector@MV?$allocator@M@std@@@std@@QEBA_KXZ 0000000180065a20 f i sgpmm.obj
 0001:00064a80       ?begin@?$vector@MV?$allocator@M@std@@@std@@QEAA?AV?$_Vector_iterator@MV?$allocator@M@std@@@2@XZ 0000000180065a80 f i sgpmm.obj
 0001:00064ae0       ?end@?$vector@MV?$allocator@M@std@@@std@@QEAA?AV?$_Vector_iterator@MV?$allocator@M@std@@@2@XZ 0000000180065ae0 f i sgpmm.obj
 0001:00064b40       ?size@?$vector@MV?$allocator@M@std@@@std@@QEBA_KXZ 0000000180065b40 f i sgpmm.obj
 0001:00064b70       ?insert@?$vector@MV?$allocator@M@std@@@std@@QEAA?AV?$_Vector_iterator@MV?$allocator@M@std@@@2@V?$_Vector_const_iterator@MV?$allocator@M@std@@@2@AEBM@Z 0000000180065b70 f i sgpmm.obj
 0001:00064d60       ?erase@?$vector@MV?$allocator@M@std@@@std@@QEAA?AV?$_Vector_iterator@MV?$allocator@M@std@@@2@V?$_Vector_const_iterator@MV?$allocator@M@std@@@2@0@Z 0000000180065d60 f i sgpmm.obj
 0001:00065000       ?_Ufill@?$vector@MV?$allocator@M@std@@@std@@IEAAPEAMPEAM_KAEBM@Z 0000000180066000 f i sgpmm.obj
 0001:00065060       ?_Orphan_range@?$vector@MV?$allocator@M@std@@@std@@IEBAXPEAM0@Z 0000000180066060 f i sgpmm.obj
 0001:00065130       ??0?$_Ranit@UPoint@CSGPMMFile@@_JPEBU12@AEBU12@@std@@QEAA@XZ 0000000180066130 f i sgpmm.obj
 0001:00065160       ??0?$_Iterator_with_base@Urandom_access_iterator_tag@std@@UPoint@CSGPMMFile@@_JPEBU34@AEBU34@V_Iterator_base@2@@std@@QEAA@XZ 0000000180066160 f i sgpmm.obj
 0001:00065190       ?_Color@?$_Tree@V?$_Tmap_traits@UPointKey@CSGPMMFile@@MU?$less@UPointKey@CSGPMMFile@@@std@@V?$allocator@U?$pair@$$CBUPointKey@CSGPMMFile@@M@std@@@4@$0A@@std@@@std@@KAAEADPEAU_Node@?$_Tree_nod@V?$_Tmap_traits@UPointKey@CSGPMMFile@@MU?$less@UPointKey@CSGPMMFile@@@std@@V?$allocator@U?$pair@$$CBUPointKey@CSGPMMFile@@M@std@@@4@$0A@@std@@@2@@Z 0000000180066190 f i sgpmm.obj
 0001:000651b0       ?_Parent@?$_Tree@V?$_Tmap_traits@UPointKey@CSGPMMFile@@MU?$less@UPointKey@CSGPMMFile@@@std@@V?$allocator@U?$pair@$$CBUPointKey@CSGPMMFile@@M@std@@@4@$0A@@std@@@std@@KAAEAPEAU_Node@?$_Tree_nod@V?$_Tmap_traits@UPointKey@CSGPMMFile@@MU?$less@UPointKey@CSGPMMFile@@@std@@V?$allocator@U?$pair@$$CBUPointKey@CSGPMMFile@@M@std@@@4@$0A@@std@@@2@PEAU342@@Z 00000001800661b0 f i sgpmm.obj
 0001:000651d0       ?_Myval@?$_Tree@V?$_Tmap_traits@UPointKey@CSGPMMFile@@MU?$less@UPointKey@CSGPMMFile@@@std@@V?$allocator@U?$pair@$$CBUPointKey@CSGPMMFile@@M@std@@@4@$0A@@std@@@std@@KAAEAU?$pair@$$CBUPointKey@CSGPMMFile@@M@2@PEAU_Node@?$_Tree_nod@V?$_Tmap_traits@UPointKey@CSGPMMFile@@MU?$less@UPointKey@CSGPMMFile@@@std@@V?$allocator@U?$pair@$$CBUPointKey@CSGPMMFile@@M@std@@@4@$0A@@std@@@2@@Z 00000001800661d0 f i sgpmm.obj
 0001:000651f0       ?max_size@?$_Tree@V?$_Tmap_traits@UPointKey@CSGPMMFile@@MU?$less@UPointKey@CSGPMMFile@@@std@@V?$allocator@U?$pair@$$CBUPointKey@CSGPMMFile@@M@std@@@4@$0A@@std@@@std@@QEBA_KXZ 00000001800661f0 f i sgpmm.obj
 0001:00065220       ?erase@?$_Tree@V?$_Tmap_traits@UPointKey@CSGPMMFile@@MU?$less@UPointKey@CSGPMMFile@@@std@@V?$allocator@U?$pair@$$CBUPointKey@CSGPMMFile@@M@std@@@4@$0A@@std@@@std@@QEAA?AViterator@12@Vconst_iterator@12@0@Z 0000000180066220 f i sgpmm.obj
 0001:00065590       ?_Init@?$_Tree@V?$_Tmap_traits@UPointKey@CSGPMMFile@@MU?$less@UPointKey@CSGPMMFile@@@std@@V?$allocator@U?$pair@$$CBUPointKey@CSGPMMFile@@M@std@@@4@$0A@@std@@@std@@IEAAXXZ 0000000180066590 f i sgpmm.obj
 0001:00065640       ?_Lbound@?$_Tree@V?$_Tmap_traits@UPointKey@CSGPMMFile@@MU?$less@UPointKey@CSGPMMFile@@@std@@V?$allocator@U?$pair@$$CBUPointKey@CSGPMMFile@@M@std@@@4@$0A@@std@@@std@@IEBAPEAU_Node@?$_Tree_nod@V?$_Tmap_traits@UPointKey@CSGPMMFile@@MU?$less@UPointKey@CSGPMMFile@@@std@@V?$allocator@U?$pair@$$CBUPointKey@CSGPMMFile@@M@std@@@4@$0A@@std@@@2@AEBUPointKey@CSGPMMFile@@@Z 0000000180066640 f i sgpmm.obj
 0001:00065720       ?_Lrotate@?$_Tree@V?$_Tmap_traits@UPointKey@CSGPMMFile@@MU?$less@UPointKey@CSGPMMFile@@@std@@V?$allocator@U?$pair@$$CBUPointKey@CSGPMMFile@@M@std@@@4@$0A@@std@@@std@@IEAAXPEAU_Node@?$_Tree_nod@V?$_Tmap_traits@UPointKey@CSGPMMFile@@MU?$less@UPointKey@CSGPMMFile@@@std@@V?$allocator@U?$pair@$$CBUPointKey@CSGPMMFile@@M@std@@@4@$0A@@std@@@2@@Z 0000000180066720 f i sgpmm.obj
 0001:000658c0       ?_Rrotate@?$_Tree@V?$_Tmap_traits@UPointKey@CSGPMMFile@@MU?$less@UPointKey@CSGPMMFile@@@std@@V?$allocator@U?$pair@$$CBUPointKey@CSGPMMFile@@M@std@@@4@$0A@@std@@@std@@IEAAXPEAU_Node@?$_Tree_nod@V?$_Tmap_traits@UPointKey@CSGPMMFile@@MU?$less@UPointKey@CSGPMMFile@@@std@@V?$allocator@U?$pair@$$CBUPointKey@CSGPMMFile@@M@std@@@4@$0A@@std@@@2@@Z 00000001800668c0 f i sgpmm.obj
 0001:00065a60       ?_Buynode@?$_Tree@V?$_Tmap_traits@UPointKey@CSGPMMFile@@MU?$less@UPointKey@CSGPMMFile@@@std@@V?$allocator@U?$pair@$$CBUPointKey@CSGPMMFile@@M@std@@@4@$0A@@std@@@std@@IEAAPEAU_Node@?$_Tree_nod@V?$_Tmap_traits@UPointKey@CSGPMMFile@@MU?$less@UPointKey@CSGPMMFile@@@std@@V?$allocator@U?$pair@$$CBUPointKey@CSGPMMFile@@M@std@@@4@$0A@@std@@@2@PEAU342@00AEBU?$pair@$$CBUPointKey@CSGPMMFile@@M@2@D@Z 0000000180066a60 f i sgpmm.obj
 0001:00065b50       ??0?$_Tree_val@V?$_Tmap_traits@UPointKey@CSGPMMFile@@MU?$less@UPointKey@CSGPMMFile@@@std@@V?$allocator@U?$pair@$$CBUPointKey@CSGPMMFile@@M@std@@@4@$0A@@std@@@std@@IEAA@AEBU?$less@UPointKey@CSGPMMFile@@@1@V?$allocator@U?$pair@$$CBUPointKey@CSGPMMFile@@M@std@@@1@@Z 0000000180066b50 f i sgpmm.obj
 0001:00065bd0       ??0?$allocator@U?$pair@$$CBUPointKey@CSGPMMFile@@M@std@@@std@@QEAA@AEBV01@@Z 0000000180066bd0 f i sgpmm.obj
 0001:00065bf0       ?deallocate@?$allocator@U_Node@?$_Tree_nod@V?$_Tmap_traits@UPointKey@CSGPMMFile@@MU?$less@UPointKey@CSGPMMFile@@@std@@V?$allocator@U?$pair@$$CBUPointKey@CSGPMMFile@@M@std@@@4@$0A@@std@@@std@@@std@@QEAAXPEAU_Node@?$_Tree_nod@V?$_Tmap_traits@UPointKey@CSGPMMFile@@MU?$less@UPointKey@CSGPMMFile@@@std@@V?$allocator@U?$pair@$$CBUPointKey@CSGPMMFile@@M@std@@@4@$0A@@std@@@2@_K@Z 0000000180066bf0 f i sgpmm.obj
 0001:00065c20       ?destroy@?$allocator@U_Node@?$_Tree_nod@V?$_Tmap_traits@UPointKey@CSGPMMFile@@MU?$less@UPointKey@CSGPMMFile@@@std@@V?$allocator@U?$pair@$$CBUPointKey@CSGPMMFile@@M@std@@@4@$0A@@std@@@std@@@std@@QEAAXPEAU_Node@?$_Tree_nod@V?$_Tmap_traits@UPointKey@CSGPMMFile@@MU?$less@UPointKey@CSGPMMFile@@@std@@V?$allocator@U?$pair@$$CBUPointKey@CSGPMMFile@@M@std@@@4@$0A@@std@@@2@@Z 0000000180066c20 f i sgpmm.obj
 0001:00065c50       ?destroy@?$allocator@PEAU_Node@?$_Tree_nod@V?$_Tmap_traits@UPointKey@CSGPMMFile@@MU?$less@UPointKey@CSGPMMFile@@@std@@V?$allocator@U?$pair@$$CBUPointKey@CSGPMMFile@@M@std@@@4@$0A@@std@@@std@@@std@@QEAAXPEAPEAU_Node@?$_Tree_nod@V?$_Tmap_traits@UPointKey@CSGPMMFile@@MU?$less@UPointKey@CSGPMMFile@@@std@@V?$allocator@U?$pair@$$CBUPointKey@CSGPMMFile@@M@std@@@4@$0A@@std@@@2@@Z 0000000180066c50 f i sgpmm.obj
 0001:00065c80       ??0const_iterator@?$_Tree@V?$_Tmap_traits@UPointKey@CSGPMMFile@@MU?$less@UPointKey@CSGPMMFile@@@std@@V?$allocator@U?$pair@$$CBUPointKey@CSGPMMFile@@M@std@@@4@$0A@@std@@@std@@QEAA@PEAU_Node@?$_Tree_nod@V?$_Tmap_traits@UPointKey@CSGPMMFile@@MU?$less@UPointKey@CSGPMMFile@@@std@@V?$allocator@U?$pair@$$CBUPointKey@CSGPMMFile@@M@std@@@4@$0A@@std@@@2@PEBV12@@Z 0000000180066c80 f i sgpmm.obj
 0001:00065cf0       ??Econst_iterator@?$_Tree@V?$_Tmap_traits@UPointKey@CSGPMMFile@@MU?$less@UPointKey@CSGPMMFile@@@std@@V?$allocator@U?$pair@$$CBUPointKey@CSGPMMFile@@M@std@@@4@$0A@@std@@@std@@QEAAAEAV012@XZ 0000000180066cf0 f i sgpmm.obj
 0001:00065d20       ??Fconst_iterator@?$_Tree@V?$_Tmap_traits@UPointKey@CSGPMMFile@@MU?$less@UPointKey@CSGPMMFile@@@std@@V?$allocator@U?$pair@$$CBUPointKey@CSGPMMFile@@M@std@@@4@$0A@@std@@@std@@QEAAAEAV012@XZ 0000000180066d20 f i sgpmm.obj
 0001:00065d50       ?_Make_iter@?$vector@UPoint@CSGPMMFile@@V?$allocator@UPoint@CSGPMMFile@@@std@@@std@@QEBA?AV?$_Vector_iterator@UPoint@CSGPMMFile@@V?$allocator@UPoint@CSGPMMFile@@@std@@@2@V?$_Vector_const_iterator@UPoint@CSGPMMFile@@V?$allocator@UPoint@CSGPMMFile@@@std@@@2@@Z 0000000180066d50 f i sgpmm.obj
 0001:00065dd0       ?max_size@?$vector@UPoint@CSGPMMFile@@V?$allocator@UPoint@CSGPMMFile@@@std@@@std@@QEBA_KXZ 0000000180066dd0 f i sgpmm.obj
 0001:00065e00       ?_Insert_n@?$vector@UPoint@CSGPMMFile@@V?$allocator@UPoint@CSGPMMFile@@@std@@@std@@IEAAXV?$_Vector_const_iterator@UPoint@CSGPMMFile@@V?$allocator@UPoint@CSGPMMFile@@@std@@@2@_KAEBUPoint@CSGPMMFile@@@Z 0000000180066e00 f i sgpmm.obj
 0001:000665a0       ?_Xlen@?$vector@UPoint@CSGPMMFile@@V?$allocator@UPoint@CSGPMMFile@@@std@@@std@@KAXXZ 00000001800675a0 f i sgpmm.obj
 0001:00066620       ??0?$_Container_base_aux_alloc_empty@V?$allocator@UPoint@CSGPMMFile@@@std@@@std@@IEAA@V?$allocator@UPoint@CSGPMMFile@@@1@@Z 0000000180067620 f i sgpmm.obj
 0001:00066650       ??0?$allocator@UPoint@CSGPMMFile@@@std@@QEAA@AEBV01@@Z 0000000180067650 f i sgpmm.obj
 0001:00066670       ?allocate@?$allocator@UPoint@CSGPMMFile@@@std@@QEAAPEAUPoint@CSGPMMFile@@_K@Z 0000000180067670 f i sgpmm.obj
 0001:000666a0       ??H?$_Vector_iterator@UPoint@CSGPMMFile@@V?$allocator@UPoint@CSGPMMFile@@@std@@@std@@QEBA?AV01@_J@Z 00000001800676a0 f i sgpmm.obj
 0001:00066730       ??0?$_Vector_const_iterator@UPoint@CSGPMMFile@@V?$allocator@UPoint@CSGPMMFile@@@std@@@std@@QEAA@PEAUPoint@CSGPMMFile@@PEBV_Container_base_secure@1@@Z 0000000180067730 f i sgpmm.obj
 0001:00066840       ??E?$_Vector_const_iterator@UPoint@CSGPMMFile@@V?$allocator@UPoint@CSGPMMFile@@@std@@@std@@QEAAAEAV01@XZ 0000000180067840 f i sgpmm.obj
 0001:000669e0       ??G?$_Vector_const_iterator@UPoint@CSGPMMFile@@V?$allocator@UPoint@CSGPMMFile@@@std@@@std@@QEBA_JAEBV01@@Z 00000001800679e0 f i sgpmm.obj
 0001:00066a40       ??M?$_Vector_const_iterator@UPoint@CSGPMMFile@@V?$allocator@UPoint@CSGPMMFile@@@std@@@std@@QEBA_NAEBV01@@Z 0000000180067a40 f i sgpmm.obj
 0001:00066aa0       ?_Compat@?$_Vector_const_iterator@UPoint@CSGPMMFile@@V?$allocator@UPoint@CSGPMMFile@@@std@@@std@@QEBAXAEBV12@@Z 0000000180067aa0 f i sgpmm.obj
 0001:00066b80       ?_Make_iter@?$vector@V?$vector@UPoint@CSGPMMFile@@V?$allocator@UPoint@CSGPMMFile@@@std@@@std@@V?$allocator@V?$vector@UPoint@CSGPMMFile@@V?$allocator@UPoint@CSGPMMFile@@@std@@@std@@@2@@std@@QEBA?AV?$_Vector_iterator@V?$vector@UPoint@CSGPMMFile@@V?$allocator@UPoint@CSGPMMFile@@@std@@@std@@V?$allocator@V?$vector@UPoint@CSGPMMFile@@V?$allocator@UPoint@CSGPMMFile@@@std@@@std@@@2@@2@V?$_Vector_const_iterator@V?$vector@UPoint@CSGPMMFile@@V?$allocator@UPoint@CSGPMMFile@@@std@@@std@@V?$allocator@V?$vector@UPoint@CSGPMMFile@@V?$allocator@UPoint@CSGPMMFile@@@std@@@std@@@2@@2@@Z 0000000180067b80 f i sgpmm.obj
 0001:00066c00       ?_Destroy@?$vector@V?$vector@UPoint@CSGPMMFile@@V?$allocator@UPoint@CSGPMMFile@@@std@@@std@@V?$allocator@V?$vector@UPoint@CSGPMMFile@@V?$allocator@UPoint@CSGPMMFile@@@std@@@std@@@2@@std@@IEAAXPEAV?$vector@UPoint@CSGPMMFile@@V?$allocator@UPoint@CSGPMMFile@@@std@@@2@0@Z 0000000180067c00 f i sgpmm.obj
 0001:00066c40       ?_Insert_n@?$vector@V?$vector@UPoint@CSGPMMFile@@V?$allocator@UPoint@CSGPMMFile@@@std@@@std@@V?$allocator@V?$vector@UPoint@CSGPMMFile@@V?$allocator@UPoint@CSGPMMFile@@@std@@@std@@@2@@std@@IEAAXV?$_Vector_const_iterator@V?$vector@UPoint@CSGPMMFile@@V?$allocator@UPoint@CSGPMMFile@@@std@@@std@@V?$allocator@V?$vector@UPoint@CSGPMMFile@@V?$allocator@UPoint@CSGPMMFile@@@std@@@std@@@2@@2@_KAEBV?$vector@UPoint@CSGPMMFile@@V?$allocator@UPoint@CSGPMMFile@@@std@@@2@@Z 0000000180067c40 f i sgpmm.obj
 0001:000673c0       ?_Make_iter@?$vector@_KV?$allocator@_K@std@@@std@@QEBA?AV?$_Vector_iterator@_KV?$allocator@_K@std@@@2@V?$_Vector_const_iterator@_KV?$allocator@_K@std@@@2@@Z 00000001800683c0 f i sgpmm.obj
 0001:00067440       ?_Destroy@?$vector@_KV?$allocator@_K@std@@@std@@IEAAXPEA_K0@Z 0000000180068440 f i sgpmm.obj
 0001:00067480       ?_Insert_n@?$vector@_KV?$allocator@_K@std@@@std@@IEAAXV?$_Vector_const_iterator@_KV?$allocator@_K@std@@@2@_KAEB_K@Z 0000000180068480 f i sgpmm.obj
 0001:00067b90       ?_Make_iter@?$vector@MV?$allocator@M@std@@@std@@QEBA?AV?$_Vector_iterator@MV?$allocator@M@std@@@2@V?$_Vector_const_iterator@MV?$allocator@M@std@@@2@@Z 0000000180068b90 f i sgpmm.obj
 0001:00067c10       ?_Destroy@?$vector@MV?$allocator@M@std@@@std@@IEAAXPEAM0@Z 0000000180068c10 f i sgpmm.obj
 0001:00067c50       ?_Insert_n@?$vector@MV?$allocator@M@std@@@std@@IEAAXV?$_Vector_const_iterator@MV?$allocator@M@std@@@2@_KAEBM@Z 0000000180068c50 f i sgpmm.obj
 0001:00068270       ??0?$_Vector_iterator@V?$vector@UPoint@CSGPMMFile@@V?$allocator@UPoint@CSGPMMFile@@@std@@@std@@V?$allocator@V?$vector@UPoint@CSGPMMFile@@V?$allocator@UPoint@CSGPMMFile@@@std@@@std@@@2@@std@@QEAA@PEAV?$vector@UPoint@CSGPMMFile@@V?$allocator@UPoint@CSGPMMFile@@@std@@@1@PEBV_Container_base_secure@1@@Z 0000000180069270 f i sgpmm.obj
 0001:000682b0       ??H?$_Vector_iterator@V?$vector@UPoint@CSGPMMFile@@V?$allocator@UPoint@CSGPMMFile@@@std@@@std@@V?$allocator@V?$vector@UPoint@CSGPMMFile@@V?$allocator@UPoint@CSGPMMFile@@@std@@@std@@@2@@std@@QEBA?AV01@_J@Z 00000001800692b0 f i sgpmm.obj
 0001:00068340       ??G?$_Vector_const_iterator@V?$vector@UPoint@CSGPMMFile@@V?$allocator@UPoint@CSGPMMFile@@@std@@@std@@V?$allocator@V?$vector@UPoint@CSGPMMFile@@V?$allocator@UPoint@CSGPMMFile@@@std@@@std@@@2@@std@@QEBA_JAEBV01@@Z 0000000180069340 f i sgpmm.obj
 0001:000683a0       ??9?$_Vector_const_iterator@V?$vector@UPoint@CSGPMMFile@@V?$allocator@UPoint@CSGPMMFile@@@std@@@std@@V?$allocator@V?$vector@UPoint@CSGPMMFile@@V?$allocator@UPoint@CSGPMMFile@@@std@@@std@@@2@@std@@QEBA_NAEBV01@@Z 00000001800693a0 f i sgpmm.obj
 0001:000683f0       ??M?$_Vector_const_iterator@V?$vector@UPoint@CSGPMMFile@@V?$allocator@UPoint@CSGPMMFile@@@std@@@std@@V?$allocator@V?$vector@UPoint@CSGPMMFile@@V?$allocator@UPoint@CSGPMMFile@@@std@@@std@@@2@@std@@QEBA_NAEBV01@@Z 00000001800693f0 f i sgpmm.obj
 0001:00068450       ??0?$_Vector_iterator@_KV?$allocator@_K@std@@@std@@QEAA@PEA_KPEBV_Container_base_secure@1@@Z 0000000180069450 f i sgpmm.obj
 0001:00068490       ??H?$_Vector_iterator@_KV?$allocator@_K@std@@@std@@QEBA?AV01@_J@Z 0000000180069490 f i sgpmm.obj
 0001:00068520       ??G?$_Vector_const_iterator@_KV?$allocator@_K@std@@@std@@QEBA_JAEBV01@@Z 0000000180069520 f i sgpmm.obj
 0001:00068570       ??9?$_Vector_const_iterator@_KV?$allocator@_K@std@@@std@@QEBA_NAEBV01@@Z 0000000180069570 f i sgpmm.obj
 0001:000685c0       ??M?$_Vector_const_iterator@_KV?$allocator@_K@std@@@std@@QEBA_NAEBV01@@Z 00000001800695c0 f i sgpmm.obj
 0001:00068620       ??0?$_Vector_iterator@MV?$allocator@M@std@@@std@@QEAA@PEAMPEBV_Container_base_secure@1@@Z 0000000180069620 f i sgpmm.obj
 0001:00068660       ??H?$_Vector_iterator@MV?$allocator@M@std@@@std@@QEBA?AV01@_J@Z 0000000180069660 f i sgpmm.obj
 0001:000686f0       ??G?$_Vector_const_iterator@MV?$allocator@M@std@@@std@@QEBA_JAEBV01@@Z 00000001800696f0 f i sgpmm.obj
 0001:00068740       ??9?$_Vector_const_iterator@MV?$allocator@M@std@@@std@@QEBA_NAEBV01@@Z 0000000180069740 f i sgpmm.obj
 0001:00068790       ??M?$_Vector_const_iterator@MV?$allocator@M@std@@@std@@QEBA_NAEBV01@@Z 0000000180069790 f i sgpmm.obj
 0001:000687f0       ??0?$_Bidit@U?$pair@$$CBUPointKey@CSGPMMFile@@M@std@@_JPEBU12@AEBU12@@std@@QEAA@XZ 00000001800697f0 f i sgpmm.obj
 0001:00068820       ??0?$_Vector_iterator@V?$vector@UPoint@CSGPMMFile@@V?$allocator@UPoint@CSGPMMFile@@@std@@@std@@V?$allocator@V?$vector@UPoint@CSGPMMFile@@V?$allocator@UPoint@CSGPMMFile@@@std@@@std@@@2@@std@@QEAA@AEBV01@@Z 0000000180069820 f i sgpmm.obj
 0001:00068850       ??0?$_Vector_iterator@_KV?$allocator@_K@std@@@std@@QEAA@AEBV01@@Z 0000000180069850 f i sgpmm.obj
 0001:00068880       ??0?$_Vector_iterator@MV?$allocator@M@std@@@std@@QEAA@AEBV01@@Z 0000000180069880 f i sgpmm.obj
 0001:000688b0       ??0?$_Iterator_with_base@Ubidirectional_iterator_tag@std@@U?$pair@$$CBUPointKey@CSGPMMFile@@M@2@_JPEBU32@AEBU32@V_Iterator_base@2@@std@@QEAA@XZ 00000001800698b0 f i sgpmm.obj
 0001:000688e0       ?_Make_iter@?$_Tree@V?$_Tmap_traits@UPointKey@CSGPMMFile@@MU?$less@UPointKey@CSGPMMFile@@@std@@V?$allocator@U?$pair@$$CBUPointKey@CSGPMMFile@@M@std@@@4@$0A@@std@@@std@@QEBA?AViterator@12@Vconst_iterator@12@@Z 00000001800698e0 f i sgpmm.obj
 0001:00068990       ?erase@?$_Tree@V?$_Tmap_traits@UPointKey@CSGPMMFile@@MU?$less@UPointKey@CSGPMMFile@@@std@@V?$allocator@U?$pair@$$CBUPointKey@CSGPMMFile@@M@std@@@4@$0A@@std@@@std@@QEAA?AViterator@12@Vconst_iterator@12@@Z 0000000180069990 f i sgpmm.obj
 0001:000694a0       ?_Buynode@?$_Tree@V?$_Tmap_traits@UPointKey@CSGPMMFile@@MU?$less@UPointKey@CSGPMMFile@@@std@@V?$allocator@U?$pair@$$CBUPointKey@CSGPMMFile@@M@std@@@4@$0A@@std@@@std@@IEAAPEAU_Node@?$_Tree_nod@V?$_Tmap_traits@UPointKey@CSGPMMFile@@MU?$less@UPointKey@CSGPMMFile@@@std@@V?$allocator@U?$pair@$$CBUPointKey@CSGPMMFile@@M@std@@@4@$0A@@std@@@2@XZ 000000018006a4a0 f i sgpmm.obj
 0001:000695f0       ??0?$_Tree_ptr@V?$_Tmap_traits@UPointKey@CSGPMMFile@@MU?$less@UPointKey@CSGPMMFile@@@std@@V?$allocator@U?$pair@$$CBUPointKey@CSGPMMFile@@M@std@@@4@$0A@@std@@@std@@QEAA@AEBU?$less@UPointKey@CSGPMMFile@@@1@V?$allocator@U?$pair@$$CBUPointKey@CSGPMMFile@@M@std@@@1@@Z 000000018006a5f0 f i sgpmm.obj
 0001:00069670       ?max_size@?$allocator@U?$pair@$$CBUPointKey@CSGPMMFile@@M@std@@@std@@QEBA_KXZ 000000018006a670 f i sgpmm.obj
 0001:000696c0       ?allocate@?$allocator@U_Node@?$_Tree_nod@V?$_Tmap_traits@UPointKey@CSGPMMFile@@MU?$less@UPointKey@CSGPMMFile@@@std@@V?$allocator@U?$pair@$$CBUPointKey@CSGPMMFile@@M@std@@@4@$0A@@std@@@std@@@std@@QEAAPEAU_Node@?$_Tree_nod@V?$_Tmap_traits@UPointKey@CSGPMMFile@@MU?$less@UPointKey@CSGPMMFile@@@std@@V?$allocator@U?$pair@$$CBUPointKey@CSGPMMFile@@M@std@@@4@$0A@@std@@@2@_K@Z 000000018006a6c0 f i sgpmm.obj
 0001:000696f0       ??Econst_iterator@?$_Tree@V?$_Tmap_traits@UPointKey@CSGPMMFile@@MU?$less@UPointKey@CSGPMMFile@@@std@@V?$allocator@U?$pair@$$CBUPointKey@CSGPMMFile@@M@std@@@4@$0A@@std@@@std@@QEAA?AV012@H@Z 000000018006a6f0 f i sgpmm.obj
 0001:00069780       ?_Dec@const_iterator@?$_Tree@V?$_Tmap_traits@UPointKey@CSGPMMFile@@MU?$less@UPointKey@CSGPMMFile@@@std@@V?$allocator@U?$pair@$$CBUPointKey@CSGPMMFile@@M@std@@@4@$0A@@std@@@std@@QEAAXXZ 000000018006a780 f i sgpmm.obj
 0001:00069ac0       ?_Inc@const_iterator@?$_Tree@V?$_Tmap_traits@UPointKey@CSGPMMFile@@MU?$less@UPointKey@CSGPMMFile@@@std@@V?$allocator@U?$pair@$$CBUPointKey@CSGPMMFile@@M@std@@@4@$0A@@std@@@std@@QEAAXXZ 000000018006aac0 f i sgpmm.obj
 0001:00069c70       ??0?$vector@UPoint@CSGPMMFile@@V?$allocator@UPoint@CSGPMMFile@@@std@@@std@@QEAA@AEBV01@@Z 000000018006ac70 f i sgpmm.obj
 0001:00069dd0       ?max_size@?$allocator@UPoint@CSGPMMFile@@@std@@QEBA_KXZ 000000018006add0 f i sgpmm.obj
 0001:00069e20       ??Y?$_Vector_iterator@UPoint@CSGPMMFile@@V?$allocator@UPoint@CSGPMMFile@@@std@@@std@@QEAAAEAV01@_J@Z 000000018006ae20 f i sgpmm.obj
 0001:00069e50       ?max_size@?$vector@V?$vector@UPoint@CSGPMMFile@@V?$allocator@UPoint@CSGPMMFile@@@std@@@std@@V?$allocator@V?$vector@UPoint@CSGPMMFile@@V?$allocator@UPoint@CSGPMMFile@@@std@@@std@@@2@@std@@QEBA_KXZ 000000018006ae50 f i sgpmm.obj
 0001:00069e80       ?_Xlen@?$vector@V?$vector@UPoint@CSGPMMFile@@V?$allocator@UPoint@CSGPMMFile@@@std@@@std@@V?$allocator@V?$vector@UPoint@CSGPMMFile@@V?$allocator@UPoint@CSGPMMFile@@@std@@@std@@@2@@std@@KAXXZ 000000018006ae80 f i sgpmm.obj
 0001:00069f00       ?deallocate@?$allocator@V?$vector@UPoint@CSGPMMFile@@V?$allocator@UPoint@CSGPMMFile@@@std@@@std@@@std@@QEAAXPEAV?$vector@UPoint@CSGPMMFile@@V?$allocator@UPoint@CSGPMMFile@@@std@@@2@_K@Z 000000018006af00 f i sgpmm.obj
 0001:00069f30       ?allocate@?$allocator@V?$vector@UPoint@CSGPMMFile@@V?$allocator@UPoint@CSGPMMFile@@@std@@@std@@@std@@QEAAPEAV?$vector@UPoint@CSGPMMFile@@V?$allocator@UPoint@CSGPMMFile@@@std@@@2@_K@Z 000000018006af30 f i sgpmm.obj
 0001:00069f60       ?max_size@?$vector@_KV?$allocator@_K@std@@@std@@QEBA_KXZ 000000018006af60 f i sgpmm.obj
 0001:00069f90       ?_Xlen@?$vector@_KV?$allocator@_K@std@@@std@@KAXXZ 000000018006af90 f i sgpmm.obj
 0001:0006a010       ?deallocate@?$allocator@_K@std@@QEAAXPEA_K_K@Z 000000018006b010 f i sgpmm.obj
 0001:0006a040       ?allocate@?$allocator@_K@std@@QEAAPEA_K_K@Z 000000018006b040 f i sgpmm.obj
 0001:0006a070       ?max_size@?$vector@MV?$allocator@M@std@@@std@@QEBA_KXZ 000000018006b070 f i sgpmm.obj
 0001:0006a0a0       ?_Xlen@?$vector@MV?$allocator@M@std@@@std@@KAXXZ 000000018006b0a0 f i sgpmm.obj
 0001:0006a120       ?deallocate@?$allocator@M@std@@QEAAXPEAM_K@Z 000000018006b120 f i sgpmm.obj
 0001:0006a150       ?allocate@?$allocator@M@std@@QEAAPEAM_K@Z 000000018006b150 f i sgpmm.obj
 0001:0006a180       ??Y?$_Vector_iterator@V?$vector@UPoint@CSGPMMFile@@V?$allocator@UPoint@CSGPMMFile@@@std@@@std@@V?$allocator@V?$vector@UPoint@CSGPMMFile@@V?$allocator@UPoint@CSGPMMFile@@@std@@@std@@@2@@std@@QEAAAEAV01@_J@Z 000000018006b180 f i sgpmm.obj
 0001:0006a1b0       ??0?$_Vector_const_iterator@V?$vector@UPoint@CSGPMMFile@@V?$allocator@UPoint@CSGPMMFile@@@std@@@std@@V?$allocator@V?$vector@UPoint@CSGPMMFile@@V?$allocator@UPoint@CSGPMMFile@@@std@@@std@@@2@@std@@QEAA@PEAV?$vector@UPoint@CSGPMMFile@@V?$allocator@UPoint@CSGPMMFile@@@std@@@1@PEBV_Container_base_secure@1@@Z 000000018006b1b0 f i sgpmm.obj
 0001:0006a2c0       ??8?$_Vector_const_iterator@V?$vector@UPoint@CSGPMMFile@@V?$allocator@UPoint@CSGPMMFile@@@std@@@std@@V?$allocator@V?$vector@UPoint@CSGPMMFile@@V?$allocator@UPoint@CSGPMMFile@@@std@@@std@@@2@@std@@QEBA_NAEBV01@@Z 000000018006b2c0 f i sgpmm.obj
 0001:0006a320       ?_Compat@?$_Vector_const_iterator@V?$vector@UPoint@CSGPMMFile@@V?$allocator@UPoint@CSGPMMFile@@@std@@@std@@V?$allocator@V?$vector@UPoint@CSGPMMFile@@V?$allocator@UPoint@CSGPMMFile@@@std@@@std@@@2@@std@@QEBAXAEBV12@@Z 000000018006b320 f i sgpmm.obj
 0001:0006a400       ??Y?$_Vector_iterator@_KV?$allocator@_K@std@@@std@@QEAAAEAV01@_J@Z 000000018006b400 f i sgpmm.obj
 0001:0006a430       ??0?$_Vector_const_iterator@_KV?$allocator@_K@std@@@std@@QEAA@PEA_KPEBV_Container_base_secure@1@@Z 000000018006b430 f i sgpmm.obj
 0001:0006a540       ??8?$_Vector_const_iterator@_KV?$allocator@_K@std@@@std@@QEBA_NAEBV01@@Z 000000018006b540 f i sgpmm.obj
 0001:0006a5a0       ?_Compat@?$_Vector_const_iterator@_KV?$allocator@_K@std@@@std@@QEBAXAEBV12@@Z 000000018006b5a0 f i sgpmm.obj
 0001:0006a680       ??Y?$_Vector_iterator@MV?$allocator@M@std@@@std@@QEAAAEAV01@_J@Z 000000018006b680 f i sgpmm.obj
 0001:0006a6b0       ??0?$_Vector_const_iterator@MV?$allocator@M@std@@@std@@QEAA@PEAMPEBV_Container_base_secure@1@@Z 000000018006b6b0 f i sgpmm.obj
 0001:0006a7c0       ??8?$_Vector_const_iterator@MV?$allocator@M@std@@@std@@QEBA_NAEBV01@@Z 000000018006b7c0 f i sgpmm.obj
 0001:0006a820       ?_Compat@?$_Vector_const_iterator@MV?$allocator@M@std@@@std@@QEBAXAEBV12@@Z 000000018006b820 f i sgpmm.obj
 0001:0006a900       ??0_Node@?$_Tree_nod@V?$_Tmap_traits@UPointKey@CSGPMMFile@@MU?$less@UPointKey@CSGPMMFile@@@std@@V?$allocator@U?$pair@$$CBUPointKey@CSGPMMFile@@M@std@@@4@$0A@@std@@@std@@QEAA@PEAU012@00AEBU?$pair@$$CBUPointKey@CSGPMMFile@@M@2@D@Z 000000018006b900 f i sgpmm.obj
 0001:0006a9b0       ??0?$_Ranit@V?$vector@UPoint@CSGPMMFile@@V?$allocator@UPoint@CSGPMMFile@@@std@@@std@@_JPEBV12@AEBV12@@std@@QEAA@XZ 000000018006b9b0 f i sgpmm.obj
 0001:0006a9e0       ??0?$_Ranit@_K_JPEB_KAEB_K@std@@QEAA@XZ 000000018006b9e0 f i sgpmm.obj
 0001:0006aa10       ??0?$_Ranit@M_JPEBMAEBM@std@@QEAA@XZ 000000018006ba10 f i sgpmm.obj
 0001:0006aa40       ??0?$_Iterator_with_base@Urandom_access_iterator_tag@std@@V?$vector@UPoint@CSGPMMFile@@V?$allocator@UPoint@CSGPMMFile@@@std@@@2@_JPEBV32@AEBV32@V_Iterator_base@2@@std@@QEAA@XZ 000000018006ba40 f i sgpmm.obj
 0001:0006aa70       ??0?$_Iterator_with_base@Urandom_access_iterator_tag@std@@_K_JPEB_KAEB_KV_Iterator_base@2@@std@@QEAA@XZ 000000018006ba70 f i sgpmm.obj
 0001:0006aaa0       ??0?$_Iterator_with_base@Urandom_access_iterator_tag@std@@M_JPEBMAEBMV_Iterator_base@2@@std@@QEAA@XZ 000000018006baa0 f i sgpmm.obj
 0001:0006aad0       ?_Max@?$_Tree@V?$_Tmap_traits@UPointKey@CSGPMMFile@@MU?$less@UPointKey@CSGPMMFile@@@std@@V?$allocator@U?$pair@$$CBUPointKey@CSGPMMFile@@M@std@@@4@$0A@@std@@@std@@KAPEAU_Node@?$_Tree_nod@V?$_Tmap_traits@UPointKey@CSGPMMFile@@MU?$less@UPointKey@CSGPMMFile@@@std@@V?$allocator@U?$pair@$$CBUPointKey@CSGPMMFile@@M@std@@@4@$0A@@std@@@2@PEAU342@@Z 000000018006bad0 f i sgpmm.obj
 0001:0006ab20       ?_Min@?$_Tree@V?$_Tmap_traits@UPointKey@CSGPMMFile@@MU?$less@UPointKey@CSGPMMFile@@@std@@V?$allocator@U?$pair@$$CBUPointKey@CSGPMMFile@@M@std@@@4@$0A@@std@@@std@@KAPEAU_Node@?$_Tree_nod@V?$_Tmap_traits@UPointKey@CSGPMMFile@@MU?$less@UPointKey@CSGPMMFile@@@std@@V?$allocator@U?$pair@$$CBUPointKey@CSGPMMFile@@M@std@@@4@$0A@@std@@@2@PEAU342@@Z 000000018006bb20 f i sgpmm.obj
 0001:0006ab70       ??0?$_Tree_nod@V?$_Tmap_traits@UPointKey@CSGPMMFile@@MU?$less@UPointKey@CSGPMMFile@@@std@@V?$allocator@U?$pair@$$CBUPointKey@CSGPMMFile@@M@std@@@4@$0A@@std@@@std@@IEAA@AEBU?$less@UPointKey@CSGPMMFile@@@1@V?$allocator@U?$pair@$$CBUPointKey@CSGPMMFile@@M@std@@@1@@Z 000000018006bb70 f i sgpmm.obj
 0001:0006abf0       ?construct@?$allocator@PEAU_Node@?$_Tree_nod@V?$_Tmap_traits@UPointKey@CSGPMMFile@@MU?$less@UPointKey@CSGPMMFile@@@std@@V?$allocator@U?$pair@$$CBUPointKey@CSGPMMFile@@M@std@@@4@$0A@@std@@@std@@@std@@QEAAXPEAPEAU_Node@?$_Tree_nod@V?$_Tmap_traits@UPointKey@CSGPMMFile@@MU?$less@UPointKey@CSGPMMFile@@@std@@V?$allocator@U?$pair@$$CBUPointKey@CSGPMMFile@@M@std@@@4@$0A@@std@@@2@AEBQEAU342@@Z 000000018006bbf0 f i sgpmm.obj
 0001:0006ac20       ?begin@?$vector@UPoint@CSGPMMFile@@V?$allocator@UPoint@CSGPMMFile@@@std@@@std@@QEBA?AV?$_Vector_const_iterator@UPoint@CSGPMMFile@@V?$allocator@UPoint@CSGPMMFile@@@std@@@2@XZ 000000018006bc20 f i sgpmm.obj
 0001:0006ac80       ?end@?$vector@UPoint@CSGPMMFile@@V?$allocator@UPoint@CSGPMMFile@@@std@@@std@@QEBA?AV?$_Vector_const_iterator@UPoint@CSGPMMFile@@V?$allocator@UPoint@CSGPMMFile@@@std@@@2@XZ 000000018006bc80 f i sgpmm.obj
 0001:0006ace0       ??Y?$_Vector_const_iterator@UPoint@CSGPMMFile@@V?$allocator@UPoint@CSGPMMFile@@@std@@@std@@QEAAAEAV01@_J@Z 000000018006bce0 f i sgpmm.obj
 0001:0006ae80       ?max_size@?$allocator@V?$vector@UPoint@CSGPMMFile@@V?$allocator@UPoint@CSGPMMFile@@@std@@@std@@@std@@QEBA_KXZ 000000018006be80 f i sgpmm.obj
 0001:0006aed0       ?max_size@?$allocator@_K@std@@QEBA_KXZ 000000018006bed0 f i sgpmm.obj
 0001:0006af20       ?max_size@?$allocator@M@std@@QEBA_KXZ 000000018006bf20 f i sgpmm.obj
 0001:0006af70       ??Y?$_Vector_const_iterator@V?$vector@UPoint@CSGPMMFile@@V?$allocator@UPoint@CSGPMMFile@@@std@@@std@@V?$allocator@V?$vector@UPoint@CSGPMMFile@@V?$allocator@UPoint@CSGPMMFile@@@std@@@std@@@2@@std@@QEAAAEAV01@_J@Z 000000018006bf70 f i sgpmm.obj
 0001:0006b110       ??Y?$_Vector_const_iterator@_KV?$allocator@_K@std@@@std@@QEAAAEAV01@_J@Z 000000018006c110 f i sgpmm.obj
 0001:0006b2b0       ??Y?$_Vector_const_iterator@MV?$allocator@M@std@@@std@@QEAAAEAV01@_J@Z 000000018006c2b0 f i sgpmm.obj
 0001:0006b450       ??0?$_Tmap_traits@UPointKey@CSGPMMFile@@MU?$less@UPointKey@CSGPMMFile@@@std@@V?$allocator@U?$pair@$$CBUPointKey@CSGPMMFile@@M@std@@@4@$0A@@std@@QEAA@U?$less@UPointKey@CSGPMMFile@@@1@V?$allocator@U?$pair@$$CBUPointKey@CSGPMMFile@@M@std@@@1@@Z 000000018006c450 f i sgpmm.obj
 0001:0006b4b0       ??0?$_Container_base_aux_alloc_empty@V?$allocator@U?$pair@$$CBUPointKey@CSGPMMFile@@M@std@@@std@@@std@@IEAA@V?$allocator@U?$pair@$$CBUPointKey@CSGPMMFile@@M@std@@@1@@Z 000000018006c4b0 f i sgpmm.obj
 0001:0006b4e0       ??$_Debug_lt_pred@U?$less@UPointKey@CSGPMMFile@@@std@@UPointKey@CSGPMMFile@@U34@@std@@YA_NU?$less@UPointKey@CSGPMMFile@@@0@AEBUPointKey@CSGPMMFile@@1PEB_WI@Z 000000018006c4e0 f i sgpmm.obj
 0001:0006b570       ??$unchecked_copy@PEAUPoint@CSGPMMFile@@PEAU12@@stdext@@YAPEAUPoint@CSGPMMFile@@PEAU12@00@Z 000000018006c570 f i sgpmm.obj
 0001:0006b630       ??$_Ucopy@PEAUPoint@CSGPMMFile@@@?$vector@UPoint@CSGPMMFile@@V?$allocator@UPoint@CSGPMMFile@@@std@@@std@@IEAAPEAUPoint@CSGPMMFile@@PEAU23@00@Z 000000018006c630 f i sgpmm.obj
 0001:0006b680       ??$_Destroy_range@V?$allocator@UPoint@CSGPMMFile@@@std@@@std@@YAXPEAUPoint@CSGPMMFile@@0AEAV?$allocator@UPoint@CSGPMMFile@@@0@@Z 000000018006c680 f i sgpmm.obj
 0001:0006b6e0       ??$unchecked_uninitialized_fill_n@PEAUPoint@CSGPMMFile@@_KU12@V?$allocator@UPoint@CSGPMMFile@@@std@@@stdext@@YAXPEAUPoint@CSGPMMFile@@_KAEBU12@AEAV?$allocator@UPoint@CSGPMMFile@@@std@@@Z 000000018006c6e0 f i sgpmm.obj
 0001:0006b770       ??$unchecked_copy@PEAV?$vector@UPoint@CSGPMMFile@@V?$allocator@UPoint@CSGPMMFile@@@std@@@std@@PEAV12@@stdext@@YAPEAV?$vector@UPoint@CSGPMMFile@@V?$allocator@UPoint@CSGPMMFile@@@std@@@std@@PEAV12@00@Z 000000018006c770 f i sgpmm.obj
 0001:0006b830       ??$unchecked_uninitialized_fill_n@PEAV?$vector@UPoint@CSGPMMFile@@V?$allocator@UPoint@CSGPMMFile@@@std@@@std@@_KV12@V?$allocator@V?$vector@UPoint@CSGPMMFile@@V?$allocator@UPoint@CSGPMMFile@@@std@@@std@@@2@@stdext@@YAXPEAV?$vector@UPoint@CSGPMMFile@@V?$allocator@UPoint@CSGPMMFile@@@std@@@std@@_KAEBV12@AEAV?$allocator@V?$vector@UPoint@CSGPMMFile@@V?$allocator@UPoint@CSGPMMFile@@@std@@@std@@@2@@Z 000000018006c830 f i sgpmm.obj
 0001:0006b8c0       ??$unchecked_copy@PEA_KPEA_K@stdext@@YAPEA_KPEA_K00@Z 000000018006c8c0 f i sgpmm.obj
 0001:0006b980       ??$unchecked_uninitialized_fill_n@PEA_K_K_KV?$allocator@_K@std@@@stdext@@YAXPEA_K_KAEB_KAEAV?$allocator@_K@std@@@Z 000000018006c980 f i sgpmm.obj
 0001:0006ba10       ??$unchecked_copy@PEAMPEAM@stdext@@YAPEAMPEAM00@Z 000000018006ca10 f i sgpmm.obj
 0001:0006bad0       ??$unchecked_uninitialized_fill_n@PEAM_KMV?$allocator@M@std@@@stdext@@YAXPEAM_KAEBMAEAV?$allocator@M@std@@@Z 000000018006cad0 f i sgpmm.obj
 0001:0006bb60       ??$_Destroy@U_Node@?$_Tree_nod@V?$_Tmap_traits@UPointKey@CSGPMMFile@@MU?$less@UPointKey@CSGPMMFile@@@std@@V?$allocator@U?$pair@$$CBUPointKey@CSGPMMFile@@M@std@@@4@$0A@@std@@@std@@@std@@YAXPEAU_Node@?$_Tree_nod@V?$_Tmap_traits@UPointKey@CSGPMMFile@@MU?$less@UPointKey@CSGPMMFile@@@std@@V?$allocator@U?$pair@$$CBUPointKey@CSGPMMFile@@M@std@@@4@$0A@@std@@@0@@Z 000000018006cb60 f i sgpmm.obj
 0001:0006bb70       ??$_Destroy@PEAU_Node@?$_Tree_nod@V?$_Tmap_traits@UPointKey@CSGPMMFile@@MU?$less@UPointKey@CSGPMMFile@@@std@@V?$allocator@U?$pair@$$CBUPointKey@CSGPMMFile@@M@std@@@4@$0A@@std@@@std@@@std@@YAXPEAPEAU_Node@?$_Tree_nod@V?$_Tmap_traits@UPointKey@CSGPMMFile@@MU?$less@UPointKey@CSGPMMFile@@@std@@V?$allocator@U?$pair@$$CBUPointKey@CSGPMMFile@@M@std@@@4@$0A@@std@@@0@@Z 000000018006cb70 f i sgpmm.obj
 0001:0006bb80       ??$_Umove@PEAUPoint@CSGPMMFile@@@?$vector@UPoint@CSGPMMFile@@V?$allocator@UPoint@CSGPMMFile@@@std@@@std@@IEAAPEAUPoint@CSGPMMFile@@PEAU23@00@Z 000000018006cb80 f i sgpmm.obj
 0001:0006bbd0       ??$fill@PEAUPoint@CSGPMMFile@@U12@@std@@YAXPEAUPoint@CSGPMMFile@@0AEBU12@@Z 000000018006cbd0 f i sgpmm.obj
 0001:0006bc30       ??$_Unchecked_move_backward@PEAUPoint@CSGPMMFile@@PEAU12@@stdext@@YAPEAUPoint@CSGPMMFile@@PEAU12@00@Z 000000018006cc30 f i sgpmm.obj
 0001:0006bce0       ??$_Allocate@UPoint@CSGPMMFile@@@std@@YAPEAUPoint@CSGPMMFile@@_KPEAU12@@Z 000000018006cce0 f i sgpmm.obj
 0001:0006bd60       ??$_Destroy_range@V?$allocator@V?$vector@UPoint@CSGPMMFile@@V?$allocator@UPoint@CSGPMMFile@@@std@@@std@@@std@@@std@@YAXPEAV?$vector@UPoint@CSGPMMFile@@V?$allocator@UPoint@CSGPMMFile@@@std@@@0@0AEAV?$allocator@V?$vector@UPoint@CSGPMMFile@@V?$allocator@UPoint@CSGPMMFile@@@std@@@std@@@0@@Z 000000018006cd60 f i sgpmm.obj
 0001:0006bdc0       ??$_Umove@PEAV?$vector@UPoint@CSGPMMFile@@V?$allocator@UPoint@CSGPMMFile@@@std@@@std@@@?$vector@V?$vector@UPoint@CSGPMMFile@@V?$allocator@UPoint@CSGPMMFile@@@std@@@std@@V?$allocator@V?$vector@UPoint@CSGPMMFile@@V?$allocator@UPoint@CSGPMMFile@@@std@@@std@@@2@@std@@IEAAPEAV?$vector@UPoint@CSGPMMFile@@V?$allocator@UPoint@CSGPMMFile@@@std@@@1@PEAV21@00@Z 000000018006cdc0 f i sgpmm.obj
 0001:0006be10       ??$fill@PEAV?$vector@UPoint@CSGPMMFile@@V?$allocator@UPoint@CSGPMMFile@@@std@@@std@@V12@@std@@YAXPEAV?$vector@UPoint@CSGPMMFile@@V?$allocator@UPoint@CSGPMMFile@@@std@@@0@0AEBV10@@Z 000000018006ce10 f i sgpmm.obj
 0001:0006be70       ??$_Unchecked_move_backward@PEAV?$vector@UPoint@CSGPMMFile@@V?$allocator@UPoint@CSGPMMFile@@@std@@@std@@PEAV12@@stdext@@YAPEAV?$vector@UPoint@CSGPMMFile@@V?$allocator@UPoint@CSGPMMFile@@@std@@@std@@PEAV12@00@Z 000000018006ce70 f i sgpmm.obj
 0001:0006bf20       ??$_Destroy_range@V?$allocator@_K@std@@@std@@YAXPEA_K0AEAV?$allocator@_K@0@@Z 000000018006cf20 f i sgpmm.obj
 0001:0006bf80       ??$_Umove@PEA_K@?$vector@_KV?$allocator@_K@std@@@std@@IEAAPEA_KPEA_K00@Z 000000018006cf80 f i sgpmm.obj
 0001:0006bfd0       ??$fill@PEA_K_K@std@@YAXPEA_K0AEB_K@Z 000000018006cfd0 f i sgpmm.obj
 0001:0006c030       ??$_Unchecked_move_backward@PEA_KPEA_K@stdext@@YAPEA_KPEA_K00@Z 000000018006d030 f i sgpmm.obj
 0001:0006c0e0       ??$_Destroy_range@V?$allocator@M@std@@@std@@YAXPEAM0AEAV?$allocator@M@0@@Z 000000018006d0e0 f i sgpmm.obj
 0001:0006c140       ??$_Umove@PEAM@?$vector@MV?$allocator@M@std@@@std@@IEAAPEAMPEAM00@Z 000000018006d140 f i sgpmm.obj
 0001:0006c190       ??$fill@PEAMM@std@@YAXPEAM0AEBM@Z 000000018006d190 f i sgpmm.obj
 0001:0006c1f0       ??$_Unchecked_move_backward@PEAMPEAM@stdext@@YAPEAMPEAM00@Z 000000018006d1f0 f i sgpmm.obj
 0001:0006c2a0       ??$swap@D@std@@YAXAEAD0@Z  000000018006d2a0 f i sgpmm.obj
 0001:0006c300       ??$?0U?$pair@$$CBUPointKey@CSGPMMFile@@M@std@@@?$allocator@PEAU_Node@?$_Tree_nod@V?$_Tmap_traits@UPointKey@CSGPMMFile@@MU?$less@UPointKey@CSGPMMFile@@@std@@V?$allocator@U?$pair@$$CBUPointKey@CSGPMMFile@@M@std@@@4@$0A@@std@@@std@@@std@@QEAA@AEBV?$allocator@U?$pair@$$CBUPointKey@CSGPMMFile@@M@std@@@1@@Z 000000018006d300 f i sgpmm.obj
 0001:0006c320       ??$_Allocate@U_Node@?$_Tree_nod@V?$_Tmap_traits@UPointKey@CSGPMMFile@@MU?$less@UPointKey@CSGPMMFile@@@std@@V?$allocator@U?$pair@$$CBUPointKey@CSGPMMFile@@M@std@@@4@$0A@@std@@@std@@@std@@YAPEAU_Node@?$_Tree_nod@V?$_Tmap_traits@UPointKey@CSGPMMFile@@MU?$less@UPointKey@CSGPMMFile@@@std@@V?$allocator@U?$pair@$$CBUPointKey@CSGPMMFile@@M@std@@@4@$0A@@std@@@0@_KPEAU120@@Z 000000018006d320 f i sgpmm.obj
 0001:0006c3a0       ??$_Ucopy@V?$_Vector_const_iterator@UPoint@CSGPMMFile@@V?$allocator@UPoint@CSGPMMFile@@@std@@@std@@@?$vector@UPoint@CSGPMMFile@@V?$allocator@UPoint@CSGPMMFile@@@std@@@std@@IEAAPEAUPoint@CSGPMMFile@@V?$_Vector_const_iterator@UPoint@CSGPMMFile@@V?$allocator@UPoint@CSGPMMFile@@@std@@@1@0PEAU23@@Z 000000018006d3a0 f i sgpmm.obj
 0001:0006c4a0       ??$_Allocate@V?$vector@UPoint@CSGPMMFile@@V?$allocator@UPoint@CSGPMMFile@@@std@@@std@@@std@@YAPEAV?$vector@UPoint@CSGPMMFile@@V?$allocator@UPoint@CSGPMMFile@@@std@@@0@_KPEAV10@@Z 000000018006d4a0 f i sgpmm.obj
 0001:0006c520       ??$_Allocate@_K@std@@YAPEA_K_KPEA_K@Z 000000018006d520 f i sgpmm.obj
 0001:0006c5a0       ??$_Allocate@M@std@@YAPEAM_KPEAM@Z 000000018006d5a0 f i sgpmm.obj
 0001:0006c620       ??$?0U?$pair@$$CBUPointKey@CSGPMMFile@@M@std@@@?$allocator@U_Node@?$_Tree_nod@V?$_Tmap_traits@UPointKey@CSGPMMFile@@MU?$less@UPointKey@CSGPMMFile@@@std@@V?$allocator@U?$pair@$$CBUPointKey@CSGPMMFile@@M@std@@@4@$0A@@std@@@std@@@std@@QEAA@AEBV?$allocator@U?$pair@$$CBUPointKey@CSGPMMFile@@M@std@@@1@@Z 000000018006d620 f i sgpmm.obj
 0001:0006c640       ??$_Construct@PEAU_Node@?$_Tree_nod@V?$_Tmap_traits@UPointKey@CSGPMMFile@@MU?$less@UPointKey@CSGPMMFile@@@std@@V?$allocator@U?$pair@$$CBUPointKey@CSGPMMFile@@M@std@@@4@$0A@@std@@@std@@PEAU123@@std@@YAXPEAPEAU_Node@?$_Tree_nod@V?$_Tmap_traits@UPointKey@CSGPMMFile@@MU?$less@UPointKey@CSGPMMFile@@@std@@V?$allocator@U?$pair@$$CBUPointKey@CSGPMMFile@@M@std@@@4@$0A@@std@@@0@AEBQEAU120@@Z 000000018006d640 f i sgpmm.obj
 0001:0006c6c0       ??R?$less@UPointKey@CSGPMMFile@@@std@@QEBA_NAEBUPointKey@CSGPMMFile@@0@Z 000000018006d6c0 f i sgpmm.obj
 0001:0006c6f0       ??$_Checked_base@PEAUPoint@CSGPMMFile@@@std@@YAPEAUPoint@CSGPMMFile@@AEAPEAU12@@Z 000000018006d6f0 f i sgpmm.obj
 0001:0006c720       ??$_Iter_random@PEAUPoint@CSGPMMFile@@PEAU12@@std@@YA?AUrandom_access_iterator_tag@0@AEBQEAUPoint@CSGPMMFile@@0@Z 000000018006d720 f i sgpmm.obj
 0001:0006c750       ??$_Ptr_cat@PEAUPoint@CSGPMMFile@@PEAU12@@std@@YA?AU_Nonscalar_ptr_iterator_tag@0@AEAPEAUPoint@CSGPMMFile@@0@Z 000000018006d750 f i sgpmm.obj
 0001:0006c770       ??$_Copy_opt@PEAUPoint@CSGPMMFile@@PEAU12@@std@@YAPEAUPoint@CSGPMMFile@@PEAU12@00Urandom_access_iterator_tag@0@U_Nonscalar_ptr_iterator_tag@0@U_Range_checked_iterator_tag@0@@Z 000000018006d770 f i sgpmm.obj
 0001:0006c840       ??$unchecked_uninitialized_copy@PEAUPoint@CSGPMMFile@@PEAU12@V?$allocator@UPoint@CSGPMMFile@@@std@@@stdext@@YAPEAUPoint@CSGPMMFile@@PEAU12@00AEAV?$allocator@UPoint@CSGPMMFile@@@std@@@Z 000000018006d840 f i sgpmm.obj
 0001:0006c8e0       ??$_Destroy_range@V?$allocator@UPoint@CSGPMMFile@@@std@@@std@@YAXPEAUPoint@CSGPMMFile@@0AEAV?$allocator@UPoint@CSGPMMFile@@@0@U_Nonscalar_ptr_iterator_tag@0@@Z 000000018006d8e0 f i sgpmm.obj
 0001:0006c940       ??$_Uninit_fill_n@PEAUPoint@CSGPMMFile@@_KU12@V?$allocator@UPoint@CSGPMMFile@@@std@@@std@@YAXPEAUPoint@CSGPMMFile@@_KAEBU12@AEAV?$allocator@UPoint@CSGPMMFile@@@0@U_Nonscalar_ptr_iterator_tag@0@U_Range_checked_iterator_tag@0@@Z 000000018006d940 f i sgpmm.obj
 0001:0006c9d0       ??$_Checked_base@PEAV?$vector@UPoint@CSGPMMFile@@V?$allocator@UPoint@CSGPMMFile@@@std@@@std@@@std@@YAPEAV?$vector@UPoint@CSGPMMFile@@V?$allocator@UPoint@CSGPMMFile@@@std@@@0@AEAPEAV10@@Z 000000018006d9d0 f i sgpmm.obj
 0001:0006ca00       ??$_Iter_random@PEAV?$vector@UPoint@CSGPMMFile@@V?$allocator@UPoint@CSGPMMFile@@@std@@@std@@PEAV12@@std@@YA?AUrandom_access_iterator_tag@0@AEBQEAV?$vector@UPoint@CSGPMMFile@@V?$allocator@UPoint@CSGPMMFile@@@std@@@0@0@Z 000000018006da00 f i sgpmm.obj
 0001:0006ca30       ??$_Ptr_cat@PEAV?$vector@UPoint@CSGPMMFile@@V?$allocator@UPoint@CSGPMMFile@@@std@@@std@@PEAV12@@std@@YA?AU_Nonscalar_ptr_iterator_tag@0@AEAPEAV?$vector@UPoint@CSGPMMFile@@V?$allocator@UPoint@CSGPMMFile@@@std@@@0@0@Z 000000018006da30 f i sgpmm.obj
 0001:0006ca50       ??$_Copy_opt@PEAV?$vector@UPoint@CSGPMMFile@@V?$allocator@UPoint@CSGPMMFile@@@std@@@std@@PEAV12@@std@@YAPEAV?$vector@UPoint@CSGPMMFile@@V?$allocator@UPoint@CSGPMMFile@@@std@@@0@PEAV10@00Urandom_access_iterator_tag@0@U_Nonscalar_ptr_iterator_tag@0@U_Range_checked_iterator_tag@0@@Z 000000018006da50 f i sgpmm.obj
 0001:0006cb20       ??$_Uninit_fill_n@PEAV?$vector@UPoint@CSGPMMFile@@V?$allocator@UPoint@CSGPMMFile@@@std@@@std@@_KV12@V?$allocator@V?$vector@UPoint@CSGPMMFile@@V?$allocator@UPoint@CSGPMMFile@@@std@@@std@@@2@@std@@YAXPEAV?$vector@UPoint@CSGPMMFile@@V?$allocator@UPoint@CSGPMMFile@@@std@@@0@_KAEBV10@AEAV?$allocator@V?$vector@UPoint@CSGPMMFile@@V?$allocator@UPoint@CSGPMMFile@@@std@@@std@@@0@U_Nonscalar_ptr_iterator_tag@0@U_Range_checked_iterator_tag@0@@Z 000000018006db20 f i sgpmm.obj
 0001:0006cbb0       ??$_Checked_base@PEA_K@std@@YAPEA_KAEAPEA_K@Z 000000018006dbb0 f i sgpmm.obj
 0001:0006cbe0       ??$_Iter_random@PEA_KPEA_K@std@@YA?AUrandom_access_iterator_tag@0@AEBQEA_K0@Z 000000018006dbe0 f i sgpmm.obj
 0001:0006cc10       ??$_Ptr_cat@PEA_KPEA_K@std@@YA?AU_Scalar_ptr_iterator_tag@0@AEAPEA_K0@Z 000000018006dc10 f i sgpmm.obj
 0001:0006cc30       ??$_Copy_opt@PEA_KPEA_KUrandom_access_iterator_tag@std@@@std@@YAPEA_KPEA_K00Urandom_access_iterator_tag@0@U_Scalar_ptr_iterator_tag@0@U_Range_checked_iterator_tag@0@@Z 000000018006dc30 f i sgpmm.obj
 0001:0006cd20       ??$_Uninit_fill_n@PEA_K_K_KV?$allocator@_K@std@@@std@@YAXPEA_K_KAEB_KAEAV?$allocator@_K@0@U_Scalar_ptr_iterator_tag@0@U_Range_checked_iterator_tag@0@@Z 000000018006dd20 f i sgpmm.obj
 0001:0006cd60       ??$_Checked_base@PEAM@std@@YAPEAMAEAPEAM@Z 000000018006dd60 f i sgpmm.obj
 0001:0006cd90       ??$_Iter_random@PEAMPEAM@std@@YA?AUrandom_access_iterator_tag@0@AEBQEAM0@Z 000000018006dd90 f i sgpmm.obj
 0001:0006cdc0       ??$_Ptr_cat@PEAMPEAM@std@@YA?AU_Scalar_ptr_iterator_tag@0@AEAPEAM0@Z 000000018006ddc0 f i sgpmm.obj
 0001:0006cde0       ??$_Copy_opt@PEAMPEAMUrandom_access_iterator_tag@std@@@std@@YAPEAMPEAM00Urandom_access_iterator_tag@0@U_Scalar_ptr_iterator_tag@0@U_Range_checked_iterator_tag@0@@Z 000000018006dde0 f i sgpmm.obj
 0001:0006ced0       ??$_Uninit_fill_n@PEAM_KMV?$allocator@M@std@@@std@@YAXPEAM_KAEBMAEAV?$allocator@M@0@U_Scalar_ptr_iterator_tag@0@U_Range_checked_iterator_tag@0@@Z 000000018006ded0 f i sgpmm.obj
 0001:0006cf10       ??$_Unchecked_uninitialized_move@PEAUPoint@CSGPMMFile@@PEAU12@V?$allocator@UPoint@CSGPMMFile@@@std@@@stdext@@YAPEAUPoint@CSGPMMFile@@PEAU12@00AEAV?$allocator@UPoint@CSGPMMFile@@@std@@@Z 000000018006df10 f i sgpmm.obj
 0001:0006cfb0       ??$_Fill@PEAUPoint@CSGPMMFile@@U12@@std@@YAXPEAUPoint@CSGPMMFile@@0AEBU12@@Z 000000018006dfb0 f i sgpmm.obj
 0001:0006d030       ??$_Move_cat@PEAUPoint@CSGPMMFile@@@std@@YA?AU_Undefined_move_tag@0@AEBQEAUPoint@CSGPMMFile@@@Z 000000018006e030 f i sgpmm.obj
 0001:0006d050       ??$_Move_backward_opt@PEAUPoint@CSGPMMFile@@PEAU12@Urandom_access_iterator_tag@std@@U_Undefined_move_tag@4@@std@@YAPEAUPoint@CSGPMMFile@@PEAU12@00Urandom_access_iterator_tag@0@U_Undefined_move_tag@0@U_Range_checked_iterator_tag@0@@Z 000000018006e050 f i sgpmm.obj
 0001:0006d0e0       ??$_Destroy_range@V?$allocator@V?$vector@UPoint@CSGPMMFile@@V?$allocator@UPoint@CSGPMMFile@@@std@@@std@@@std@@@std@@YAXPEAV?$vector@UPoint@CSGPMMFile@@V?$allocator@UPoint@CSGPMMFile@@@std@@@0@0AEAV?$allocator@V?$vector@UPoint@CSGPMMFile@@V?$allocator@UPoint@CSGPMMFile@@@std@@@std@@@0@U_Nonscalar_ptr_iterator_tag@0@@Z 000000018006e0e0 f i sgpmm.obj
 0001:0006d140       ??$_Unchecked_uninitialized_move@PEAV?$vector@UPoint@CSGPMMFile@@V?$allocator@UPoint@CSGPMMFile@@@std@@@std@@PEAV12@V?$allocator@V?$vector@UPoint@CSGPMMFile@@V?$allocator@UPoint@CSGPMMFile@@@std@@@std@@@2@@stdext@@YAPEAV?$vector@UPoint@CSGPMMFile@@V?$allocator@UPoint@CSGPMMFile@@@std@@@std@@PEAV12@00AEAV?$allocator@V?$vector@UPoint@CSGPMMFile@@V?$allocator@UPoint@CSGPMMFile@@@std@@@std@@@2@@Z 000000018006e140 f i sgpmm.obj
 0001:0006d1e0       ??$_Fill@PEAV?$vector@UPoint@CSGPMMFile@@V?$allocator@UPoint@CSGPMMFile@@@std@@@std@@V12@@std@@YAXPEAV?$vector@UPoint@CSGPMMFile@@V?$allocator@UPoint@CSGPMMFile@@@std@@@0@0AEBV10@@Z 000000018006e1e0 f i sgpmm.obj
 0001:0006d260       ??$_Move_cat@PEAV?$vector@UPoint@CSGPMMFile@@V?$allocator@UPoint@CSGPMMFile@@@std@@@std@@@std@@YA?AU_Swap_move_tag@0@AEBQEAV?$vector@UPoint@CSGPMMFile@@V?$allocator@UPoint@CSGPMMFile@@@std@@@0@@Z 000000018006e260 f i sgpmm.obj
 0001:0006d280       ??$_Move_backward_opt@PEAV?$vector@UPoint@CSGPMMFile@@V?$allocator@UPoint@CSGPMMFile@@@std@@@std@@PEAV12@@std@@YAPEAV?$vector@UPoint@CSGPMMFile@@V?$allocator@UPoint@CSGPMMFile@@@std@@@0@PEAV10@00Urandom_access_iterator_tag@0@U_Swap_move_tag@0@U_Range_checked_iterator_tag@0@@Z 000000018006e280 f i sgpmm.obj
 0001:0006d340       ??$_Destroy_range@V?$allocator@_K@std@@@std@@YAXPEA_K0AEAV?$allocator@_K@0@U_Scalar_ptr_iterator_tag@0@@Z 000000018006e340 f i sgpmm.obj
 0001:0006d360       ??$_Unchecked_uninitialized_move@PEA_KPEA_KV?$allocator@_K@std@@@stdext@@YAPEA_KPEA_K00AEAV?$allocator@_K@std@@@Z 000000018006e360 f i sgpmm.obj
 0001:0006d400       ??$_Fill@PEA_K_K@std@@YAXPEA_K0AEB_K@Z 000000018006e400 f i sgpmm.obj
 0001:0006d480       ??$_Move_cat@PEA_K@std@@YA?AU_Undefined_move_tag@0@AEBQEA_K@Z 000000018006e480 f i sgpmm.obj
 0001:0006d4a0       ??$_Move_backward_opt@PEA_KPEA_KUrandom_access_iterator_tag@std@@U_Undefined_move_tag@2@@std@@YAPEA_KPEA_K00Urandom_access_iterator_tag@0@U_Undefined_move_tag@0@U_Range_checked_iterator_tag@0@@Z 000000018006e4a0 f i sgpmm.obj
 0001:0006d530       ??$_Destroy_range@V?$allocator@M@std@@@std@@YAXPEAM0AEAV?$allocator@M@0@U_Scalar_ptr_iterator_tag@0@@Z 000000018006e530 f i sgpmm.obj
 0001:0006d550       ??$_Unchecked_uninitialized_move@PEAMPEAMV?$allocator@M@std@@@stdext@@YAPEAMPEAM00AEAV?$allocator@M@std@@@Z 000000018006e550 f i sgpmm.obj
 0001:0006d5f0       ??$_Fill@PEAMM@std@@YAXPEAM0AEBM@Z 000000018006e5f0 f i sgpmm.obj
 0001:0006d670       ??$_Move_cat@PEAM@std@@YA?AU_Undefined_move_tag@0@AEBQEAM@Z 000000018006e670 f i sgpmm.obj
 0001:0006d690       ??$_Move_backward_opt@PEAMPEAMUrandom_access_iterator_tag@std@@U_Undefined_move_tag@2@@std@@YAPEAMPEAM00Urandom_access_iterator_tag@0@U_Undefined_move_tag@0@U_Range_checked_iterator_tag@0@@Z 000000018006e690 f i sgpmm.obj
 0001:0006d720       ??$unchecked_uninitialized_copy@V?$_Vector_const_iterator@UPoint@CSGPMMFile@@V?$allocator@UPoint@CSGPMMFile@@@std@@@std@@PEAUPoint@CSGPMMFile@@V?$allocator@UPoint@CSGPMMFile@@@2@@stdext@@YAPEAUPoint@CSGPMMFile@@V?$_Vector_const_iterator@UPoint@CSGPMMFile@@V?$allocator@UPoint@CSGPMMFile@@@std@@@std@@0PEAU12@AEAV?$allocator@UPoint@CSGPMMFile@@@4@@Z 000000018006e720 f i sgpmm.obj
 0001:0006d870       ??4Point@CSGPMMFile@@QEAAAEAU01@AEBU01@@Z 000000018006e870 f i sgpmm.obj
 0001:0006d8c0       ?construct@?$allocator@UPoint@CSGPMMFile@@@std@@QEAAXPEAUPoint@CSGPMMFile@@AEBU34@@Z 000000018006e8c0 f i sgpmm.obj
 0001:0006d8f0       ?destroy@?$allocator@UPoint@CSGPMMFile@@@std@@QEAAXPEAUPoint@CSGPMMFile@@@Z 000000018006e8f0 f i sgpmm.obj
 0001:0006d920       ?construct@?$allocator@V?$vector@UPoint@CSGPMMFile@@V?$allocator@UPoint@CSGPMMFile@@@std@@@std@@@std@@QEAAXPEAV?$vector@UPoint@CSGPMMFile@@V?$allocator@UPoint@CSGPMMFile@@@std@@@2@AEBV32@@Z 000000018006e920 f i sgpmm.obj
 0001:0006d950       ?destroy@?$allocator@V?$vector@UPoint@CSGPMMFile@@V?$allocator@UPoint@CSGPMMFile@@@std@@@std@@@std@@QEAAXPEAV?$vector@UPoint@CSGPMMFile@@V?$allocator@UPoint@CSGPMMFile@@@std@@@2@@Z 000000018006e950 f i sgpmm.obj
 0001:0006d980       ??$_Checked_base@PEAUPoint@CSGPMMFile@@@std@@YAPEAUPoint@CSGPMMFile@@AEAPEAU12@U_Unchanged_checked_iterator_base_type_tag@0@@Z 000000018006e980 f i sgpmm.obj
 0001:0006d9a0       ??$_Copy_opt@PEAUPoint@CSGPMMFile@@PEAU12@Uforward_iterator_tag@std@@@std@@YAPEAUPoint@CSGPMMFile@@PEAU12@00Uforward_iterator_tag@0@U_Nonscalar_ptr_iterator_tag@0@U_Range_checked_iterator_tag@0@@Z 000000018006e9a0 f i sgpmm.obj
 0001:0006da40       ??$_Uninit_copy@PEAUPoint@CSGPMMFile@@PEAU12@V?$allocator@UPoint@CSGPMMFile@@@std@@@std@@YAPEAUPoint@CSGPMMFile@@PEAU12@00AEAV?$allocator@UPoint@CSGPMMFile@@@0@U_Nonscalar_ptr_iterator_tag@0@U_Range_checked_iterator_tag@0@@Z 000000018006ea40 f i sgpmm.obj
 0001:0006db20       ??$_Checked_base@PEAV?$vector@UPoint@CSGPMMFile@@V?$allocator@UPoint@CSGPMMFile@@@std@@@std@@@std@@YAPEAV?$vector@UPoint@CSGPMMFile@@V?$allocator@UPoint@CSGPMMFile@@@std@@@0@AEAPEAV10@U_Unchanged_checked_iterator_base_type_tag@0@@Z 000000018006eb20 f i sgpmm.obj
 0001:0006db40       ??$_Copy_opt@PEAV?$vector@UPoint@CSGPMMFile@@V?$allocator@UPoint@CSGPMMFile@@@std@@@std@@PEAV12@Uforward_iterator_tag@2@@std@@YAPEAV?$vector@UPoint@CSGPMMFile@@V?$allocator@UPoint@CSGPMMFile@@@std@@@0@PEAV10@00Uforward_iterator_tag@0@U_Nonscalar_ptr_iterator_tag@0@U_Range_checked_iterator_tag@0@@Z 000000018006eb40 f i sgpmm.obj
 0001:0006dbe0       ??$_Checked_base@PEA_K@std@@YAPEA_KAEAPEA_KU_Unchanged_checked_iterator_base_type_tag@0@@Z 000000018006ebe0 f i sgpmm.obj
 0001:0006dc00       ??$_Debug_range@PEA_K@std@@YAXPEA_K0PEB_WI@Z 000000018006ec00 f i sgpmm.obj
 0001:0006dc60       ??$_Debug_pointer@_K@std@@YAXPEA_KPEB_WI@Z 000000018006ec60 f i sgpmm.obj
 0001:0006dcb0       ??$unchecked_fill_n@PEA_K_K_K@stdext@@YAXPEA_K_KAEB_K@Z 000000018006ecb0 f i sgpmm.obj
 0001:0006dd30       ??$_Checked_base@PEAM@std@@YAPEAMAEAPEAMU_Unchanged_checked_iterator_base_type_tag@0@@Z 000000018006ed30 f i sgpmm.obj
 0001:0006dd50       ??$_Debug_range@PEAM@std@@YAXPEAM0PEB_WI@Z 000000018006ed50 f i sgpmm.obj
 0001:0006ddb0       ??$_Debug_pointer@M@std@@YAXPEAMPEB_WI@Z 000000018006edb0 f i sgpmm.obj
 0001:0006de00       ??$unchecked_fill_n@PEAM_KM@stdext@@YAXPEAM_KAEBM@Z 000000018006ee00 f i sgpmm.obj
 0001:0006de80       ??$_Uninit_move@PEAUPoint@CSGPMMFile@@PEAU12@V?$allocator@UPoint@CSGPMMFile@@@std@@U_Undefined_move_tag@4@@std@@YAPEAUPoint@CSGPMMFile@@PEAU12@00AEAV?$allocator@UPoint@CSGPMMFile@@@0@U_Undefined_move_tag@0@U_Range_checked_iterator_tag@0@@Z 000000018006ee80 f i sgpmm.obj
 0001:0006ded0       ??$_Debug_range@PEAUPoint@CSGPMMFile@@@std@@YAXPEAUPoint@CSGPMMFile@@0PEB_WI@Z 000000018006eed0 f i sgpmm.obj
 0001:0006df30       ??$_Copy_backward_opt@PEAUPoint@CSGPMMFile@@PEAU12@@std@@YAPEAUPoint@CSGPMMFile@@PEAU12@00Urandom_access_iterator_tag@0@U_Nonscalar_ptr_iterator_tag@0@U_Range_checked_iterator_tag@0@@Z 000000018006ef30 f i sgpmm.obj
 0001:0006e000       ??$_Uninit_move@PEAV?$vector@UPoint@CSGPMMFile@@V?$allocator@UPoint@CSGPMMFile@@@std@@@std@@PEAV12@V?$allocator@V?$vector@UPoint@CSGPMMFile@@V?$allocator@UPoint@CSGPMMFile@@@std@@@std@@@2@@std@@YAPEAV?$vector@UPoint@CSGPMMFile@@V?$allocator@UPoint@CSGPMMFile@@@std@@@0@PEAV10@00AEAV?$allocator@V?$vector@UPoint@CSGPMMFile@@V?$allocator@UPoint@CSGPMMFile@@@std@@@std@@@0@U_Swap_move_tag@0@U_Range_checked_iterator_tag@0@@Z 000000018006f000 f i sgpmm.obj
 0001:0006e130       ??$_Debug_range@PEAV?$vector@UPoint@CSGPMMFile@@V?$allocator@UPoint@CSGPMMFile@@@std@@@std@@@std@@YAXPEAV?$vector@UPoint@CSGPMMFile@@V?$allocator@UPoint@CSGPMMFile@@@std@@@0@0PEB_WI@Z 000000018006f130 f i sgpmm.obj
 0001:0006e190       ??$_Move_backward_opt@PEAV?$vector@UPoint@CSGPMMFile@@V?$allocator@UPoint@CSGPMMFile@@@std@@@std@@PEAV12@Uforward_iterator_tag@2@@std@@YAPEAV?$vector@UPoint@CSGPMMFile@@V?$allocator@UPoint@CSGPMMFile@@@std@@@0@PEAV10@00Uforward_iterator_tag@0@U_Swap_move_tag@0@U_Range_checked_iterator_tag@0@@Z 000000018006f190 f i sgpmm.obj
 0001:0006e230       ??$_Uninit_move@PEA_KPEA_KV?$allocator@_K@std@@U_Undefined_move_tag@2@@std@@YAPEA_KPEA_K00AEAV?$allocator@_K@0@U_Undefined_move_tag@0@U_Range_checked_iterator_tag@0@@Z 000000018006f230 f i sgpmm.obj
 0001:0006e280       ??$_Copy_backward_opt@PEA_KPEA_KUrandom_access_iterator_tag@std@@@std@@YAPEA_KPEA_K00Urandom_access_iterator_tag@0@U_Scalar_ptr_iterator_tag@0@U_Range_checked_iterator_tag@0@@Z 000000018006f280 f i sgpmm.obj
 0001:0006e370       ??$_Uninit_move@PEAMPEAMV?$allocator@M@std@@U_Undefined_move_tag@2@@std@@YAPEAMPEAM00AEAV?$allocator@M@0@U_Undefined_move_tag@0@U_Range_checked_iterator_tag@0@@Z 000000018006f370 f i sgpmm.obj
 0001:0006e3c0       ??$_Copy_backward_opt@PEAMPEAMUrandom_access_iterator_tag@std@@@std@@YAPEAMPEAM00Urandom_access_iterator_tag@0@U_Scalar_ptr_iterator_tag@0@U_Range_checked_iterator_tag@0@@Z 000000018006f3c0 f i sgpmm.obj
 0001:0006e4b0       ??$_Checked_base@V?$_Vector_const_iterator@UPoint@CSGPMMFile@@V?$allocator@UPoint@CSGPMMFile@@@std@@@std@@@std@@YA?AV?$_Vector_const_iterator@UPoint@CSGPMMFile@@V?$allocator@UPoint@CSGPMMFile@@@std@@@0@AEAV10@@Z 000000018006f4b0 f i sgpmm.obj
 0001:0006e500       ??$_Ptr_cat@V?$_Vector_const_iterator@UPoint@CSGPMMFile@@V?$allocator@UPoint@CSGPMMFile@@@std@@@std@@PEAUPoint@CSGPMMFile@@@std@@YA?AU_Nonscalar_ptr_iterator_tag@0@AEAV?$_Vector_const_iterator@UPoint@CSGPMMFile@@V?$allocator@UPoint@CSGPMMFile@@@std@@@0@AEAPEAUPoint@CSGPMMFile@@@Z 000000018006f500 f i sgpmm.obj
 0001:0006e520       ??$_Uninit_copy@V?$_Vector_const_iterator@UPoint@CSGPMMFile@@V?$allocator@UPoint@CSGPMMFile@@@std@@@std@@PEAUPoint@CSGPMMFile@@V?$allocator@UPoint@CSGPMMFile@@@2@@std@@YAPEAUPoint@CSGPMMFile@@V?$_Vector_const_iterator@UPoint@CSGPMMFile@@V?$allocator@UPoint@CSGPMMFile@@@std@@@0@0PEAU12@AEAV?$allocator@UPoint@CSGPMMFile@@@0@U_Nonscalar_ptr_iterator_tag@0@U_Range_checked_iterator_tag@0@@Z 000000018006f520 f i sgpmm.obj
 0001:0006e6f0       ??$_Construct@UPoint@CSGPMMFile@@U12@@std@@YAXPEAUPoint@CSGPMMFile@@AEBU12@@Z 000000018006f6f0 f i sgpmm.obj
 0001:0006e790       ??$_Destroy@UPoint@CSGPMMFile@@@std@@YAXPEAUPoint@CSGPMMFile@@@Z 000000018006f790 f i sgpmm.obj
 0001:0006e7a0       ??$_Construct@V?$vector@UPoint@CSGPMMFile@@V?$allocator@UPoint@CSGPMMFile@@@std@@@std@@V12@@std@@YAXPEAV?$vector@UPoint@CSGPMMFile@@V?$allocator@UPoint@CSGPMMFile@@@std@@@0@AEBV10@@Z 000000018006f7a0 f i sgpmm.obj
 0001:0006e830       ??$_Destroy@V?$vector@UPoint@CSGPMMFile@@V?$allocator@UPoint@CSGPMMFile@@@std@@@std@@@std@@YAXPEAV?$vector@UPoint@CSGPMMFile@@V?$allocator@UPoint@CSGPMMFile@@@std@@@0@@Z 000000018006f830 f i sgpmm.obj
 0001:0006e850       ??_G?$vector@UPoint@CSGPMMFile@@V?$allocator@UPoint@CSGPMMFile@@@std@@@std@@QEAAPEAXI@Z 000000018006f850 f i sgpmm.obj
 0001:0006e8a0       ??$_Debug_pointer@UPoint@CSGPMMFile@@@std@@YAXPEAUPoint@CSGPMMFile@@PEB_WI@Z 000000018006f8a0 f i sgpmm.obj
 0001:0006e8f0       ??$_Iter_cat@PEA_K@std@@YA?AUrandom_access_iterator_tag@0@AEBQEA_K@Z 000000018006f8f0 f i sgpmm.obj
 0001:0006e910       ??$_Debug_range2@PEA_K@std@@YAXPEA_K0PEB_WIUrandom_access_iterator_tag@0@@Z 000000018006f910 f i sgpmm.obj
 0001:0006e9b0       ??$_Fill_n@PEA_K_K_K@std@@YAXPEA_K_KAEB_KUrandom_access_iterator_tag@0@U_Range_checked_iterator_tag@0@@Z 000000018006f9b0 f i sgpmm.obj
 0001:0006ea30       ??$_Iter_cat@PEAM@std@@YA?AUrandom_access_iterator_tag@0@AEBQEAM@Z 000000018006fa30 f i sgpmm.obj
 0001:0006ea50       ??$_Debug_range2@PEAM@std@@YAXPEAM0PEB_WIUrandom_access_iterator_tag@0@@Z 000000018006fa50 f i sgpmm.obj
 0001:0006eaf0       ??$_Fill_n@PEAM_KM@std@@YAXPEAM_KAEBMUrandom_access_iterator_tag@0@U_Range_checked_iterator_tag@0@@Z 000000018006faf0 f i sgpmm.obj
 0001:0006eb70       ??$_Iter_cat@PEAUPoint@CSGPMMFile@@@std@@YA?AUrandom_access_iterator_tag@0@AEBQEAUPoint@CSGPMMFile@@@Z 000000018006fb70 f i sgpmm.obj
 0001:0006eb90       ??$_Debug_range2@PEAUPoint@CSGPMMFile@@@std@@YAXPEAUPoint@CSGPMMFile@@0PEB_WIUrandom_access_iterator_tag@0@@Z 000000018006fb90 f i sgpmm.obj
 0001:0006ec30       ??$_Copy_backward_opt@PEAUPoint@CSGPMMFile@@PEAU12@Uforward_iterator_tag@std@@@std@@YAPEAUPoint@CSGPMMFile@@PEAU12@00Uforward_iterator_tag@0@U_Nonscalar_ptr_iterator_tag@0@U_Range_checked_iterator_tag@0@@Z 000000018006fc30 f i sgpmm.obj
 0001:0006ecd0       ??$_Debug_pointer@V?$vector@UPoint@CSGPMMFile@@V?$allocator@UPoint@CSGPMMFile@@@std@@@std@@@std@@YAXPEAV?$vector@UPoint@CSGPMMFile@@V?$allocator@UPoint@CSGPMMFile@@@std@@@0@PEB_WI@Z 000000018006fcd0 f i sgpmm.obj
 0001:0006ed20       ??$_Swap_adl@V?$vector@UPoint@CSGPMMFile@@V?$allocator@UPoint@CSGPMMFile@@@std@@@std@@@std@@YAXAEAV?$vector@UPoint@CSGPMMFile@@V?$allocator@UPoint@CSGPMMFile@@@std@@@0@0@Z 000000018006fd20 f i sgpmm.obj
 0001:0006ed50       ??$_Iter_cat@PEAV?$vector@UPoint@CSGPMMFile@@V?$allocator@UPoint@CSGPMMFile@@@std@@@std@@@std@@YA?AUrandom_access_iterator_tag@0@AEBQEAV?$vector@UPoint@CSGPMMFile@@V?$allocator@UPoint@CSGPMMFile@@@std@@@0@@Z 000000018006fd50 f i sgpmm.obj
 0001:0006ed70       ??$_Debug_range2@PEAV?$vector@UPoint@CSGPMMFile@@V?$allocator@UPoint@CSGPMMFile@@@std@@@std@@@std@@YAXPEAV?$vector@UPoint@CSGPMMFile@@V?$allocator@UPoint@CSGPMMFile@@@std@@@0@0PEB_WIUrandom_access_iterator_tag@0@@Z 000000018006fd70 f i sgpmm.obj
 0001:0006ee10       ??$unchecked_uninitialized_copy@PEA_KPEA_KV?$allocator@_K@std@@@stdext@@YAPEA_KPEA_K00AEAV?$allocator@_K@std@@@Z 000000018006fe10 f i sgpmm.obj
 0001:0006eeb0       ??$unchecked_uninitialized_copy@PEAMPEAMV?$allocator@M@std@@@stdext@@YAPEAMPEAM00AEAV?$allocator@M@std@@@Z 000000018006feb0 f i sgpmm.obj
 0001:0006ef50       ??$_Checked_base@V?$_Vector_const_iterator@UPoint@CSGPMMFile@@V?$allocator@UPoint@CSGPMMFile@@@std@@@std@@@std@@YA?AV?$_Vector_const_iterator@UPoint@CSGPMMFile@@V?$allocator@UPoint@CSGPMMFile@@@std@@@0@AEAV10@U_Unchanged_checked_iterator_base_type_tag@0@@Z 000000018006ff50 f i sgpmm.obj
 0001:0006efa0       ??$_Debug_range@V?$_Vector_const_iterator@UPoint@CSGPMMFile@@V?$allocator@UPoint@CSGPMMFile@@@std@@@std@@@std@@YAXV?$_Vector_const_iterator@UPoint@CSGPMMFile@@V?$allocator@UPoint@CSGPMMFile@@@std@@@0@0PEB_WI@Z 000000018006ffa0 f i sgpmm.obj
 0001:0006f0c0       ??$_Fill_n@PEA_K_K_K@std@@YAXPEA_K_KAEB_KU_Range_checked_iterator_tag@0@@Z 00000001800700c0 f i sgpmm.obj
 0001:0006f130       ??$_Fill_n@PEAM_KM@std@@YAXPEAM_KAEBMU_Range_checked_iterator_tag@0@@Z 0000000180070130 f i sgpmm.obj
 0001:0006f1a0       ??$swap@UPoint@CSGPMMFile@@V?$allocator@UPoint@CSGPMMFile@@@std@@@std@@YAXAEAV?$vector@UPoint@CSGPMMFile@@V?$allocator@UPoint@CSGPMMFile@@@std@@@0@0@Z 00000001800701a0 f i sgpmm.obj
 0001:0006f1d0       ??$_Uninit_copy@PEA_KPEA_KV?$allocator@_K@std@@@std@@YAPEA_KPEA_K00AEAV?$allocator@_K@0@U_Scalar_ptr_iterator_tag@0@U_Range_checked_iterator_tag@0@@Z 00000001800701d0 f i sgpmm.obj
 0001:0006f2b0       ??$_Uninit_copy@PEAMPEAMV?$allocator@M@std@@@std@@YAPEAMPEAM00AEAV?$allocator@M@0@U_Scalar_ptr_iterator_tag@0@U_Range_checked_iterator_tag@0@@Z 00000001800702b0 f i sgpmm.obj
 0001:0006f390       ??$_Iter_cat@V?$_Vector_const_iterator@UPoint@CSGPMMFile@@V?$allocator@UPoint@CSGPMMFile@@@std@@@std@@@std@@YA?AUrandom_access_iterator_tag@0@AEBV?$_Vector_const_iterator@UPoint@CSGPMMFile@@V?$allocator@UPoint@CSGPMMFile@@@std@@@0@@Z 0000000180070390 f i sgpmm.obj
 0001:0006f3b0       ??$_Debug_range2@V?$_Vector_const_iterator@UPoint@CSGPMMFile@@V?$allocator@UPoint@CSGPMMFile@@@std@@@std@@@std@@YAXV?$_Vector_const_iterator@UPoint@CSGPMMFile@@V?$allocator@UPoint@CSGPMMFile@@@std@@@0@0PEB_WIUrandom_access_iterator_tag@0@@Z 00000001800703b0 f i sgpmm.obj
 0001:0006f480       ?swap@?$vector@UPoint@CSGPMMFile@@V?$allocator@UPoint@CSGPMMFile@@@std@@@std@@QEAAXAEAV12@@Z 0000000180070480 f i sgpmm.obj
 0001:0006f5c0       ??$_Debug_pointer@V?$_Vector_const_iterator@UPoint@CSGPMMFile@@V?$allocator@UPoint@CSGPMMFile@@@std@@@std@@@std@@YAXAEAV?$_Vector_const_iterator@UPoint@CSGPMMFile@@V?$allocator@UPoint@CSGPMMFile@@@std@@@0@PEB_WI@Z 00000001800705c0 f i sgpmm.obj
 0001:0006f5e0       ??$?8UPoint@CSGPMMFile@@U01@@std@@YA_NAEBV?$allocator@UPoint@CSGPMMFile@@@0@0@Z 00000001800705e0 f i sgpmm.obj
 0001:0006f5f0       ??$swap@PEAUPoint@CSGPMMFile@@@std@@YAXAEAPEAUPoint@CSGPMMFile@@0@Z 00000001800705f0 f i sgpmm.obj
 0001:0006f650       ??0CSP1401R1A@@QEAA@II@Z   0000000180070650 f   SP1401R1A.obj
 0001:0006f6f0       ??1CSP1401R1A@@UEAA@XZ     00000001800706f0 f   SP1401R1A.obj
 0001:0006f720       ?OpenBoard@CSP1401R1A@@UEAAHXZ 0000000180070720 f   SP1401R1A.obj
 0001:0006faa0       ?InitLO@CSP1401R1A@@QEAAHXZ 0000000180070aa0 f   SP1401R1A.obj
 0001:0006fe70       ?CloseBoard@CSP1401R1A@@UEAAHXZ 0000000180070e70 f   SP1401R1A.obj
 0001:0006fe80       ?SetLED@CSP1401R1A@@UEAAH_N0@Z 0000000180070e80 f   SP1401R1A.obj
 0001:00070050       ?GetConnect@CSP1401R1A@@UEAA_NXZ 0000000180071050 f   SP1401R1A.obj
 0001:00070120       ?GetCalFile@CSP1401R1A@@UEAAPEAVCalFileR1A@@XZ 0000000180071120 f   SP1401R1A.obj
 0001:00070140       ?TxFreq2LO@CSP1401R1A@@QEAAH_KAEA_K1AEAW4TxBand@1@@Z 0000000180071140 f   SP1401R1A.obj
 0001:000701d0       ?TxLO2Freq@CSP1401R1A@@QEAAH_K0W4TxBand@1@AEA_K@Z 00000001800711d0 f   SP1401R1A.obj
 0001:00070240       ?RxFreq2LO@CSP1401R1A@@QEAAH_KAEA_K1@Z 0000000180071240 f   SP1401R1A.obj
 0001:00070290       ?RxLO2Freq@CSP1401R1A@@QEAAH_K0AEA_K@Z 0000000180071290 f   SP1401R1A.obj
 0001:000702f0       ?IOMode2IOSw@CSP1401R1A@@QEAAHW4IOMode@SP1401@@AEAW4TxIOSw@1@AEAW4RxIOSw@1@AEAW4RxIOSw1@1@AEAW4RxIOSw2@1@AEA_N5@Z 00000001800712f0 f   SP1401R1A.obj
 0001:000703f0       ?SetPowEn@CSP1401R1A@@UEAAH_N@Z 00000001800713f0 f   SP1401R1A.obj
 0001:000705e0       ?SetTxModulatorEn@CSP1401R1A@@UEAAH_N@Z 00000001800715e0 f   SP1401R1A.obj
 0001:000707d0       ?SetIOMode@CSP1401R1A@@UEAAHW4IOMode@SP1401@@@Z 00000001800717d0 f   SP1401R1A.obj
 0001:00070aa0       ?GetIOMode@CSP1401R1A@@UEAAHAEAW4IOMode@SP1401@@@Z 0000000180071aa0 f   SP1401R1A.obj
 0001:00070c80       ?SetTxBandSw@CSP1401R1A@@QEAAHW4TxBand@1@@Z 0000000180071c80 f   SP1401R1A.obj
 0001:00070ea0       ?SetTxPAAttSw@CSP1401R1A@@QEAAHW4TxPAAtt@SP1401@@@Z 0000000180071ea0 f   SP1401R1A.obj
 0001:00071090       ?SetTxIOSw@CSP1401R1A@@QEAAHW4TxIOSw@1@@Z 0000000180072090 f   SP1401R1A.obj
 0001:000713e0       ?SetLO@CSP1401R1A@@QEAAHW4LO@1@_K@Z 00000001800723e0 f   SP1401R1A.obj
 0001:00071710       ?DetLO@CSP1401R1A@@QEAAHW4LO@1@AEA_N@Z 0000000180072710 f   SP1401R1A.obj
 0001:00071780       ?SetTxLO1Reg@CSP1401R1A@@QEAAHI@Z 0000000180072780 f   SP1401R1A.obj
 0001:000735c0       ?SetTxLO2Reg@CSP1401R1A@@QEAAHI@Z 00000001800745c0 f   SP1401R1A.obj
 0001:00075400       ?DetTxLO1Lock@CSP1401R1A@@QEAAHAEA_N@Z 0000000180076400 f   SP1401R1A.obj
 0001:000755f0       ?DetTxLO2Lock@CSP1401R1A@@QEAAHAEA_N@Z 00000001800765f0 f   SP1401R1A.obj
 0001:000757e0       ?SetTxFreq@CSP1401R1A@@UEAAH_K@Z 00000001800767e0 f   SP1401R1A.obj
 0001:000758a0       ?SetTxAtt1@CSP1401R1A@@QEAAHH@Z 00000001800768a0 f   SP1401R1A.obj
 0001:00075ca0       ?SetTxAtt2@CSP1401R1A@@QEAAHH@Z 0000000180076ca0 f   SP1401R1A.obj
 0001:000760a0       ?SetTxAtt3@CSP1401R1A@@QEAAHH@Z 00000001800770a0 f   SP1401R1A.obj
 0001:000764a0       ?SetTxAtt@CSP1401R1A@@QEAAHHHH@Z 00000001800774a0 f   SP1401R1A.obj
 0001:00076530       ?SetTxAtt@CSP1401R1A@@UEAAHN@Z 0000000180077530 f   SP1401R1A.obj
 0001:00076680       ?SyncSetTxGain@CSP1401R1A@@QEAAHHHHN@Z 0000000180077680 f   SP1401R1A.obj
 0001:00076fc0       ?SetRxLNAAttSw@CSP1401R1A@@UEAAHW4RxLNAAtt@SP1401@@@Z 0000000180077fc0 f   SP1401R1A.obj
 0001:000771b0       ?SetRxFreq@CSP1401R1A@@UEAAH_K@Z 00000001800781b0 f   SP1401R1A.obj
 0001:00077220       ?SetRxIOSw1@CSP1401R1A@@QEAAHW4RxIOSw1@1@@Z 0000000180078220 f   SP1401R1A.obj
 0001:00077570       ?SetRxIOSw2@CSP1401R1A@@QEAAHW4RxIOSw2@1@@Z 0000000180078570 f   SP1401R1A.obj
 0001:000778c0       ?SetRxIOSw@CSP1401R1A@@QEAAHW4RxIOSw@1@@Z 00000001800788c0 f   SP1401R1A.obj
 0001:00077c10       ?SetRxLO1Reg@CSP1401R1A@@QEAAHI@Z 0000000180078c10 f   SP1401R1A.obj
 0001:00079a50       ?DetRxLO1Lock@CSP1401R1A@@QEAAHAEA_N@Z 000000018007aa50 f   SP1401R1A.obj
 0001:00079c40       ?SetRxLO2Reg@CSP1401R1A@@QEAAHI@Z 000000018007ac40 f   SP1401R1A.obj
 0001:0007ba80       ?DetRxLO2Lock@CSP1401R1A@@QEAAHAEA_N@Z 000000018007ca80 f   SP1401R1A.obj
 0001:0007bc70       ?SetRxAtt1@CSP1401R1A@@QEAAHNPEAN@Z 000000018007cc70 f   SP1401R1A.obj
 0001:0007db60       ?SetRxAtt2@CSP1401R1A@@QEAAHHPEAH@Z 000000018007eb60 f   SP1401R1A.obj
 0001:0007de00       ?SetRxAtt@CSP1401R1A@@QEAAHNH@Z 000000018007ee00 f   SP1401R1A.obj
 0001:0007de70       ?SetRxAtt@CSP1401R1A@@QEAAHNPEANPEAH@Z 000000018007ee70 f   SP1401R1A.obj
 0001:0007dff0       ?GetTxTemp@CSP1401R1A@@QEAAHAEAN@Z 000000018007eff0 f   SP1401R1A.obj
 0001:0007e2c0       ?GetRxTemp@CSP1401R1A@@QEAAHAEAN@Z 000000018007f2c0 f   SP1401R1A.obj
 0001:0007e590       ?SetLTC2666@CSP1401R1A@@QEAAHGH@Z 000000018007f590 f   SP1401R1A.obj
 0001:00080420       ?SetLTC2666@CSP1401R1A@@QEAAHGN@Z 0000000180081420 f   SP1401R1A.obj
 0001:000804c0       ?GetLTC2666@CSP1401R1A@@QEAAHGAEAH@Z 00000001800814c0 f   SP1401R1A.obj
 0001:00080e90       ?SetDetSw@CSP1401R1A@@QEAAHW4RFCh@ISP1401@@@Z 0000000180081e90 f   SP1401R1A.obj
 0001:00081080       ?SetRxLMH5401N@CSP1401R1A@@QEAAHN@Z 0000000180082080 f   SP1401R1A.obj
 0001:000810c0       ?SetRxLMH5401P@CSP1401R1A@@QEAAHN@Z 00000001800820c0 f   SP1401R1A.obj
 0001:00081110       ?SetTxLO2XB1007@CSP1401R1A@@QEAAHN@Z 0000000180082110 f   SP1401R1A.obj
 0001:00081160       ?SetRxIF1HMC694VGG1@CSP1401R1A@@QEAAHN@Z 0000000180082160 f   SP1401R1A.obj
 0001:000811b0       ?SetRxIF1HMC694VGA@CSP1401R1A@@QEAAHN@Z 00000001800821b0 f   SP1401R1A.obj
 0001:00081200       ?SetRxIF1HMC694VGG2@CSP1401R1A@@QEAAHN@Z 0000000180082200 f   SP1401R1A.obj
 0001:00085940       ??_ECSP1401R1A@@UEAAPEAXI@Z 0000000180086940 f i SP1401R1A.obj
 0001:00085940       ??_GCSP1401R1A@@UEAAPEAXI@Z 0000000180086940 f i SP1401R1A.obj
 0001:00085990       ?abs@@YANN@Z               0000000180086990 f i SP1401R1A.obj
 0001:000859b0       ??0GPIOA@CSP1401R1C@@QEAA@XZ 00000001800869b0 f   SP1401R1C.obj
 0001:00085a50       ??0GPIOB@CSP1401R1C@@QEAA@XZ 0000000180086a50 f   SP1401R1C.obj
 0001:00085af0       ??0CSP1401R1C@@QEAA@II@Z   0000000180086af0 f   SP1401R1C.obj
 0001:00085b90       ??1CSP1401R1C@@UEAA@XZ     0000000180086b90 f   SP1401R1C.obj
 0001:00085bc0       ?OpenBoard@CSP1401R1C@@UEAAHXZ 0000000180086bc0 f   SP1401R1C.obj
 0001:00085d00       ?InitADF5355@CSP1401R1C@@QEAAHXZ 0000000180086d00 f   SP1401R1C.obj
 0001:000860d0       ?InitHMC1197@CSP1401R1C@@QEAAHXZ 00000001800870d0 f   SP1401R1C.obj
 0001:000863b0       ?CloseBoard@CSP1401R1C@@UEAAHXZ 00000001800873b0 f   SP1401R1C.obj
 0001:000863c0       ?SetLED@CSP1401R1C@@UEAAH_N0@Z 00000001800873c0 f   SP1401R1C.obj
 0001:00086570       ?GetConnect@CSP1401R1C@@UEAA_NXZ 0000000180087570 f   SP1401R1C.obj
 0001:000866c0       ?GetCalFile@CSP1401R1C@@UEAAPEAVCalFileR1C@@XZ 00000001800876c0 f   SP1401R1C.obj
 0001:000866e0       ?TxFreq2LO@CSP1401R1C@@QEAAH_KAEA_K11AEAW4TxFilter@1@@Z 00000001800876e0 f   SP1401R1C.obj
 0001:00086770       ?TxLO2Freq@CSP1401R1C@@QEAAH_K00AEA_K@Z 0000000180087770 f   SP1401R1C.obj
 0001:00086810       ?RxFreq2LO@CSP1401R1C@@QEAAH_KAEA_K1@Z 0000000180087810 f   SP1401R1C.obj
 0001:00086860       ?RxLO2Freq@CSP1401R1C@@QEAAH_K0AEA_K@Z 0000000180087860 f   SP1401R1C.obj
 0001:000868c0       ?IOMode2IOSw@CSP1401R1C@@QEAAHW4IOMode@SP1401@@AEAW4TxIOSw1@1@AEAW4TxIOSw2@1@AEAW4RxIOSw1@1@AEAW4RxIOSw2@1@AEAW4RxIOSw3@1@AEAW4LoopSw@1@AEA_N7@Z 00000001800878c0 f   SP1401R1C.obj
 0001:00086a10       ?IOMode2LED@CSP1401R1C@@QEAAHW4IOMode@SP1401@@AEA_N111@Z 0000000180087a10 f   SP1401R1C.obj
 0001:00086ac0       ?SetPowEn@CSP1401R1C@@UEAAH_N@Z 0000000180087ac0 f   SP1401R1C.obj
 0001:00086cb0       ?SetTxModulatorEn@CSP1401R1C@@UEAAH_N@Z 0000000180087cb0 f   SP1401R1C.obj
 0001:00087bd0       ?SetIOMode@CSP1401R1C@@UEAAHW4IOMode@SP1401@@@Z 0000000180088bd0 f   SP1401R1C.obj
 0001:00087f50       ?GetIOMode@CSP1401R1C@@UEAAHAEAW4IOMode@SP1401@@@Z 0000000180088f50 f   SP1401R1C.obj
 0001:00088050       ?SetADF5355@CSP1401R1C@@QEAAHW4LO@1@_K@Z 0000000180089050 f   SP1401R1C.obj
 0001:00088370       ?SetHMC1197@CSP1401R1C@@QEAAH_K@Z 0000000180089370 f   SP1401R1C.obj
 0001:00088390       ?DetLO@CSP1401R1C@@QEAAHW4LO@1@AEA_N@Z 0000000180089390 f   SP1401R1C.obj
 0001:00088400       ?SetTxLO1Reg@CSP1401R1C@@QEAAHI@Z 0000000180089400 f   SP1401R1C.obj
 0001:00088430       ?GetTxLO1Reg@CSP1401R1C@@QEAAHIAEAI@Z 0000000180089430 f   SP1401R1C.obj
 0001:00088460       ?SetTxLO1RegOpenMode@CSP1401R1C@@QEAAHI@Z 0000000180089460 f   SP1401R1C.obj
 0001:0008ade0       ?GetTxLO1RegOpenMode@CSP1401R1C@@QEAAHIAEAI@Z 000000018008bde0 f   SP1401R1C.obj
 0001:0008dd90       ?SetTxLO1RegHMCMode@CSP1401R1C@@QEAAHI@Z 000000018008ed90 f   SP1401R1C.obj
 0001:0008f9c0       ?GetTxLO1RegHMCMode@CSP1401R1C@@QEAAHIAEAI@Z 00000001800909c0 f   SP1401R1C.obj
 0001:000915e0       ?DetTxLO1Lock@CSP1401R1C@@QEAAHAEA_N@Z 00000001800925e0 f   SP1401R1C.obj
 0001:000917d0       ?SetTxLO2Reg@CSP1401R1C@@QEAAHI@Z 00000001800927d0 f   SP1401R1C.obj
 0001:00093610       ?DetTxLO2Lock@CSP1401R1C@@QEAAHAEA_N@Z 0000000180094610 f   SP1401R1C.obj
 0001:00093800       ?SetTxLO3Reg@CSP1401R1C@@QEAAHI@Z 0000000180094800 f   SP1401R1C.obj
 0001:00095640       ?DetTxLO3Lock@CSP1401R1C@@QEAAHAEA_N@Z 0000000180096640 f   SP1401R1C.obj
 0001:00095830       ?SetTxFreq@CSP1401R1C@@UEAAH_K@Z 0000000180096830 f   SP1401R1C.obj
 0001:000958f0       ?SetTxFilterSw@CSP1401R1C@@QEAAHW4TxFilter@1@0@Z 00000001800968f0 f   SP1401R1C.obj
 0001:00095cd0       ?SetTxIOSw1@CSP1401R1C@@QEAAHW4TxIOSw1@1@@Z 0000000180096cd0 f   SP1401R1C.obj
 0001:00095d70       ?SetTxIOSw2@CSP1401R1C@@QEAAHW4TxIOSw2@1@@Z 0000000180096d70 f   SP1401R1C.obj
 0001:00095e10       ?SetLoopSw@CSP1401R1C@@QEAAHW4LoopSw@1@@Z 0000000180096e10 f   SP1401R1C.obj
 0001:00095eb0       ?SetTxAtt0@CSP1401R1C@@QEAAHN@Z 0000000180096eb0 f   SP1401R1C.obj
 0001:00097d20       ?SetTxAtt1@CSP1401R1C@@QEAAHN@Z 0000000180098d20 f   SP1401R1C.obj
 0001:00099b90       ?SetTxAtt2@CSP1401R1C@@QEAAHN@Z 000000018009ab90 f   SP1401R1C.obj
 0001:0009ba10       ?SetTxAtt3@CSP1401R1C@@QEAAHN@Z 000000018009ca10 f   SP1401R1C.obj
 0001:0009d890       ?SetTxAtt@CSP1401R1C@@QEAAHNNNN@Z 000000018009e890 f   SP1401R1C.obj
 0001:0009d940       ?SetTxAtt@CSP1401R1C@@UEAAHN@Z 000000018009e940 f   SP1401R1C.obj
 0001:0009d960       ?SyncSetTxGain@CSP1401R1C@@QEAAHNNNNN@Z 000000018009e960 f   SP1401R1C.obj
 0001:0009e2b0       ?SetRxFreq@CSP1401R1C@@UEAAH_K@Z 000000018009f2b0 f   SP1401R1C.obj
 0001:0009e320       ?SetRxIOSw1@CSP1401R1C@@QEAAHW4RxIOSw1@1@@Z 000000018009f320 f   SP1401R1C.obj
 0001:0009e3c0       ?SetRxIOSw2@CSP1401R1C@@QEAAHW4RxIOSw2@1@@Z 000000018009f3c0 f   SP1401R1C.obj
 0001:0009e460       ?SetRxIOSw3@CSP1401R1C@@QEAAHW4RxIOSw3@1@@Z 000000018009f460 f   SP1401R1C.obj
 0001:0009e500       ?SetRxLO1Reg@CSP1401R1C@@QEAAHI@Z 000000018009f500 f   SP1401R1C.obj
 0001:000a0340       ?DetRxLO1Lock@CSP1401R1C@@QEAAHAEA_N@Z 00000001800a1340 f   SP1401R1C.obj
 0001:000a0530       ?SetRxAtt019Sw@CSP1401R1C@@QEAAHW4RxAtt019@SP1401@@@Z 00000001800a1530 f   SP1401R1C.obj
 0001:000a05d0       ?SetRxLNAAttSw@CSP1401R1C@@UEAAHW4RxLNAAtt@SP1401@@@Z 00000001800a15d0 f   SP1401R1C.obj
 0001:000a0670       ?SetRxAtt1@CSP1401R1C@@QEAAHN@Z 00000001800a1670 f   SP1401R1C.obj
 0001:000a24f0       ?SetRxAtt2@CSP1401R1C@@QEAAHN@Z 00000001800a34f0 f   SP1401R1C.obj
 0001:000a4360       ?SetRxAtt3@CSP1401R1C@@QEAAHN@Z 00000001800a5360 f   SP1401R1C.obj
 0001:000a61d0       ?SetRxAtt@CSP1401R1C@@QEAAHNNN@Z 00000001800a71d0 f   SP1401R1C.obj
 0001:000a6260       ?GetTemp0RxLO2@CSP1401R1C@@QEAAHPEAN@Z 00000001800a7260 f   SP1401R1C.obj
 0001:000a62c0       ?GetTemp1RxLNA@CSP1401R1C@@QEAAHPEAN@Z 00000001800a72c0 f   SP1401R1C.obj
 0001:000a6320       ?GetTemp2RxLO1@CSP1401R1C@@QEAAHPEAN@Z 00000001800a7320 f   SP1401R1C.obj
 0001:000a6380       ?GetTemp3RxPA1@CSP1401R1C@@QEAAHPEAN@Z 00000001800a7380 f   SP1401R1C.obj
 0001:000a63e0       ?GetTemp4TxLO2@CSP1401R1C@@QEAAHPEAN@Z 00000001800a73e0 f   SP1401R1C.obj
 0001:000a6440       ?GetTemp5TxLO1@CSP1401R1C@@QEAAHPEAN@Z 00000001800a7440 f   SP1401R1C.obj
 0001:000a64a0       ?GetTemp6TxPA4@CSP1401R1C@@QEAAHPEAN@Z 00000001800a74a0 f   SP1401R1C.obj
 0001:000a6500       ?GetTemp7TxPA3@CSP1401R1C@@QEAAHPEAN@Z 00000001800a7500 f   SP1401R1C.obj
 0001:000a6560       ?GetAD7680TxIF2@CSP1401R1C@@QEAAHAEAI@Z 00000001800a7560 f   SP1401R1C.obj
 0001:000a67e0       ?GetAD7680RxComb@CSP1401R1C@@QEAAHAEAI@Z 00000001800a77e0 f   SP1401R1C.obj
 0001:000a6a60       ?GetAD7680RxIF1@CSP1401R1C@@QEAAHAEAI@Z 00000001800a7a60 f   SP1401R1C.obj
 0001:000a6ce0       ?GetAD7680RxIF2@CSP1401R1C@@QEAAHAEAI@Z 00000001800a7ce0 f   SP1401R1C.obj
 0001:000a6f60       ?SetMCP23S17Reg@CSP1401R1C@@QEAAHII@Z 00000001800a7f60 f   SP1401R1C.obj
 0001:000a8b80       ?GetMCP23S17Reg@CSP1401R1C@@QEAAHIAEAI@Z 00000001800a9b80 f   SP1401R1C.obj
 0001:000aa7a0       ?InitMCP23S17@CSP1401R1C@@QEAAHXZ 00000001800ab7a0 f   SP1401R1C.obj
 0001:000aa800       ?GetMCP3208@CSP1401R1C@@QEAAHIAEAI@Z 00000001800ab800 f   SP1401R1C.obj
 0001:000b5780       ??_ECSP1401R1C@@UEAAPEAXI@Z 00000001800b6780 f i SP1401R1C.obj
 0001:000b5780       ??_GCSP1401R1C@@UEAAPEAXI@Z 00000001800b6780 f i SP1401R1C.obj
 0001:000b57d0       ?Add@TxAttTableR1A@@UEAAXPEAUDataF@1@@Z 00000001800b67d0 f   TxAttTable.obj
 0001:000b5840       ?Map2Mem@TxAttTableR1A@@QEAAXXZ 00000001800b6840 f   TxAttTable.obj
 0001:000b5a80       ?Get@TxAttTableR1A@@QEAAX_KPEAM@Z 00000001800b6a80 f   TxAttTable.obj
 0001:000b5c00       ?Get@TxAttTableR1A@@QEAAX_KHAEAN@Z 00000001800b6c00 f   TxAttTable.obj
 0001:000b5cf0       ?SaveAs@TxAttTableR1A@@QEAAXPEAD@Z 00000001800b6cf0 f   TxAttTable.obj
 0001:000b5ea0       ?Add@TxAttOPTableR1C@@UEAAXPEAUDataF@1@@Z 00000001800b6ea0 f   TxAttTable.obj
 0001:000b5f20       ??0DataF@TxAttOPTableR1C@@QEAA@XZ 00000001800b6f20 f   TxAttTable.obj
 0001:000b6040       ?Map2Mem@TxAttOPTableR1C@@QEAAXXZ 00000001800b7040 f   TxAttTable.obj
 0001:000b6170       ?Get@TxAttOPTableR1C@@QEAAM_KN@Z 00000001800b7170 f   TxAttTable.obj
 0001:000b62b0       ?Get@TxAttOPTableR1C@@QEAAX_KPEAUDataM@1@@Z 00000001800b72b0 f   TxAttTable.obj
 0001:000b6360       ?Get@TxAttOPTableR1C@@QEAAX_KPEAUDataF@1@@Z 00000001800b7360 f   TxAttTable.obj
 0001:000b6490       ?SaveAs@TxAttOPTableR1C@@QEAAXPEAD@Z 00000001800b7490 f   TxAttTable.obj
 0001:000b64b0       ?Add@TxAttIOTableR1C@@UEAAXPEAUDataF@1@@Z 00000001800b74b0 f   TxAttTable.obj
 0001:000b6530       ??0DataF@TxAttIOTableR1C@@QEAA@XZ 00000001800b7530 f   TxAttTable.obj
 0001:000b6650       ?Map2Mem@TxAttIOTableR1C@@QEAAXXZ 00000001800b7650 f   TxAttTable.obj
 0001:000b6780       ?Get@TxAttIOTableR1C@@QEAAM_KN@Z 00000001800b7780 f   TxAttTable.obj
 0001:000b68c0       ?Get@TxAttIOTableR1C@@QEAAX_KPEAUDataM@1@@Z 00000001800b78c0 f   TxAttTable.obj
 0001:000b6970       ?Get@TxAttIOTableR1C@@QEAAX_KPEAUDataF@1@@Z 00000001800b7970 f   TxAttTable.obj
 0001:000b6aa0       ?SaveAs@TxAttIOTableR1C@@QEAAXPEAD@Z 00000001800b7aa0 f   TxAttTable.obj
 0001:000b6f70       ??$linear@_KM@@YAX_KM0M0AEAM@Z 00000001800b7f70 f i TxAttTable.obj
 0001:000b7030       ?Add@TxFilterOffTableR1C@@UEAAXPEAUDataF@1@@Z 00000001800b8030 f   TxFilterOffTable.obj
 0001:000b70b0       ??0DataF@TxFilterOffTableR1C@@QEAA@XZ 00000001800b80b0 f   TxFilterOffTable.obj
 0001:000b7180       ?Map2Mem@TxFilterOffTableR1C@@QEAAXXZ 00000001800b8180 f   TxFilterOffTable.obj
 0001:000b7270       ?Get@TxFilterOffTableR1C@@QEAAX_KPEAUDataM@1@@Z 00000001800b8270 f   TxFilterOffTable.obj
 0001:000b72f0       ?Get@TxFilterOffTableR1C@@QEAAX_KPEAUDataF@1@@Z 00000001800b82f0 f   TxFilterOffTable.obj
 0001:000b73b0       ?SaveAs@TxFilterOffTableR1C@@QEAAXPEAD@Z 00000001800b83b0 f   TxFilterOffTable.obj
 0001:000b7650       ??0DataF@TxRFFrTable@@QEAA@XZ 00000001800b8650 f   TxFilterTable.obj
 0001:000b7680       ?Add@TxRFFr_0_TableR1C@@UEAAXPEAUDataF@TxRFFrTable@@@Z 00000001800b8680 f   TxFilterTable.obj
 0001:000b76f0       ?Get@TxRFFr_0_TableR1C@@QEAAX_KPEAUDataF@TxRFFrTable@@@Z 00000001800b86f0 f   TxFilterTable.obj
 0001:000b7750       ?SaveAs@TxRFFr_0_TableR1C@@QEAAXPEAD@Z 00000001800b8750 f   TxFilterTable.obj
 0001:000b7800       ?Add@TxRFFr_1_TableR1C@@UEAAXPEAUDataF@TxRFFrTable@@@Z 00000001800b8800 f   TxFilterTable.obj
 0001:000b7870       ?Get@TxRFFr_1_TableR1C@@QEAAX_KPEAUDataF@TxRFFrTable@@@Z 00000001800b8870 f   TxFilterTable.obj
 0001:000b78d0       ?SaveAs@TxRFFr_1_TableR1C@@QEAAXPEAD@Z 00000001800b88d0 f   TxFilterTable.obj
 0001:000b7990       ??0DataF@TxIFFrTableR1C@@QEAA@XZ 00000001800b8990 f   TxFilterTable.obj
 0001:000b79c0       ?Add@TxIFFrTableR1C@@UEAAXPEAUDataF@1@@Z 00000001800b89c0 f   TxFilterTable.obj
 0001:000b7a30       ?Get@TxIFFrTableR1C@@QEAAXNPEAUDataF@1@@Z 00000001800b8a30 f   TxFilterTable.obj
 0001:000b7a90       ?SaveAs@TxIFFrTableR1C@@QEAAXPEAD@Z 00000001800b8a90 f   TxFilterTable.obj
 0001:000b7b60       ?Add@TxFilter_80M_TableR1C@@UEAAXPEAUDataF@1@@Z 00000001800b8b60 f   TxFilterTable.obj
 0001:000b7be0       ??0DataF@TxFilter_80M_TableR1C@@QEAA@XZ 00000001800b8be0 f   TxFilterTable.obj
 0001:000b7d20       ?_2Double@DataM@TxFilter_80M_TableR1C@@QEAAXPEAN0@Z 00000001800b8d20 f   TxFilterTable.obj
 0001:000b7db0       ?Map2Mem@TxFilter_80M_TableR1C@@QEAAXXZ 00000001800b8db0 f   TxFilterTable.obj
 0001:000b7f40       ?Get@TxFilter_80M_TableR1C@@QEAAX_KPEAUDataM@1@@Z 00000001800b8f40 f   TxFilterTable.obj
 0001:000b7ff0       ?Get@TxFilter_80M_TableR1C@@QEAAX_KPEAUDataF@1@@Z 00000001800b8ff0 f   TxFilterTable.obj
 0001:000b80b0       ?SaveAs@TxFilter_80M_TableR1C@@QEAAXPEAD@Z 00000001800b90b0 f   TxFilterTable.obj
 0001:000b80d0       ?Add@TxFilter_160M_TableR1C@@UEAAXPEAUDataF@1@@Z 00000001800b90d0 f   TxFilterTable.obj
 0001:000b8150       ??0DataF@TxFilter_160M_TableR1C@@QEAA@XZ 00000001800b9150 f   TxFilterTable.obj
 0001:000b8290       ?_2Double@DataM@TxFilter_160M_TableR1C@@QEAAXPEAN0@Z 00000001800b9290 f   TxFilterTable.obj
 0001:000b8320       ?Map2Mem@TxFilter_160M_TableR1C@@QEAAXXZ 00000001800b9320 f   TxFilterTable.obj
 0001:000b84b0       ?Get@TxFilter_160M_TableR1C@@QEAAX_KPEAUDataM@1@@Z 00000001800b94b0 f   TxFilterTable.obj
 0001:000b8560       ?Get@TxFilter_160M_TableR1C@@QEAAX_KPEAUDataF@1@@Z 00000001800b9560 f   TxFilterTable.obj
 0001:000b8620       ?SaveAs@TxFilter_160M_TableR1C@@QEAAXPEAD@Z 00000001800b9620 f   TxFilterTable.obj
 0001:000b8a30       ?Add@TxLOLeakageTableR1A@@UEAAXPEAUDataF@1@@Z 00000001800b9a30 f   TxLoLeakageTable.obj
 0001:000b8aa0       ??0DataF@TxLOLeakageTableR1A@@QEAA@XZ 00000001800b9aa0 f   TxLoLeakageTable.obj
 0001:000b8ae0       ?Map2Mem@TxLOLeakageTableR1A@@QEAAXXZ 00000001800b9ae0 f   TxLoLeakageTable.obj
 0001:000b8c00       ?Get@TxLOLeakageTableR1A@@QEAAX_KAEAF1@Z 00000001800b9c00 f   TxLoLeakageTable.obj
 0001:000b8d30       ?SaveAs@TxLOLeakageTableR1A@@QEAAXPEAD@Z 00000001800b9d30 f   TxLoLeakageTable.obj
 0001:000b8e00       ??0TxLOLeakageTableR1C@@QEAA@XZ 00000001800b9e00 f   TxLoLeakageTable.obj
 0001:000b8e50       ??1TxLOLeakageTableR1C@@UEAA@XZ 00000001800b9e50 f   TxLoLeakageTable.obj
 0001:000b8eb0       ??0DataF@TxLOLeakageTableR1C@@QEAA@XZ 00000001800b9eb0 f   TxLoLeakageTable.obj
 0001:000b8fb0       ?Add@TxLOLeakageTableR1C@@UEAAXPEAUDataF@1@@Z 00000001800b9fb0 f   TxLoLeakageTable.obj
 0001:000b9000       ?Map2Mem@TxLOLeakageTableR1C@@QEAAXXZ 00000001800ba000 f   TxLoLeakageTable.obj
 0001:000b90a0       ?Get@TxLOLeakageTableR1C@@QEAAX_KAEAF1AEAM@Z 00000001800ba0a0 f   TxLoLeakageTable.obj
 0001:000b9110       ?Get@TxLOLeakageTableR1C@@QEAAX_KPEAUDataM@1@@Z 00000001800ba110 f   TxLoLeakageTable.obj
 0001:000b91a0       ?Get@TxLOLeakageTableR1C@@QEAAX_KPEAUDataF@1@@Z 00000001800ba1a0 f   TxLoLeakageTable.obj
 0001:000b9200       ?SaveAs@TxLOLeakageTableR1C@@QEAAXPEAD@Z 00000001800ba200 f   TxLoLeakageTable.obj
 0001:000b9390       ?Map2Mem@X9119Table@@QEAAXXZ 00000001800ba390 f   TxLoLeakageTable.obj
 0001:000b93b0       ?Add@X9119Table@@QEAAXPEAUData@1@@Z 00000001800ba3b0 f   TxLoLeakageTable.obj
 0001:000b93e0       ?Get@X9119Table@@QEAAXAEAF@Z 00000001800ba3e0 f   TxLoLeakageTable.obj
 0001:000b9410       ?SaveAs@X9119Table@@QEAAXPEAD@Z 00000001800ba410 f   TxLoLeakageTable.obj
 0001:000b9710       ??_ETxLOLeakageTableR1C@@UEAAPEAXI@Z 00000001800ba710 f i TxLoLeakageTable.obj
 0001:000b9710       ??_GTxLOLeakageTableR1C@@UEAAPEAXI@Z 00000001800ba710 f i TxLoLeakageTable.obj
 0001:000b9760       ??$linear@_KF@@YAX_KF0F0AEAF@Z 00000001800ba760 f i TxLoLeakageTable.obj
 0001:000b9820       ?Add@TxPowerTableR1A@@UEAAXPEAUDataF@1@@Z 00000001800ba820 f   TxPowerTable.obj
 0001:000b98a0       ?Map2Mem@TxPowerTableR1A@@QEAAXXZ 00000001800ba8a0 f   TxPowerTable.obj
 0001:000b9b70       ?GetPowerIndex@TxPowerTableR1A@@QEAAIN@Z 00000001800bab70 f   TxPowerTable.obj
 0001:000b9be0       ?GuessBaseOP@TxPowerTableR1A@@SAXAEAH00@Z 00000001800babe0 f   TxPowerTable.obj
 0001:000b9c20       ?GuessBaseIO@TxPowerTableR1A@@SAXAEAH00@Z 00000001800bac20 f   TxPowerTable.obj
 0001:000b9c60       ?Split@TxPowerTableR1A@@SAXNPEAN0@Z 00000001800bac60 f   TxPowerTable.obj
 0001:000b9de0       ?Split@TxPowerTableR1A@@SAXHAEAH00@Z 00000001800bade0 f   TxPowerTable.obj
 0001:000b9f00       ?GetOP@TxPowerTableR1A@@QEAAX_KNAEANAEAH222@Z 00000001800baf00 f   TxPowerTable.obj
 0001:000ba960       ?GetIO@TxPowerTableR1A@@QEAAX_KNAEANAEAH222@Z 00000001800bb960 f   TxPowerTable.obj
 0001:000bb3d0       ?SaveAs@TxPowerTableR1A@@QEAAXPEAD@Z 00000001800bc3d0 f   TxPowerTable.obj
 0001:000bb700       ?Add@TxPowerOPTableR1C@@UEAAXPEAUDataF@1@@Z 00000001800bc700 f   TxPowerTable.obj
 0001:000bb780       ??0DataF@TxPowerOPTableR1C@@QEAA@XZ 00000001800bc780 f   TxPowerTable.obj
 0001:000bb8a0       ?Map2Mem@TxPowerOPTableR1C@@QEAAXXZ 00000001800bc8a0 f   TxPowerTable.obj
 0001:000bbb40       ?GetConfigTable@TxPowerOPTableR1C@@SAXHUDataM@1@PEAU21@@Z 00000001800bcb40 f   TxPowerTable.obj
 0001:000bc240       ?GuessBase@TxPowerOPTableR1C@@SAXAEAN0000@Z 00000001800bd240 f   TxPowerTable.obj
 0001:000bc2b0       ?GetBase@TxPowerOPTableR1C@@QEAAX_KPEAUDataM@1@@Z 00000001800bd2b0 f   TxPowerTable.obj
 0001:000bc610       ?GetBase@TxPowerOPTableR1C@@QEAAX_KPEAUDataF@1@@Z 00000001800bd610 f   TxPowerTable.obj
 0001:000bc830       ?Get@TxPowerOPTableR1C@@QEAAX_KNPEAUDataM@1@@Z 00000001800bd830 f   TxPowerTable.obj
 0001:000bc940       ?Get@TxPowerOPTableR1C@@QEAAX_KNPEAUDataF@1@@Z 00000001800bd940 f   TxPowerTable.obj
 0001:000bca50       ?SaveAs@TxPowerOPTableR1C@@QEAAXPEAD@Z 00000001800bda50 f   TxPowerTable.obj
 0001:000bcc90       ?Add@TxPowerIOTableR1C@@UEAAXPEAUDataF@1@@Z 00000001800bdc90 f   TxPowerTable.obj
 0001:000bcd10       ??0DataF@TxPowerIOTableR1C@@QEAA@XZ 00000001800bdd10 f   TxPowerTable.obj
 0001:000bce30       ?Map2Mem@TxPowerIOTableR1C@@QEAAXXZ 00000001800bde30 f   TxPowerTable.obj
 0001:000bd0d0       ?GetConfigTable@TxPowerIOTableR1C@@SAXHUDataM@1@PEAU21@@Z 00000001800be0d0 f   TxPowerTable.obj
 0001:000bd880       ?GuessBase@TxPowerIOTableR1C@@SAXAEAN0000@Z 00000001800be880 f   TxPowerTable.obj
 0001:000bd8f0       ?GetBase@TxPowerIOTableR1C@@QEAAX_KPEAUDataM@1@@Z 00000001800be8f0 f   TxPowerTable.obj
 0001:000bdc50       ?GetBase@TxPowerIOTableR1C@@QEAAX_KPEAUDataF@1@@Z 00000001800bec50 f   TxPowerTable.obj
 0001:000bde70       ?Get@TxPowerIOTableR1C@@QEAAX_KNPEAUDataM@1@@Z 00000001800bee70 f   TxPowerTable.obj
 0001:000bdf80       ?Get@TxPowerIOTableR1C@@QEAAX_KNPEAUDataF@1@@Z 00000001800bef80 f   TxPowerTable.obj
 0001:000be090       ?SaveAs@TxPowerIOTableR1C@@QEAAXPEAD@Z 00000001800bf090 f   TxPowerTable.obj
 0001:000bf560       ?Add@TxSidebandTableR1A@@UEAAXPEAUDataF@1@@Z 00000001800c0560 f   TxSidebandTable.obj
 0001:000bf5d0       ??0DataF@TxSidebandTableR1A@@QEAA@XZ 00000001800c05d0 f   TxSidebandTable.obj
 0001:000bf620       ?Map2Mem@TxSidebandTableR1A@@QEAAXXZ 00000001800c0620 f   TxSidebandTable.obj
 0001:000bf780       ?Get@TxSidebandTableR1A@@QEAAX_KAEANAEAG2@Z 00000001800c0780 f   TxSidebandTable.obj
 0001:000bf910       ?SaveAs@TxSidebandTableR1A@@QEAAXPEAD@Z 00000001800c0910 f   TxSidebandTable.obj
 0001:000bfa00       ??0TxSidebandTableR1C@@QEAA@XZ 00000001800c0a00 f   TxSidebandTable.obj
 0001:000bfa50       ??1TxSidebandTableR1C@@UEAA@XZ 00000001800c0a50 f   TxSidebandTable.obj
 0001:000bfab0       ??0DataF@TxSidebandTableR1C@@QEAA@XZ 00000001800c0ab0 f   TxSidebandTable.obj
 0001:000bfbc0       ?Add@TxSidebandTableR1C@@UEAAXPEAUDataF@1@@Z 00000001800c0bc0 f   TxSidebandTable.obj
 0001:000bfc10       ?Map2Mem@TxSidebandTableR1C@@QEAAXXZ 00000001800c0c10 f   TxSidebandTable.obj
 0001:000bfce0       ?Get@TxSidebandTableR1C@@QEAAX_KAEANAEAG2AEAM@Z 00000001800c0ce0 f   TxSidebandTable.obj
 0001:000bfd70       ?Get@TxSidebandTableR1C@@QEAAX_KPEAUDataM@1@@Z 00000001800c0d70 f   TxSidebandTable.obj
 0001:000bfe20       ?Get@TxSidebandTableR1C@@QEAAX_KPEAUDataF@1@@Z 00000001800c0e20 f   TxSidebandTable.obj
 0001:000bfe80       ?SaveAs@TxSidebandTableR1C@@QEAAXPEAD@Z 00000001800c0e80 f   TxSidebandTable.obj
 0001:000c02c0       ??_ETxSidebandTableR1C@@UEAAPEAXI@Z 00000001800c12c0 f i TxSidebandTable.obj
 0001:000c02c0       ??_GTxSidebandTableR1C@@UEAAPEAXI@Z 00000001800c12c0 f i TxSidebandTable.obj
 0001:000c0310       ??$linear@_KG@@YAX_KG0G0AEAG@Z 00000001800c1310 f i TxSidebandTable.obj
 0001:000c03d0       ?SetLastError@CLog@@QEAAXPEBDZZ 00000001800c13d0 f   libLog:libLog.dll
 0001:000c03d6       ?Instance@CLog@@SAAEAV1@XZ 00000001800c13d6 f   libLog:libLog.dll
 0001:000c03dc       ?GetLastError@CLog@@QEAAPEADXZ 00000001800c13dc f   libLog:libLog.dll
 0001:000c03e2       ?SetLastError@CLog@@QEAAXHPEBDZZ 00000001800c13e2 f   libLog:libLog.dll
 0001:000c03e8       ??0viMemIO@@QEAA@XZ        00000001800c13e8 f   libBusDriver:libBusDriver.dll
 0001:000c03ee       ?Release@viMemIO@@QEAAHXZ  00000001800c13ee f   libBusDriver:libBusDriver.dll
 0001:000c03f4       ?Alloc@viMemIO@@QEAAHI@Z   00000001800c13f4 f   libBusDriver:libBusDriver.dll
 0001:000c03fa       ?round@@YANNH@Z            00000001800c13fa f   libBusDriver:libBusDriver.dll
 0001:000c0400       ?dBc2ad@@YA_J_JN@Z         00000001800c1400 f   libBusDriver:libBusDriver.dll
 0001:000c0406       ?ad2dBc@@YANNN@Z           00000001800c1406 f   libBusDriver:libBusDriver.dll
 0001:000c040c       ?adf5355para2reg2@@YAIII@Z 00000001800c140c f   libBusDriver:libBusDriver.dll
 0001:000c0412       ?adf5355para2reg1@@YAII@Z  00000001800c1412 f   libBusDriver:libBusDriver.dll
 0001:000c0418       ?adf5355para2reg0@@YAIIII@Z 00000001800c1418 f   libBusDriver:libBusDriver.dll
 0001:000c041e       ?adf5355_freq_formula@@YAH_KI_N1IIAEAI2222@Z 00000001800c141e f   libBusDriver:libBusDriver.dll
 0001:000c0424       ?tc1407vol2temp@@YANN@Z    00000001800c1424 f   libBusDriver:libBusDriver.dll
 0001:000c042a       ?mcp3208ad2vol@@YANI@Z     00000001800c142a f   libBusDriver:libBusDriver.dll
 0001:000c0430       ??1_Lockit@std@@QEAA@XZ    00000001800c1430 f   msvcprtd:MSVCP90D.dll
 0001:000c0436       ??0_Lockit@std@@QEAA@H@Z   00000001800c1436 f   msvcprtd:MSVCP90D.dll
 0001:000c043c       ?_Debug_message@std@@YAXPEB_W0I@Z 00000001800c143c f   msvcprtd:MSVCP90D.dll
 0001:000c0442       ??1_Container_base_secure@std@@QEAA@XZ 00000001800c1442 f   msvcprtd:MSVCP90D.dll
 0001:000c0448       ??1?$basic_string@DU?$char_traits@D@std@@V?$allocator@D@2@@std@@QEAA@XZ 00000001800c1448 f   msvcprtd:MSVCP90D.dll
 0001:000c044e       ??0?$basic_string@DU?$char_traits@D@std@@V?$allocator@D@2@@std@@QEAA@PEBD@Z 00000001800c144e f   msvcprtd:MSVCP90D.dll
 0001:000c0454       ??0?$basic_string@DU?$char_traits@D@std@@V?$allocator@D@2@@std@@QEAA@AEBV01@@Z 00000001800c1454 f   msvcprtd:MSVCP90D.dll
 0001:000c045a       ?c_str@?$basic_string@DU?$char_traits@D@std@@V?$allocator@D@2@@std@@QEBAPEBDXZ 00000001800c145a f   msvcprtd:MSVCP90D.dll
 0001:000c0460       ?_Orphan_all@_Container_base_secure@std@@QEBAXXZ 00000001800c1460 f   msvcprtd:MSVCP90D.dll
 0001:000c0466       ??0_Container_base_secure@std@@QEAA@XZ 00000001800c1466 f   msvcprtd:MSVCP90D.dll
 0001:000c0470       ??_U@YAPEAX_K@Z            00000001800c1470 f   msvcprtd:newaop_s.obj
 0001:000c0488       ?_Swap_aux@_Container_base_secure@std@@QEAAXAEAV12@@Z 00000001800c1488 f   msvcprtd:MSVCP90D.dll
 0001:000c048e       ?_Swap_all@_Container_base_secure@std@@QEBAXAEAV12@@Z 00000001800c148e f   msvcprtd:MSVCP90D.dll
 0001:000c0494       fclose                     00000001800c1494 f   MSVCRTD:MSVCR90D.dll
 0001:000c049a       fopen                      00000001800c149a f   MSVCRTD:MSVCR90D.dll
 0001:000c04a0       __GSHandlerCheck_EH        00000001800c14a0 f   MSVCRTD:gshandlereh.obj
 0001:000c0548       fread                      00000001800c1548 f   MSVCRTD:MSVCR90D.dll
 0001:000c054e       ftell                      00000001800c154e f   MSVCRTD:MSVCR90D.dll
 0001:000c0554       fseek                      00000001800c1554 f   MSVCRTD:MSVCR90D.dll
 0001:000c0570       __security_check_cookie    00000001800c1570 f   MSVCRTD:amdsecgs.obj
 0001:000c0590       __CxxFrameHandler3         00000001800c1590 f   MSVCRTD:MSVCR90D.dll
 0001:000c0596       strcat                     00000001800c1596 f   MSVCRTD:MSVCR90D.dll
 0001:000c059c       sprintf                    00000001800c159c f   MSVCRTD:MSVCR90D.dll
 0001:000c05a2       _CxxThrowException         00000001800c15a2 f   MSVCRTD:MSVCR90D.dll
 0001:000c05a8       ??3@YAXPEAX@Z              00000001800c15a8 f   MSVCRTD:MSVCR90D.dll
 0001:000c05b0       ??0type_info@@AEAA@AEBV0@@Z 00000001800c15b0 f   MSVCRTD:ti_inst.obj
 0001:000c05d0       ??_Etype_info@@UEAAPEAXI@Z 00000001800c15d0 f i MSVCRTD:ti_inst.obj
 0001:000c0660       ??4type_info@@AEAAAEAV0@AEBV0@@Z 00000001800c1660 f   MSVCRTD:ti_inst.obj
 0001:000c0670       ??0exception@std@@QEAA@AEBV01@@Z 00000001800c1670 f   MSVCRTD:MSVCR90D.dll
 0001:000c0676       ??1exception@std@@UEAA@XZ  00000001800c1676 f   MSVCRTD:MSVCR90D.dll
 0001:000c067c       ??0exception@std@@QEAA@XZ  00000001800c167c f   MSVCRTD:MSVCR90D.dll
 0001:000c0682       _invalid_parameter         00000001800c1682 f   MSVCRTD:MSVCR90D.dll
 0001:000c0688       _CrtDbgReportW             00000001800c1688 f   MSVCRTD:MSVCR90D.dll
 0001:000c068e       ??2@YAPEAX_K@Z             00000001800c168e f   MSVCRTD:MSVCR90D.dll
 0001:000c0694       ??0exception@std@@QEAA@AEBQEBD@Z 00000001800c1694 f   MSVCRTD:MSVCR90D.dll
 0001:000c069a       ?what@exception@std@@UEBAPEBDXZ 00000001800c169a f   MSVCRTD:MSVCR90D.dll
 0001:000c06a0       ??_V@YAXPEAX@Z             00000001800c16a0 f   MSVCRTD:MSVCR90D.dll
 0001:000c06a6       memset                     00000001800c16a6 f   MSVCRTD:MSVCR90D.dll
 0001:000c06ac       fwrite                     00000001800c16ac f   MSVCRTD:MSVCR90D.dll
 0001:000c06b2       strerror                   00000001800c16b2 f   MSVCRTD:MSVCR90D.dll
 0001:000c06b8       _errno                     00000001800c16b8 f   MSVCRTD:MSVCR90D.dll
 0001:000c06be       _mkdir                     00000001800c16be f   MSVCRTD:MSVCR90D.dll
 0001:000c06c4       _access                    00000001800c16c4 f   MSVCRTD:MSVCR90D.dll
 0001:000c06d0       __GSHandlerCheck           00000001800c16d0 f   MSVCRTD:gshandler.obj
 0001:000c0710       __GSHandlerCheckCommon     00000001800c1710 f   MSVCRTD:gshandler.obj
 0001:000c0804       rename                     00000001800c1804 f   MSVCRTD:MSVCR90D.dll
 0001:000c080a       remove                     00000001800c180a f   MSVCRTD:MSVCR90D.dll
 0001:000c0810       strcpy                     00000001800c1810 f   MSVCRTD:MSVCR90D.dll
 0001:000c0816       strrchr                    00000001800c1816 f   MSVCRTD:MSVCR90D.dll
 0001:000c0820       _onexit                    00000001800c1820 f   MSVCRTD:atonexit.obj
 0001:000c08e0       atexit                     00000001800c18e0 f   MSVCRTD:atonexit.obj
 0001:000c0914       fprintf                    00000001800c1914 f   MSVCRTD:MSVCR90D.dll
 0001:000c091a       _set_fmode                 00000001800c191a f   MSVCRTD:MSVCR90D.dll
 0001:000c0920       _purecall                  00000001800c1920 f   MSVCRTD:MSVCR90D.dll
 0001:000c0926       log10                      00000001800c1926 f   MSVCRTD:MSVCR90D.dll
 0001:000c092c       strcmp                     00000001800c192c f   MSVCRTD:MSVCR90D.dll
 0001:000c0932       strstr                     00000001800c1932 f   MSVCRTD:MSVCR90D.dll
 0001:000c0938       _write                     00000001800c1938 f   MSVCRTD:MSVCR90D.dll
 0001:000c093e       _close                     00000001800c193e f   MSVCRTD:MSVCR90D.dll
 0001:000c0944       _sopen_s                   00000001800c1944 f   MSVCRTD:MSVCR90D.dll
 0001:000c094a       _commit                    00000001800c194a f   MSVCRTD:MSVCR90D.dll
 0001:000c0950       _read                      00000001800c1950 f   MSVCRTD:MSVCR90D.dll
 0001:000c0956       _locking                   00000001800c1956 f   MSVCRTD:MSVCR90D.dll
 0001:000c095c       _tell                      00000001800c195c f   MSVCRTD:MSVCR90D.dll
 0001:000c0962       _lseek                     00000001800c1962 f   MSVCRTD:MSVCR90D.dll
 0001:000c0968       memmove_s                  00000001800c1968 f   MSVCRTD:MSVCR90D.dll
 0001:000c096e       abs                        00000001800c196e f   MSVCRTD:MSVCR90D.dll
 0001:000c0974       fabs                       00000001800c1974 f   MSVCRTD:MSVCR90D.dll
 0001:000c0a10       _CRT_INIT                  00000001800c1a10 f   MSVCRTD:crtdll.obj
 0001:000c0dc0       NtCurrentTeb               00000001800c1dc0 f i MSVCRTD:crtdll.obj
 0001:000c0dd0       _DllMainCRTStartup         00000001800c1dd0 f   MSVCRTD:crtdll.obj
 0001:000c0f90       __report_gsfailure         00000001800c1f90 f   MSVCRTD:gs_report.obj
 0001:000c10e0       ??_M@YAXPEAX_KHP6AX0@Z@Z   00000001800c20e0 f   MSVCRTD:ehvecdtr.obj
 0001:000c1180       ?__ArrayUnwind@@YAXPEAX_KHP6AX0@Z@Z 00000001800c2180 f   MSVCRTD:ehvecdtr.obj
 0001:000c120a       __C_specific_handler       00000001800c220a f   MSVCRTD:MSVCR90D.dll
 0001:000c1210       _unlock                    00000001800c2210 f   MSVCRTD:MSVCR90D.dll
 0001:000c1216       __dllonexit                00000001800c2216 f   MSVCRTD:MSVCR90D.dll
 0001:000c121c       _encode_pointer            00000001800c221c f   MSVCRTD:MSVCR90D.dll
 0001:000c1222       _lock                      00000001800c2222 f   MSVCRTD:MSVCR90D.dll
 0001:000c1228       _decode_pointer            00000001800c2228 f   MSVCRTD:MSVCR90D.dll
 0001:000c1230       __clean_type_info_names    00000001800c2230 f   MSVCRTD:tncleanup.obj
 0001:000c1250       _RTC_Initialize            00000001800c2250 f   MSVCRTD:_initsect_.obj
 0001:000c1290       _RTC_Terminate             00000001800c2290 f   MSVCRTD:_initsect_.obj
 0001:000c12ce       _malloc_dbg                00000001800c22ce f   MSVCRTD:MSVCR90D.dll
 0001:000c12d4       _free_dbg                  00000001800c22d4 f   MSVCRTD:MSVCR90D.dll
 0001:000c12da       _encoded_null              00000001800c22da f   MSVCRTD:MSVCR90D.dll
 0001:000c12e0       _CrtSetCheckCount          00000001800c22e0 f   MSVCRTD:MSVCR90D.dll
 0001:000c12f0       _ValidateImageBase         00000001800c22f0 f   MSVCRTD:pesect.obj
 0001:000c1370       _FindPESection             00000001800c2370 f   MSVCRTD:pesect.obj
 0001:000c1420       _IsNonwritableInCurrentImage 00000001800c2420 f   MSVCRTD:pesect.obj
 0001:000c14ac       _initterm                  00000001800c24ac f   MSVCRTD:MSVCR90D.dll
 0001:000c14b2       _initterm_e                00000001800c24b2 f   MSVCRTD:MSVCR90D.dll
 0001:000c14b8       _amsg_exit                 00000001800c24b8 f   MSVCRTD:MSVCR90D.dll
 0001:000c14c0       __security_init_cookie     00000001800c24c0 f   MSVCRTD:gs_support.obj
 0001:000c15be       __CppXcptFilter            00000001800c25be f   MSVCRTD:MSVCR90D.dll
 0001:000c15d0       DllMain                    00000001800c25d0 f   MSVCRTD:dllmain.obj
 0001:000c1608       __crt_debugger_hook        00000001800c2608 f   MSVCRTD:MSVCR90D.dll
 0001:000c160e       ?terminate@@YAXXZ          00000001800c260e f   MSVCRTD:MSVCR90D.dll
 0001:000c1614       ?_type_info_dtor_internal_method@type_info@@QEAAXXZ 00000001800c2614 f   MSVCRTD:MSVCR90D.dll
 0001:000c1614       ??1type_info@@UEAA@XZ      00000001800c2614 f   MSVCRTD:MSVCR90D.dll
 0001:000c161a       __clean_type_info_names_internal 00000001800c261a f   MSVCRTD:MSVCR90D.dll
 0001:000c1620       pthread_mutex_unlock       00000001800c2620 f   pthreadVC2:pthreadVC2.dll
 0001:000c1626       pthread_mutex_lock         00000001800c2626 f   pthreadVC2:pthreadVC2.dll
 0001:000c162c       fftw_free                  00000001800c262c f   libfftw3-3:libfftw3-3.dll
 0001:000c1632       fftw_destroy_plan          00000001800c2632 f   libfftw3-3:libfftw3-3.dll
 0001:000c1638       fftw_execute               00000001800c2638 f   libfftw3-3:libfftw3-3.dll
 0001:000c163e       fftw_plan_dft_1d           00000001800c263e f   libfftw3-3:libfftw3-3.dll
 0001:000c1644       fftw_malloc                00000001800c2644 f   libfftw3-3:libfftw3-3.dll
 0001:000c164a       Sleep                      00000001800c264a f   kernel32:KERNEL32.dll
 0001:000c1650       TerminateProcess           00000001800c2650 f   kernel32:KERNEL32.dll
 0001:000c1656       GetCurrentProcess          00000001800c2656 f   kernel32:KERNEL32.dll
 0001:000c165c       UnhandledExceptionFilter   00000001800c265c f   kernel32:KERNEL32.dll
 0001:000c1662       SetUnhandledExceptionFilter 00000001800c2662 f   kernel32:KERNEL32.dll
 0001:000c1668       IsDebuggerPresent          00000001800c2668 f   kernel32:KERNEL32.dll
 0001:000c166e       RtlVirtualUnwind           00000001800c266e f   kernel32:KERNEL32.dll
 0001:000c1674       RtlLookupFunctionEntry     00000001800c2674 f   kernel32:KERNEL32.dll
 0001:000c167a       RtlCaptureContext          00000001800c267a f   kernel32:KERNEL32.dll
 0001:000c1680       QueryPerformanceCounter    00000001800c2680 f   kernel32:KERNEL32.dll
 0001:000c1686       GetTickCount               00000001800c2686 f   kernel32:KERNEL32.dll
 0001:000c168c       GetCurrentThreadId         00000001800c268c f   kernel32:KERNEL32.dll
 0001:000c1692       GetCurrentProcessId        00000001800c2692 f   kernel32:KERNEL32.dll
 0001:000c1698       GetSystemTimeAsFileTime    00000001800c2698 f   kernel32:KERNEL32.dll
 0001:000c169e       DisableThreadLibraryCalls  00000001800c269e f   kernel32:KERNEL32.dll
 0001:000c1dd0       _alloca_probe              00000001800c2dd0     MSVCRTD:chkstk.obj
 0001:000c1dd0       __chkstk                   00000001800c2dd0 f   MSVCRTD:chkstk.obj
 0002:00000000       __xc_a                     00000001800cd000     MSVCRTD:cinitexe.obj
 0002:00000220       __xc_z                     00000001800cd220     MSVCRTD:cinitexe.obj
 0002:00000330       __xi_a                     00000001800cd330     MSVCRTD:cinitexe.obj
 0002:00000550       __xi_z                     00000001800cd550     MSVCRTD:cinitexe.obj
 0002:00000a49       ?_Value@?$_Is_swap_move@U_Swap_move_tag@std@@@std@@2_NB 00000001800cda49     ArbReader.obj
 0002:00000a4a       ?value@?$integral_constant@_N$0A@@tr1@std@@2_NB 00000001800cda4a     ArbReader.obj
 0002:00000a4b       ?value@?$integral_constant@_N$00@tr1@std@@2_NB 00000001800cda4b     ArbReader.obj
 0002:00000a50       __real@41ad4c0000000000    00000001800cda50     ArbReader.obj
 0002:00000a90       ??_C@_1DC@POOIKBAO@?$AAI?$AAT?$AAE?$AAR?$AAA?$AAT?$AAO?$AAR?$AA?5?$AAL?$AAI?$AAS?$AAT?$AA?5?$AAC?$AAO?$AAR?$AAR?$AAU?$AAP?$AAT?$AAE?$AAD?$AA?$CB?$AA?$AA@ 00000001800cda90     ArbReader.obj
 0002:00000ad0       ??_C@_1IO@BBMNBHMA@?$AAC?$AA?3?$AA?2?$AAP?$AAr?$AAo?$AAg?$AAr?$AAa?$AAm?$AA?5?$AAF?$AAi?$AAl?$AAe?$AAs?$AA?5?$AA?$CI?$AAx?$AA8?$AA6?$AA?$CJ?$AA?2?$AAM?$AAi?$AAc?$AAr?$AAo?$AAs?$AAo?$AAf?$AAt@ 00000001800cdad0     ArbReader.obj
 0002:00001030       ??_C@_1EG@BPNHNPIG@?$AAl?$AAi?$AAs?$AAt?$AA?5?$AAi?$AAn?$AAs?$AAe?$AAr?$AAt?$AA?5?$AAi?$AAt?$AAe?$AAr?$AAa?$AAt?$AAo?$AAr?$AA?5?$AAo?$AAu?$AAt?$AAs?$AAi?$AAd?$AAe?$AA?5?$AAr?$AAa?$AAn@ 00000001800ce030     ArbReader.obj
 0002:00001090       ??_C@_1IG@CFKLBDPI@?$AAC?$AA?3?$AA?2?$AAP?$AAr?$AAo?$AAg?$AAr?$AAa?$AAm?$AA?5?$AAF?$AAi?$AAl?$AAe?$AAs?$AA?5?$AA?$CI?$AAx?$AA8?$AA6?$AA?$CJ?$AA?2?$AAM?$AAi?$AAc?$AAr?$AAo?$AAs?$AAo?$AAf?$AAt@ 00000001800ce090     ArbReader.obj
 0002:000012b0       ??_C@_0BM@NMJKDPPO@invalid?5vector?$DMT?$DO?5subscript?$AA@ 00000001800ce2b0     ArbReader.obj
 0002:000012e0       ??_7out_of_range@std@@6B@  00000001800ce2e0     ArbReader.obj
 0002:00001330       ??_7logic_error@std@@6B@   00000001800ce330     ArbReader.obj
 0002:00001378       ??_C@_1BO@MEPPHOO@?$AA?$CC?$AAo?$AAu?$AAt?$AA?5?$AAo?$AAf?$AA?5?$AAr?$AAa?$AAn?$AAg?$AAe?$AA?$CC?$AA?$AA@ 00000001800ce378     ArbReader.obj
 0002:000013a0       ??_C@_1PA@LLCGNPLL@?$AAs?$AAt?$AAd?$AA?3?$AA?3?$AAl?$AAi?$AAs?$AAt?$AA?$DM?$AAs?$AAt?$AAr?$AAu?$AAc?$AAt?$AA?5?$AAA?$AAr?$AAb?$AAR?$AAe?$AAa?$AAd?$AAe?$AAr?$AA?3?$AA?3?$AAM?$AAa?$AAr?$AAk@ 00000001800ce3a0     ArbReader.obj
 0002:000014c0       ??_C@_1FG@CMLDHNON@?$AA?$CI?$AA?$CC?$AAS?$AAt?$AAa?$AAn?$AAd?$AAa?$AAr?$AAd?$AA?5?$AAC?$AA?$CL?$AA?$CL?$AA?5?$AAL?$AAi?$AAb?$AAr?$AAa?$AAr?$AAi?$AAe?$AAs?$AA?5?$AAO?$AAu?$AAt?$AA?5?$AAo?$AAf?$AA?5@ 00000001800ce4c0     ArbReader.obj
 0002:00001530       ??_C@_1EC@HILJLMMC@?$AAl?$AAi?$AAs?$AAt?$AA?5?$AAi?$AAt?$AAe?$AAr?$AAa?$AAt?$AAo?$AAr?$AA?5?$AAn?$AAo?$AAt?$AA?5?$AAd?$AAe?$AAr?$AAe?$AAf?$AAe?$AAr?$AAe?$AAn?$AAc?$AAa?$AAb?$AAl?$AAe@ 00000001800ce530     ArbReader.obj
 0002:00001580       ??_C@_1PC@KNDCPIIK@?$AAs?$AAt?$AAd?$AA?3?$AA?3?$AAl?$AAi?$AAs?$AAt?$AA?$DM?$AAs?$AAt?$AAr?$AAu?$AAc?$AAt?$AA?5?$AAA?$AAr?$AAb?$AAR?$AAe?$AAa?$AAd?$AAe?$AAr?$AA?3?$AA?3?$AAM?$AAa?$AAr?$AAk@ 00000001800ce580     ArbReader.obj
 0002:000016b0       ??_C@_1EA@DOGAGKDH@?$AAl?$AAi?$AAs?$AAt?$AA?5?$AAi?$AAt?$AAe?$AAr?$AAa?$AAt?$AAo?$AAr?$AA?5?$AAn?$AAo?$AAt?$AA?5?$AAi?$AAn?$AAc?$AAr?$AAe?$AAm?$AAe?$AAn?$AAt?$AAa?$AAb?$AAl?$AAe?$AA?$AA@ 00000001800ce6b0     ArbReader.obj
 0002:000017c0       ??_C@_0BB@MOGOBHAF@list?$DMT?$DO?5too?5long?$AA@ 00000001800ce7c0     ArbReader.obj
 0002:000017e0       ??_7length_error@std@@6B@  00000001800ce7e0     ArbReader.obj
 0002:000018f0       ??_C@_1PM@BPFDAJA@?$AAs?$AAt?$AAd?$AA?3?$AA?3?$AAl?$AAi?$AAs?$AAt?$AA?$DM?$AAs?$AAt?$AAr?$AAu?$AAc?$AAt?$AA?5?$AAA?$AAr?$AAb?$AAR?$AAe?$AAa?$AAd?$AAe?$AAr?$AA?3?$AA?3?$AAS?$AAe?$AAg?$AAH@ 00000001800ce8f0     ArbReader.obj
 0002:00001a20       ??_C@_1PO@OLPHEANJ@?$AAs?$AAt?$AAd?$AA?3?$AA?3?$AAl?$AAi?$AAs?$AAt?$AA?$DM?$AAs?$AAt?$AAr?$AAu?$AAc?$AAt?$AA?5?$AAA?$AAr?$AAb?$AAR?$AAe?$AAa?$AAd?$AAe?$AAr?$AA?3?$AA?3?$AAS?$AAe?$AAg?$AAH@ 00000001800cea20     ArbReader.obj
 0002:00001b50       ??_C@_1CG@JNLFBNGN@?$AA?$CC?$AAi?$AAn?$AAv?$AAa?$AAl?$AAi?$AAd?$AA?5?$AAa?$AAr?$AAg?$AAu?$AAm?$AAe?$AAn?$AAt?$AA?$CC?$AA?$AA@ 00000001800ceb50     ArbReader.obj
 0002:00001b80       ??_C@_1PG@OPMDJOHO@?$AAs?$AAt?$AAd?$AA?3?$AA?3?$AAl?$AAi?$AAs?$AAt?$AA?$DM?$AAs?$AAt?$AAr?$AAu?$AAc?$AAt?$AA?5?$AAA?$AAr?$AAb?$AAR?$AAe?$AAa?$AAd?$AAe?$AAr?$AA?3?$AA?3?$AAS?$AAe?$AAg?$AAH@ 00000001800ceb80     ArbReader.obj
 0002:00001cb0       ??_C@_1FO@OCPOOAIA@?$AA?$CI?$AA?$CC?$AAS?$AAt?$AAa?$AAn?$AAd?$AAa?$AAr?$AAd?$AA?5?$AAC?$AA?$CL?$AA?$CL?$AA?5?$AAL?$AAi?$AAb?$AAr?$AAa?$AAr?$AAi?$AAe?$AAs?$AA?5?$AAI?$AAn?$AAv?$AAa?$AAl?$AAi?$AAd@ 00000001800cecb0     ArbReader.obj
 0002:00001d20       ??_C@_1DI@MDELDGPI@?$AAl?$AAi?$AAs?$AAt?$AA?5?$AAi?$AAt?$AAe?$AAr?$AAa?$AAt?$AAo?$AAr?$AAs?$AA?5?$AAi?$AAn?$AAc?$AAo?$AAm?$AAp?$AAa?$AAt?$AAi?$AAb?$AAl?$AAe?$AA?$AA@ 00000001800ced20     ArbReader.obj
 0002:00001e00       ??_C@_1EK@EEHFMKDC@?$AAv?$AAe?$AAc?$AAt?$AAo?$AAr?$AA?5?$AAi?$AAn?$AAs?$AAe?$AAr?$AAt?$AA?5?$AAi?$AAt?$AAe?$AAr?$AAa?$AAt?$AAo?$AAr?$AA?5?$AAo?$AAu?$AAt?$AAs?$AAi?$AAd?$AAe?$AA?5?$AAr@ 00000001800cee00     ArbReader.obj
 0002:00001e60       ??_C@_1IK@PFPAGNAC@?$AAC?$AA?3?$AA?2?$AAP?$AAr?$AAo?$AAg?$AAr?$AAa?$AAm?$AA?5?$AAF?$AAi?$AAl?$AAe?$AAs?$AA?5?$AA?$CI?$AAx?$AA8?$AA6?$AA?$CJ?$AA?2?$AAM?$AAi?$AAc?$AAr?$AAo?$AAs?$AAo?$AAf?$AAt@ 00000001800cee60     ArbReader.obj
 0002:00001f40       ??_C@_1BPO@MDCJKCEM@?$AAs?$AAt?$AAd?$AA?3?$AA?3?$AAl?$AAi?$AAs?$AAt?$AA?$DM?$AAc?$AAl?$AAa?$AAs?$AAs?$AA?5?$AAs?$AAt?$AAd?$AA?3?$AA?3?$AAl?$AAi?$AAs?$AAt?$AA?$DM?$AAs?$AAt?$AAr?$AAu?$AAc?$AAt@ 00000001800cef40     ArbReader.obj
 0002:000021b0       ??_C@_1CAA@NIHLPKHO@?$AAs?$AAt?$AAd?$AA?3?$AA?3?$AAl?$AAi?$AAs?$AAt?$AA?$DM?$AAc?$AAl?$AAa?$AAs?$AAs?$AA?5?$AAs?$AAt?$AAd?$AA?3?$AA?3?$AAl?$AAi?$AAs?$AAt?$AA?$DM?$AAs?$AAt?$AAr?$AAu?$AAc?$AAt@ 00000001800cf1b0     ArbReader.obj
 0002:00002450       ??_C@_1OK@KIDLLBNI@?$AAs?$AAt?$AAd?$AA?3?$AA?3?$AAl?$AAi?$AAs?$AAt?$AA?$DM?$AAs?$AAt?$AAr?$AAu?$AAc?$AAt?$AA?5?$AAA?$AAr?$AAb?$AAR?$AAe?$AAa?$AAd?$AAe?$AAr?$AA?3?$AA?3?$AAM?$AAa?$AAr?$AAk@ 00000001800cf450     ArbReader.obj
 0002:000025a0       ??_C@_1BPC@CEHLDDME@?$AAs?$AAt?$AAd?$AA?3?$AA?3?$AA_?$AAV?$AAe?$AAc?$AAt?$AAo?$AAr?$AA_?$AAc?$AAo?$AAn?$AAs?$AAt?$AA_?$AAi?$AAt?$AAe?$AAr?$AAa?$AAt?$AAo?$AAr?$AA?$DM?$AAc?$AAl?$AAa?$AAs@ 00000001800cf5a0     ArbReader.obj
 0002:00002800       ??_C@_1EG@FOHJJHAC@?$AAv?$AAe?$AAc?$AAt?$AAo?$AAr?$AA?5?$AAi?$AAt?$AAe?$AAr?$AAa?$AAt?$AAo?$AAr?$AA?5?$AAn?$AAo?$AAt?$AA?5?$AAd?$AAe?$AAr?$AAe?$AAf?$AAe?$AAr?$AAe?$AAn?$AAc?$AAa?$AAb@ 00000001800cf800     ArbReader.obj
 0002:000028b8       ??_C@_0BD@OLBABOEK@vector?$DMT?$DO?5too?5long?$AA@ 00000001800cf8b8     ArbReader.obj
 0002:00002900       ??_C@_1CAK@LMGNCLEI@?$AAs?$AAt?$AAd?$AA?3?$AA?3?$AA_?$AAV?$AAe?$AAc?$AAt?$AAo?$AAr?$AA_?$AAc?$AAo?$AAn?$AAs?$AAt?$AA_?$AAi?$AAt?$AAe?$AAr?$AAa?$AAt?$AAo?$AAr?$AA?$DM?$AAc?$AAl?$AAa?$AAs@ 00000001800cf900     ArbReader.obj
 0002:00002b80       ??_C@_1NK@JLHOCNGO@?$AA?$CI?$AA?$CC?$AA_?$AAP?$AAv?$AAe?$AAc?$AAt?$AAo?$AAr?$AA?5?$AA?$DN?$AA?$DN?$AA?5?$AAN?$AAU?$AAL?$AAL?$AA?5?$AA?$HM?$AA?$HM?$AA?5?$AA?$CI?$AA?$CI?$AA?$CI?$AA_?$AAM?$AAy?$AAv?$AAe?$AAc?$AA?5@ 00000001800cfb80     ArbReader.obj
 0002:00002c90       ??_C@_1BAC@KBDNDJPK@?$AA?$CI?$AA?$CC?$AA_?$AAM?$AAy?$AAp?$AAt?$AAr?$AA?5?$AA?$CL?$AA?5?$AA_?$AAO?$AAf?$AAf?$AA?5?$AA?$DM?$AA?$DN?$AA?5?$AA?$CI?$AA?$CI?$AA_?$AAM?$AAy?$AAv?$AAe?$AAc?$AA?5?$AA?$CK?$AA?$CJ?$AA?$CI?$AAt@ 00000001800cfc90     ArbReader.obj
 0002:00002dd0       ??_C@_1BPE@NJFLKEPO@?$AAs?$AAt?$AAd?$AA?3?$AA?3?$AA_?$AAV?$AAe?$AAc?$AAt?$AAo?$AAr?$AA_?$AAc?$AAo?$AAn?$AAs?$AAt?$AA_?$AAi?$AAt?$AAe?$AAr?$AAa?$AAt?$AAo?$AAr?$AA?$DM?$AAc?$AAl?$AAa?$AAs@ 00000001800cfdd0     ArbReader.obj
 0002:00003028       ??_C@_1DM@LBMEEJPP@?$AA?$CI?$AA?$CC?$AAt?$AAh?$AAi?$AAs?$AA?9?$AA?$DO?$AA_?$AAH?$AAa?$AAs?$AA_?$AAc?$AAo?$AAn?$AAt?$AAa?$AAi?$AAn?$AAe?$AAr?$AA?$CI?$AA?$CJ?$AA?$CC?$AA?0?$AA?5?$AA0?$AA?$CJ?$AA?$AA@ 00000001800d0028     ArbReader.obj
 0002:000030a0       ??_C@_1PM@DAFBIOEP@?$AAs?$AAt?$AAd?$AA?3?$AA?3?$AA_?$AAV?$AAe?$AAc?$AAt?$AAo?$AAr?$AA_?$AAc?$AAo?$AAn?$AAs?$AAt?$AA_?$AAi?$AAt?$AAe?$AAr?$AAa?$AAt?$AAo?$AAr?$AA?$DM?$AAs?$AAt?$AAr?$AAu@ 00000001800d00a0     ArbReader.obj
 0002:000031d0       ??_C@_1NO@OINIEPNP@?$AAs?$AAt?$AAd?$AA?3?$AA?3?$AA_?$AAV?$AAe?$AAc?$AAt?$AAo?$AAr?$AA_?$AAc?$AAo?$AAn?$AAs?$AAt?$AA_?$AAi?$AAt?$AAe?$AAr?$AAa?$AAt?$AAo?$AAr?$AA?$DM?$AAs?$AAt?$AAr?$AAu@ 00000001800d01d0     ArbReader.obj
 0002:000032e0       ??_C@_1DM@HINDPMBP@?$AAv?$AAe?$AAc?$AAt?$AAo?$AAr?$AA?5?$AAi?$AAt?$AAe?$AAr?$AAa?$AAt?$AAo?$AAr?$AAs?$AA?5?$AAi?$AAn?$AAc?$AAo?$AAm?$AAp?$AAa?$AAt?$AAi?$AAb?$AAl?$AAe?$AA?$AA@ 00000001800d02e0     ArbReader.obj
 0002:00003330       ??_C@_1OG@COOHIJDB@?$AAs?$AAt?$AAd?$AA?3?$AA?3?$AA_?$AAV?$AAe?$AAc?$AAt?$AAo?$AAr?$AA_?$AAc?$AAo?$AAn?$AAs?$AAt?$AA_?$AAi?$AAt?$AAe?$AAr?$AAa?$AAt?$AAo?$AAr?$AA?$DM?$AAs?$AAt?$AAr?$AAu@ 00000001800d0330     ArbReader.obj
 0002:000034e0       ??_7bad_alloc@std@@6B@     00000001800d04e0     ArbReader.obj
 0002:00003740       ??_C@_1EE@BBMFLDOC@?$AAl?$AAi?$AAs?$AAt?$AA?5?$AAe?$AAr?$AAa?$AAs?$AAe?$AA?5?$AAi?$AAt?$AAe?$AAr?$AAa?$AAt?$AAo?$AAr?$AA?5?$AAo?$AAu?$AAt?$AAs?$AAi?$AAd?$AAe?$AA?5?$AAr?$AAa?$AAn?$AAg@ 00000001800d0740     ArbReader.obj
 0002:000037a0       ??_C@_1PC@FOAAEEEL@?$AAs?$AAt?$AAd?$AA?3?$AA?3?$AAl?$AAi?$AAs?$AAt?$AA?$DM?$AAs?$AAt?$AAr?$AAu?$AAc?$AAt?$AA?5?$AAA?$AAr?$AAb?$AAR?$AAe?$AAa?$AAd?$AAe?$AAr?$AA?3?$AA?3?$AAM?$AAa?$AAr?$AAk@ 00000001800d07a0     ArbReader.obj
 0002:000038d0       ??_C@_1EA@JDNDELPC@?$AAl?$AAi?$AAs?$AAt?$AA?5?$AAi?$AAt?$AAe?$AAr?$AAa?$AAt?$AAo?$AAr?$AA?5?$AAn?$AAo?$AAt?$AA?5?$AAd?$AAe?$AAc?$AAr?$AAe?$AAm?$AAe?$AAn?$AAt?$AAa?$AAb?$AAl?$AAe?$AA?$AA@ 00000001800d08d0     ArbReader.obj
 0002:000039e0       ??_C@_1CO@DGLIKNHI@?$AAi?$AAn?$AAv?$AAa?$AAl?$AAi?$AAd?$AA?5?$AAi?$AAt?$AAe?$AAr?$AAa?$AAt?$AAo?$AAr?$AA?5?$AAr?$AAa?$AAn?$AAg?$AAe?$AA?$AA@ 00000001800d09e0     ArbReader.obj
 0002:00003ae0       ??_C@_1PO@BIMFPMBI@?$AAs?$AAt?$AAd?$AA?3?$AA?3?$AAl?$AAi?$AAs?$AAt?$AA?$DM?$AAs?$AAt?$AAr?$AAu?$AAc?$AAt?$AA?5?$AAA?$AAr?$AAb?$AAR?$AAe?$AAa?$AAd?$AAe?$AAr?$AA?3?$AA?3?$AAS?$AAe?$AAg?$AAH@ 00000001800d0ae0     ArbReader.obj
 0002:00003c10       ??_C@_1CAA@CLEJEGLP@?$AAs?$AAt?$AAd?$AA?3?$AA?3?$AAl?$AAi?$AAs?$AAt?$AA?$DM?$AAc?$AAl?$AAa?$AAs?$AAs?$AA?5?$AAs?$AAt?$AAd?$AA?3?$AA?3?$AAl?$AAi?$AAs?$AAt?$AA?$DM?$AAs?$AAt?$AAr?$AAu?$AAc?$AAt@ 00000001800d0c10     ArbReader.obj
 0002:00003e80       ??_C@_1ME@PHAODDKF@?$AAs?$AAt?$AAd?$AA?3?$AA?3?$AAl?$AAi?$AAs?$AAt?$AA?$DM?$AAs?$AAt?$AAr?$AAu?$AAc?$AAt?$AA?5?$AAA?$AAr?$AAb?$AAS?$AAe?$AAg?$AA_?$AAt?$AA?0?$AAc?$AAl?$AAa?$AAs?$AAs?$AA?5@ 00000001800d0e80     ArbReader.obj
 0002:00003f70       ??_C@_1MG@NAMPCFCO@?$AAs?$AAt?$AAd?$AA?3?$AA?3?$AAl?$AAi?$AAs?$AAt?$AA?$DM?$AAs?$AAt?$AAr?$AAu?$AAc?$AAt?$AA?5?$AAA?$AAr?$AAb?$AAS?$AAe?$AAg?$AA_?$AAt?$AA?0?$AAc?$AAl?$AAa?$AAs?$AAs?$AA?5@ 00000001800d0f70     ArbReader.obj
 0002:00004060       ??_C@_1MG@CDPNJJOP@?$AAs?$AAt?$AAd?$AA?3?$AA?3?$AAl?$AAi?$AAs?$AAt?$AA?$DM?$AAs?$AAt?$AAr?$AAu?$AAc?$AAt?$AA?5?$AAA?$AAr?$AAb?$AAS?$AAe?$AAg?$AA_?$AAt?$AA?0?$AAc?$AAl?$AAa?$AAs?$AAs?$AA?5@ 00000001800d1060     ArbReader.obj
 0002:00004270       ??_C@_1BPI@FNKFPCJL@?$AAs?$AAt?$AAd?$AA?3?$AA?3?$AAl?$AAi?$AAs?$AAt?$AA?$DM?$AAc?$AAl?$AAa?$AAs?$AAs?$AA?5?$AAs?$AAt?$AAd?$AA?3?$AA?3?$AAl?$AAi?$AAs?$AAt?$AA?$DM?$AAs?$AAt?$AAr?$AAu?$AAc?$AAt@ 00000001800d1270     ArbReader.obj
 0002:000044d0       ??_C@_1LO@BEAGPEAI@?$AAs?$AAt?$AAd?$AA?3?$AA?3?$AAl?$AAi?$AAs?$AAt?$AA?$DM?$AAs?$AAt?$AAr?$AAu?$AAc?$AAt?$AA?5?$AAA?$AAr?$AAb?$AAS?$AAe?$AAg?$AA_?$AAt?$AA?0?$AAc?$AAl?$AAa?$AAs?$AAs?$AA?5@ 00000001800d14d0     ArbReader.obj
 0002:00004680       ??_C@_1IK@ILCLOBAJ@?$AAC?$AA?3?$AA?2?$AAP?$AAr?$AAo?$AAg?$AAr?$AAa?$AAm?$AA?5?$AAF?$AAi?$AAl?$AAe?$AAs?$AA?5?$AA?$CI?$AAx?$AA8?$AA6?$AA?$CJ?$AA?2?$AAM?$AAi?$AAc?$AAr?$AAo?$AAs?$AAo?$AAf?$AAt@ 00000001800d1680     ArbReader.obj
 0002:00004728       ??_C@_1CK@EOPGIILJ@?$AAi?$AAn?$AAv?$AAa?$AAl?$AAi?$AAd?$AA?5?$AAn?$AAu?$AAl?$AAl?$AA?5?$AAp?$AAo?$AAi?$AAn?$AAt?$AAe?$AAr?$AA?$AA@ 00000001800d1728     ArbReader.obj
 0002:00005030       ?collate@?$_Locbase@H@std@@2HB 00000001800d2030     CalFileR1A.obj
 0002:00005034       ?ctype@?$_Locbase@H@std@@2HB 00000001800d2034     CalFileR1A.obj
 0002:00005038       ?monetary@?$_Locbase@H@std@@2HB 00000001800d2038     CalFileR1A.obj
 0002:0000503c       ?numeric@?$_Locbase@H@std@@2HB 00000001800d203c     CalFileR1A.obj
 0002:00005040       ?time@?$_Locbase@H@std@@2HB 00000001800d2040     CalFileR1A.obj
 0002:00005044       ?messages@?$_Locbase@H@std@@2HB 00000001800d2044     CalFileR1A.obj
 0002:00005048       ?all@?$_Locbase@H@std@@2HB 00000001800d2048     CalFileR1A.obj
 0002:0000504c       ?none@?$_Locbase@H@std@@2HB 00000001800d204c     CalFileR1A.obj
 0002:00005050       ?skipws@?$_Iosb@H@std@@2W4_Fmtflags@12@B 00000001800d2050     CalFileR1A.obj
 0002:00005054       ?unitbuf@?$_Iosb@H@std@@2W4_Fmtflags@12@B 00000001800d2054     CalFileR1A.obj
 0002:00005058       ?uppercase@?$_Iosb@H@std@@2W4_Fmtflags@12@B 00000001800d2058     CalFileR1A.obj
 0002:0000505c       ?showbase@?$_Iosb@H@std@@2W4_Fmtflags@12@B 00000001800d205c     CalFileR1A.obj
 0002:00005060       ?showpoint@?$_Iosb@H@std@@2W4_Fmtflags@12@B 00000001800d2060     CalFileR1A.obj
 0002:00005064       ?showpos@?$_Iosb@H@std@@2W4_Fmtflags@12@B 00000001800d2064     CalFileR1A.obj
 0002:00005068       ?left@?$_Iosb@H@std@@2W4_Fmtflags@12@B 00000001800d2068     CalFileR1A.obj
 0002:0000506c       ?right@?$_Iosb@H@std@@2W4_Fmtflags@12@B 00000001800d206c     CalFileR1A.obj
 0002:00005070       ?internal@?$_Iosb@H@std@@2W4_Fmtflags@12@B 00000001800d2070     CalFileR1A.obj
 0002:00005074       ?dec@?$_Iosb@H@std@@2W4_Fmtflags@12@B 00000001800d2074     CalFileR1A.obj
 0002:00005078       ?oct@?$_Iosb@H@std@@2W4_Fmtflags@12@B 00000001800d2078     CalFileR1A.obj
 0002:0000507c       ?hex@?$_Iosb@H@std@@2W4_Fmtflags@12@B 00000001800d207c     CalFileR1A.obj
 0002:00005080       ?scientific@?$_Iosb@H@std@@2W4_Fmtflags@12@B 00000001800d2080     CalFileR1A.obj
 0002:00005084       ?fixed@?$_Iosb@H@std@@2W4_Fmtflags@12@B 00000001800d2084     CalFileR1A.obj
 0002:00005088       ?hexfloat@?$_Iosb@H@std@@2W4_Fmtflags@12@B 00000001800d2088     CalFileR1A.obj
 0002:0000508c       ?boolalpha@?$_Iosb@H@std@@2W4_Fmtflags@12@B 00000001800d208c     CalFileR1A.obj
 0002:00005090       ?_Stdio@?$_Iosb@H@std@@2W4_Fmtflags@12@B 00000001800d2090     CalFileR1A.obj
 0002:00005094       ?adjustfield@?$_Iosb@H@std@@2W4_Fmtflags@12@B 00000001800d2094     CalFileR1A.obj
 0002:00005098       ?basefield@?$_Iosb@H@std@@2W4_Fmtflags@12@B 00000001800d2098     CalFileR1A.obj
 0002:0000509c       ?floatfield@?$_Iosb@H@std@@2W4_Fmtflags@12@B 00000001800d209c     CalFileR1A.obj
 0002:000050a0       ?goodbit@?$_Iosb@H@std@@2W4_Iostate@12@B 00000001800d20a0     CalFileR1A.obj
 0002:000050a4       ?eofbit@?$_Iosb@H@std@@2W4_Iostate@12@B 00000001800d20a4     CalFileR1A.obj
 0002:000050a8       ?failbit@?$_Iosb@H@std@@2W4_Iostate@12@B 00000001800d20a8     CalFileR1A.obj
 0002:000050ac       ?badbit@?$_Iosb@H@std@@2W4_Iostate@12@B 00000001800d20ac     CalFileR1A.obj
 0002:000050b0       ?_Hardfail@?$_Iosb@H@std@@2W4_Iostate@12@B 00000001800d20b0     CalFileR1A.obj
 0002:000050b4       ?in@?$_Iosb@H@std@@2W4_Openmode@12@B 00000001800d20b4     CalFileR1A.obj
 0002:000050b8       ?out@?$_Iosb@H@std@@2W4_Openmode@12@B 00000001800d20b8     CalFileR1A.obj
 0002:000050bc       ?ate@?$_Iosb@H@std@@2W4_Openmode@12@B 00000001800d20bc     CalFileR1A.obj
 0002:000050c0       ?app@?$_Iosb@H@std@@2W4_Openmode@12@B 00000001800d20c0     CalFileR1A.obj
 0002:000050c4       ?trunc@?$_Iosb@H@std@@2W4_Openmode@12@B 00000001800d20c4     CalFileR1A.obj
 0002:000050c8       ?_Nocreate@?$_Iosb@H@std@@2W4_Openmode@12@B 00000001800d20c8     CalFileR1A.obj
 0002:000050cc       ?_Noreplace@?$_Iosb@H@std@@2W4_Openmode@12@B 00000001800d20cc     CalFileR1A.obj
 0002:000050d0       ?binary@?$_Iosb@H@std@@2W4_Openmode@12@B 00000001800d20d0     CalFileR1A.obj
 0002:000050d4       ?beg@?$_Iosb@H@std@@2W4_Seekdir@12@B 00000001800d20d4     CalFileR1A.obj
 0002:000050d8       ?cur@?$_Iosb@H@std@@2W4_Seekdir@12@B 00000001800d20d8     CalFileR1A.obj
 0002:000050dc       ?end@?$_Iosb@H@std@@2W4_Seekdir@12@B 00000001800d20dc     CalFileR1A.obj
 0002:000050e8       ??_7CalFileR1A@@6B@        00000001800d20e8     CalFileR1A.obj
 0002:000051a0       ??_7TxSidebandTableR1A@@6B@ 00000001800d21a0     CalFileR1A.obj
 0002:000051c0       ??_7TxLOLeakageTableR1A@@6B@ 00000001800d21c0     CalFileR1A.obj
 0002:000051e0       ??_7TxAttTableR1A@@6B@     00000001800d21e0     CalFileR1A.obj
 0002:00005200       ??_7TxPowerTableR1A@@6B@   00000001800d2200     CalFileR1A.obj
 0002:00005220       ??_7RxRefTableR1A@@6B@     00000001800d2220     CalFileR1A.obj
 0002:00005b48       ??_7CalFileR1C@@6B@        00000001800d2b48     CalFileR1C.obj
 0002:00005c00       ??_7TxAttOPTableR1C@@6B@   00000001800d2c00     CalFileR1C.obj
 0002:00005c20       ??_7TxAttIOTableR1C@@6B@   00000001800d2c20     CalFileR1C.obj
 0002:00005c40       ??_7TxPowerOPTableR1C@@6B@ 00000001800d2c40     CalFileR1C.obj
 0002:00005c60       ??_7TxPowerIOTableR1C@@6B@ 00000001800d2c60     CalFileR1C.obj
 0002:00005c80       ??_7RxRefOPTableR1C@@6B@   00000001800d2c80     CalFileR1C.obj
 0002:00005ca0       ??_7RxRefIOTableR1C@@6B@   00000001800d2ca0     CalFileR1C.obj
 0002:00005cc0       ??_7RxAttOPTableR1C@@6B@   00000001800d2cc0     CalFileR1C.obj
 0002:00005ce0       ??_7RxAttIOTableR1C@@6B@   00000001800d2ce0     CalFileR1C.obj
 0002:00005d00       ??_7TxFilter_80M_TableR1C@@6B@ 00000001800d2d00     CalFileR1C.obj
 0002:00005d20       ??_7TxFilter_160M_TableR1C@@6B@ 00000001800d2d20     CalFileR1C.obj
 0002:00005d40       ??_7RxFilter_80M_TableR1C@@6B@ 00000001800d2d40     CalFileR1C.obj
 0002:00005d60       ??_7RxFilter_160M_TableR1C@@6B@ 00000001800d2d60     CalFileR1C.obj
 0002:00005d80       ??_7TxFilterOffTableR1C@@6B@ 00000001800d2d80     CalFileR1C.obj
 0002:00005da0       ??_7RxFilterOffTableR1C@@6B@ 00000001800d2da0     CalFileR1C.obj
 0002:00005dc0       ??_7TxIFFrTableR1C@@6B@    00000001800d2dc0     CalFileR1C.obj
 0002:00005de0       ??_7RxRFFrTableR1C@@6B@    00000001800d2de0     CalFileR1C.obj
 0002:00005e00       ??_7RxIFFrTableR1C@@6B@    00000001800d2e00     CalFileR1C.obj
 0002:00005e20       ??_7TxRFFr_0_TableR1C@@6B@ 00000001800d2e20     CalFileR1C.obj
 0002:00005e40       ??_7TxRFFrTable@@6B@       00000001800d2e40     CalFileR1C.obj
 0002:00005e58       ??_7TxRFFr_1_TableR1C@@6B@ 00000001800d2e58     CalFileR1C.obj
 0002:00009788       ??_7ICalFile@@6B@          00000001800d6788     ICalFile.obj
 0002:00009840       ??_7CfvCtrl@@6B@           00000001800d6840     ICalFile.obj
 0002:00009898       __real@bff0000000000000    00000001800d6898     IQBufMgr.obj
 0002:000098a8       __real@4024000000000000    00000001800d68a8     IQBufMgr.obj
 0002:000098b8       __real@41a0000000000000    00000001800d68b8     IQBufMgr.obj
 0002:000098c8       __real@412e848000000000    00000001800d68c8     IQBufMgr.obj
 0002:000098d8       __real@4000000000000000    00000001800d68d8     IQBufMgr.obj
 0002:00013d28       ??_7ISP1401@@6B@           00000001800e0d28     ISP1401.obj
 0002:00013fd8       __real@41adcd6500000000    00000001800e0fd8     ISP1401.obj
 0002:00013fe8       __real@3ff0000000000000    00000001800e0fe8     ISP1401.obj
 0002:00013ff8       __real@3fe0000000000000    00000001800e0ff8     ISP1401.obj
 0002:00014008       __real@404f400000000000    00000001800e1008     ISP1401.obj
 0002:00014018       __real@4018000000000000    00000001800e1018     ISP1401.obj
 0002:00014028       __real@3f90624dd2f1a9fc    00000001800e1028     ISP1401.obj
 0002:00014038       __real@419312d000000000    00000001800e1038     ISP1401.obj
 0002:00014048       __real@40b0000000000000    00000001800e1048     ISP1401.obj
 0002:000140a8       __real@0000000000000000    00000001800e10a8     RxAttTable.obj
 0002:000140b8       __real@43f0000000000000    00000001800e10b8     RxAttTable.obj
 0002:00014210       __real@413e848000000000    00000001800e1210     RxFilterTable.obj
 0002:00014220       __real@c193c9eb00000000    00000001800e1220     RxFilterTable.obj
 0002:00014230       __real@4193c9eb00000000    00000001800e1230     RxFilterTable.obj
 0002:00014590       __real@c024000000000000    00000001800e1590     RxRefTable.obj
 0002:000145a0       __real@c02e000000000000    00000001800e15a0     RxRefTable.obj
 0002:000145b0       __real@c034000000000000    00000001800e15b0     RxRefTable.obj
 0002:000145c0       __real@c03e000000000000    00000001800e15c0     RxRefTable.obj
 0002:000145d0       __real@403e000000000000    00000001800e15d0     RxRefTable.obj
 0002:000145e0       __real@c044000000000000    00000001800e15e0     RxRefTable.obj
 0002:000145f0       __mask@@NegFloat@          00000001800e15f0     RxRefTable.obj
 0002:00014604       __real@41200000            00000001800e1604     RxRefTable.obj
 0002:00014608       __real@41a00000            00000001800e1608     RxRefTable.obj
 0002:00014610       __real@4039000000000000    00000001800e1610     RxRefTable.obj
 0002:00014620       __real@402e000000000000    00000001800e1620     RxRefTable.obj
 0002:00014630       __real@4014000000000000    00000001800e1630     RxRefTable.obj
 0002:0001463c       __real@40800000            00000001800e163c     RxRefTable.obj
 0002:00014640       __real@4010000000000000    00000001800e1640     RxRefTable.obj
 0002:00014650       __real@4034000000000000    00000001800e1650     RxRefTable.obj
 0002:00014660       __real@402a000000000000    00000001800e1660     RxRefTable.obj
 0002:00014d0c       __real@40d66666            00000001800e1d0c     sgpmm.obj
 0002:00014d18       ??_7CSGPMMFile@@6B@        00000001800e1d18     sgpmm.obj
 0002:00014d90       ??_C@_1II@INENAFIK@?$AAC?$AA?3?$AA?2?$AAP?$AAr?$AAo?$AAg?$AAr?$AAa?$AAm?$AA?5?$AAF?$AAi?$AAl?$AAe?$AAs?$AA?5?$AA?$CI?$AAx?$AA8?$AA6?$AA?$CJ?$AA?2?$AAM?$AAi?$AAc?$AAr?$AAo?$AAs?$AAo?$AAf?$AAt@ 00000001800e1d90     sgpmm.obj
 0002:00014ea0       ??_C@_1BMO@IEKMODD@?$AAs?$AAt?$AAd?$AA?3?$AA?3?$AA_?$AAT?$AAr?$AAe?$AAe?$AA?$DM?$AAc?$AAl?$AAa?$AAs?$AAs?$AA?5?$AAs?$AAt?$AAd?$AA?3?$AA?3?$AA_?$AAT?$AAm?$AAa?$AAp?$AA_?$AAt?$AAr?$AAa?$AAi@ 00000001800e1ea0     sgpmm.obj
 0002:000150d0       ??_C@_1DO@CFEEPGGJ@?$AAm?$AAa?$AAp?$AA?1?$AAs?$AAe?$AAt?$AA?5?$AAi?$AAt?$AAe?$AAr?$AAa?$AAt?$AAo?$AAr?$AAs?$AA?5?$AAi?$AAn?$AAc?$AAo?$AAm?$AAp?$AAa?$AAt?$AAi?$AAb?$AAl?$AAe?$AA?$AA@ 00000001800e20d0     sgpmm.obj
 0002:00015390       ??_C@_0BE@JONHPENG@map?1set?$DMT?$DO?5too?5long?$AA@ 00000001800e2390     sgpmm.obj
 0002:000153e0       ??_C@_1BMM@FGHJMAOJ@?$AAs?$AAt?$AAd?$AA?3?$AA?3?$AA_?$AAT?$AAr?$AAe?$AAe?$AA?$DM?$AAc?$AAl?$AAa?$AAs?$AAs?$AA?5?$AAs?$AAt?$AAd?$AA?3?$AA?3?$AA_?$AAT?$AAm?$AAa?$AAp?$AA_?$AAt?$AAr?$AAa?$AAi@ 00000001800e23e0     sgpmm.obj
 0002:00015610       ??_C@_1EI@FHEHNNNM@?$AAm?$AAa?$AAp?$AA?1?$AAs?$AAe?$AAt?$AA?5?$AAi?$AAt?$AAe?$AAr?$AAa?$AAt?$AAo?$AAr?$AA?5?$AAn?$AAo?$AAt?$AA?5?$AAd?$AAe?$AAr?$AAe?$AAf?$AAe?$AAr?$AAe?$AAn?$AAc?$AAa@ 00000001800e2610     sgpmm.obj
 0002:000156d0       ??_C@_1EI@HGIDLLCM@?$AAv?$AAe?$AAc?$AAt?$AAo?$AAr?$AA?5?$AAe?$AAr?$AAa?$AAs?$AAe?$AA?5?$AAi?$AAt?$AAe?$AAr?$AAa?$AAt?$AAo?$AAr?$AA?5?$AAo?$AAu?$AAt?$AAs?$AAi?$AAd?$AAe?$AA?5?$AAr?$AAa@ 00000001800e26d0     sgpmm.obj
 0002:00015730       ??_C@_1OE@BBOHGFCP@?$AAs?$AAt?$AAd?$AA?3?$AA?3?$AA_?$AAV?$AAe?$AAc?$AAt?$AAo?$AAr?$AA_?$AAc?$AAo?$AAn?$AAs?$AAt?$AA_?$AAi?$AAt?$AAe?$AAr?$AAa?$AAt?$AAo?$AAr?$AA?$DM?$AAs?$AAt?$AAr?$AAu@ 00000001800e2730     sgpmm.obj
 0002:00015af0       ??_C@_1PM@BIEIKMOC@?$AAs?$AAt?$AAd?$AA?3?$AA?3?$AA_?$AAV?$AAe?$AAc?$AAt?$AAo?$AAr?$AA_?$AAc?$AAo?$AAn?$AAs?$AAt?$AA_?$AAi?$AAt?$AAe?$AAr?$AAa?$AAt?$AAo?$AAr?$AA?$DM?$AAs?$AAt?$AAr?$AAu@ 00000001800e2af0     sgpmm.obj
 0002:00015c20       ??_C@_1EE@EJDKCLKB@?$AAv?$AAe?$AAc?$AAt?$AAo?$AAr?$AA?5?$AAi?$AAt?$AAe?$AAr?$AAa?$AAt?$AAo?$AAr?$AA?5?$AAn?$AAo?$AAt?$AA?5?$AAi?$AAn?$AAc?$AAr?$AAe?$AAm?$AAe?$AAn?$AAt?$AAa?$AAb?$AAl@ 00000001800e2c20     sgpmm.obj
 0002:00015c80       ??_C@_1HE@NMBDDEHP@?$AA?$CI?$AA?$CC?$AA_?$AAM?$AAy?$AAp?$AAt?$AAr?$AA?5?$AA?$DM?$AA?5?$AA?$CI?$AA?$CI?$AA_?$AAM?$AAy?$AAv?$AAe?$AAc?$AA?5?$AA?$CK?$AA?$CJ?$AA?$CI?$AAt?$AAh?$AAi?$AAs?$AA?9?$AA?$DO?$AA_?$AAG?$AAe@ 00000001800e2c80     sgpmm.obj
 0002:00015d10       ??_C@_1OG@JDKLEHMH@?$AAs?$AAt?$AAd?$AA?3?$AA?3?$AA_?$AAV?$AAe?$AAc?$AAt?$AAo?$AAr?$AA_?$AAc?$AAo?$AAn?$AAs?$AAt?$AA_?$AAi?$AAt?$AAe?$AAr?$AAa?$AAt?$AAo?$AAr?$AA?$DM?$AAs?$AAt?$AAr?$AAu@ 00000001800e2d10     sgpmm.obj
 0002:00015e30       ??_C@_1NO@KIGOGCMM@?$AAs?$AAt?$AAd?$AA?3?$AA?3?$AA_?$AAV?$AAe?$AAc?$AAt?$AAo?$AAr?$AA_?$AAc?$AAo?$AAn?$AAs?$AAt?$AA_?$AAi?$AAt?$AAe?$AAr?$AAa?$AAt?$AAo?$AAr?$AA?$DM?$AAs?$AAt?$AAr?$AAu@ 00000001800e2e30     sgpmm.obj
 0002:00016150       ??_C@_1EK@PPDBPCAN@?$AAm?$AAa?$AAp?$AA?1?$AAs?$AAe?$AAt?$AA?5?$AAe?$AAr?$AAa?$AAs?$AAe?$AA?5?$AAi?$AAt?$AAe?$AAr?$AAa?$AAt?$AAo?$AAr?$AA?5?$AAo?$AAu?$AAt?$AAs?$AAi?$AAd?$AAe?$AA?5?$AAr@ 00000001800e3150     sgpmm.obj
 0002:00016210       ??_C@_1BMA@PEIGIALF@?$AAs?$AAt?$AAd?$AA?3?$AA?3?$AA_?$AAT?$AAr?$AAe?$AAe?$AA?$DM?$AAc?$AAl?$AAa?$AAs?$AAs?$AA?5?$AAs?$AAt?$AAd?$AA?3?$AA?3?$AA_?$AAT?$AAm?$AAa?$AAp?$AA_?$AAt?$AAr?$AAa?$AAi@ 00000001800e3210     sgpmm.obj
 0002:00016430       ??_C@_1EG@OKCGOALM@?$AAm?$AAa?$AAp?$AA?1?$AAs?$AAe?$AAt?$AA?5?$AAi?$AAt?$AAe?$AAr?$AAa?$AAt?$AAo?$AAr?$AA?5?$AAn?$AAo?$AAt?$AA?5?$AAd?$AAe?$AAc?$AAr?$AAe?$AAm?$AAe?$AAn?$AAt?$AAa?$AAb@ 00000001800e3430     sgpmm.obj
 0002:00016490       ??_C@_1BMA@FEEGFKH@?$AAs?$AAt?$AAd?$AA?3?$AA?3?$AA_?$AAT?$AAr?$AAe?$AAe?$AA?$DM?$AAc?$AAl?$AAa?$AAs?$AAs?$AA?5?$AAs?$AAt?$AAd?$AA?3?$AA?3?$AA_?$AAT?$AAm?$AAa?$AAp?$AA_?$AAt?$AAr?$AAa?$AAi@ 00000001800e3490     sgpmm.obj
 0002:000166b0       ??_C@_1EG@EHJFMBHJ@?$AAm?$AAa?$AAp?$AA?1?$AAs?$AAe?$AAt?$AA?5?$AAi?$AAt?$AAe?$AAr?$AAa?$AAt?$AAo?$AAr?$AA?5?$AAn?$AAo?$AAt?$AA?5?$AAi?$AAn?$AAc?$AAr?$AAe?$AAm?$AAe?$AAn?$AAt?$AAa?$AAb@ 00000001800e36b0     sgpmm.obj
 0002:00016800       ??_C@_1CAK@ELLKEPIA@?$AAs?$AAt?$AAd?$AA?3?$AA?3?$AA_?$AAV?$AAe?$AAc?$AAt?$AAo?$AAr?$AA_?$AAc?$AAo?$AAn?$AAs?$AAt?$AA_?$AAi?$AAt?$AAe?$AAr?$AAa?$AAt?$AAo?$AAr?$AA?$DM?$AAc?$AAl?$AAa?$AAs@ 00000001800e3800     sgpmm.obj
 0002:00016a80       ??_C@_1BOM@LBEKOEPH@?$AAs?$AAt?$AAd?$AA?3?$AA?3?$AA_?$AAV?$AAe?$AAc?$AAt?$AAo?$AAr?$AA_?$AAc?$AAo?$AAn?$AAs?$AAt?$AA_?$AAi?$AAt?$AAe?$AAr?$AAa?$AAt?$AAo?$AAr?$AA?$DM?$AAc?$AAl?$AAa?$AAs@ 00000001800e3a80     sgpmm.obj
 0002:00016d00       ??_C@_1NM@NPGNBKMJ@?$AAs?$AAt?$AAd?$AA?3?$AA?3?$AA_?$AAV?$AAe?$AAc?$AAt?$AAo?$AAr?$AA_?$AAc?$AAo?$AAn?$AAs?$AAt?$AA_?$AAi?$AAt?$AAe?$AAr?$AAa?$AAt?$AAo?$AAr?$AA?$DM?$AAu?$AAn?$AAs?$AAi@ 00000001800e3d00     sgpmm.obj
 0002:00016e10       ??_C@_1LO@BKGANGEL@?$AAs?$AAt?$AAd?$AA?3?$AA?3?$AA_?$AAV?$AAe?$AAc?$AAt?$AAo?$AAr?$AA_?$AAc?$AAo?$AAn?$AAs?$AAt?$AA_?$AAi?$AAt?$AAe?$AAr?$AAa?$AAt?$AAo?$AAr?$AA?$DM?$AAu?$AAn?$AAs?$AAi@ 00000001800e3e10     sgpmm.obj
 0002:00016f30       ??_C@_1LA@GMACPMB@?$AAs?$AAt?$AAd?$AA?3?$AA?3?$AA_?$AAV?$AAe?$AAc?$AAt?$AAo?$AAr?$AA_?$AAc?$AAo?$AAn?$AAs?$AAt?$AA_?$AAi?$AAt?$AAe?$AAr?$AAa?$AAt?$AAo?$AAr?$AA?$DM?$AAf?$AAl?$AAo?$AAa@ 00000001800e3f30     sgpmm.obj
 0002:00017010       ??_C@_1JC@FIHDFEOI@?$AAs?$AAt?$AAd?$AA?3?$AA?3?$AA_?$AAV?$AAe?$AAc?$AAt?$AAo?$AAr?$AA_?$AAc?$AAo?$AAn?$AAs?$AAt?$AA_?$AAi?$AAt?$AAe?$AAr?$AAa?$AAt?$AAo?$AAr?$AA?$DM?$AAf?$AAl?$AAo?$AAa@ 00000001800e4010     sgpmm.obj
 0002:000170c0       ??_C@_1OG@OGNJEPIE@?$AAs?$AAt?$AAd?$AA?3?$AA?3?$AA_?$AAV?$AAe?$AAc?$AAt?$AAo?$AAr?$AA_?$AAc?$AAo?$AAn?$AAs?$AAt?$AA_?$AAi?$AAt?$AAe?$AAr?$AAa?$AAt?$AAo?$AAr?$AA?$DM?$AAs?$AAt?$AAr?$AAu@ 00000001800e40c0     sgpmm.obj
 0002:000171e0       ??_C@_1BPE@CEHFGNLE@?$AAs?$AAt?$AAd?$AA?3?$AA?3?$AA_?$AAV?$AAe?$AAc?$AAt?$AAo?$AAr?$AA_?$AAc?$AAo?$AAn?$AAs?$AAt?$AA_?$AAi?$AAt?$AAe?$AAr?$AAa?$AAt?$AAo?$AAr?$AA?$DM?$AAc?$AAl?$AAa?$AAs@ 00000001800e41e0     sgpmm.obj
 0002:00017440       ??_C@_1MG@DLBAJCPA@?$AAs?$AAt?$AAd?$AA?3?$AA?3?$AA_?$AAV?$AAe?$AAc?$AAt?$AAo?$AAr?$AA_?$AAc?$AAo?$AAn?$AAs?$AAt?$AA_?$AAi?$AAt?$AAe?$AAr?$AAa?$AAt?$AAo?$AAr?$AA?$DM?$AAu?$AAn?$AAs?$AAi@ 00000001800e4440     sgpmm.obj
 0002:00017530       ??_C@_1JK@KHCKPCFI@?$AAs?$AAt?$AAd?$AA?3?$AA?3?$AA_?$AAV?$AAe?$AAc?$AAt?$AAo?$AAr?$AA_?$AAc?$AAo?$AAn?$AAs?$AAt?$AA_?$AAi?$AAt?$AAe?$AAr?$AAa?$AAt?$AAo?$AAr?$AA?$DM?$AAf?$AAl?$AAo?$AAa@ 00000001800e4530     sgpmm.obj
 0002:000175e8       ??_C@_1CE@IGJMOCCK@?$AAi?$AAn?$AAv?$AAa?$AAl?$AAi?$AAd?$AA?5?$AAo?$AAp?$AAe?$AAr?$AAa?$AAt?$AAo?$AAr?$AA?$DM?$AA?$AA@ 00000001800e45e8     sgpmm.obj
 0002:0001c778       ??_7CSP1401R1A@@6B@        00000001800e9778     SP1401R1A.obj
 0002:0001ca30       __real@bff4000000000000    00000001800e9a30     SP1401R1A.obj
 0002:0001ca40       __real@bfe999999999999a    00000001800e9a40     SP1401R1A.obj
 0002:0001ca50       __real@c004000000000000    00000001800e9a50     SP1401R1A.obj
 0002:0001ca60       __real@4080000000000000    00000001800e9a60     SP1401R1A.obj
 0002:0001ca70       __real@403f800000000000    00000001800e9a70     SP1401R1A.obj
 0002:0001ca80       __real@404f800000000000    00000001800e9a80     SP1401R1A.obj
 0002:0001ca90       __real@404e000000000000    00000001800e9a90     SP1401R1A.obj
 0002:0001caa0       __real@4059000000000000    00000001800e9aa0     SP1401R1A.obj
 0002:0001cab0       __real@c060000000000000    00000001800e9ab0     SP1401R1A.obj
 0002:0001cac0       __real@40affe0000000000    00000001800e9ac0     SP1401R1A.obj
 0002:0001cad0       __real@c014000000000000    00000001800e9ad0     SP1401R1A.obj
 0002:00028188       ??_7CSP1401R1C@@6B@        00000001800f5188     SP1401R1C.obj
 0002:00028528       __real@c028000000000000    00000001800f5528     TxAttTable.obj
 0002:00028808       ??_7TxLOLeakageTableR1C@@6B@ 00000001800f5808     TxLoLeakageTable.obj
 0002:00028c30       __real@4020000000000000    00000001800f5c30     TxPowerTable.obj
 0002:00028c40       __real@c008000000000000    00000001800f5c40     TxPowerTable.obj
 0002:00028c50       __real@4056800000000000    00000001800f5c50     TxPowerTable.obj
 0002:00028c60       __real@c059000000000000    00000001800f5c60     TxPowerTable.obj
 0002:00028c70       __real@c056800000000000    00000001800f5c70     TxPowerTable.obj
 0002:00028c80       __real@c054000000000000    00000001800f5c80     TxPowerTable.obj
 0002:00028c90       __real@c046800000000000    00000001800f5c90     TxPowerTable.obj
 0002:00028ca0       __real@c052c00000000000    00000001800f5ca0     TxPowerTable.obj
 0002:00028cb0       __real@c043800000000000    00000001800f5cb0     TxPowerTable.obj
 0002:00028cc0       __real@c051800000000000    00000001800f5cc0     TxPowerTable.obj
 0002:00028cd0       __real@c050400000000000    00000001800f5cd0     TxPowerTable.obj
 0002:00028ce0       __real@c04e000000000000    00000001800f5ce0     TxPowerTable.obj
 0002:00028cf0       __real@c04b800000000000    00000001800f5cf0     TxPowerTable.obj
 0002:00028d00       __real@c038000000000000    00000001800f5d00     TxPowerTable.obj
 0002:00028d10       __real@c049000000000000    00000001800f5d10     TxPowerTable.obj
 0002:00028d20       __real@c033000000000000    00000001800f5d20     TxPowerTable.obj
 0002:00028d30       __real@c041800000000000    00000001800f5d30     TxPowerTable.obj
 0002:00028d40       __real@c05e000000000000    00000001800f5d40     TxPowerTable.obj
 0002:00028d50       __real@4055400000000000    00000001800f5d50     TxPowerTable.obj
 0002:00028d60       __real@4051800000000000    00000001800f5d60     TxPowerTable.obj
 0002:00028d70       __real@c058400000000000    00000001800f5d70     TxPowerTable.obj
 0002:00028d80       __real@4050400000000000    00000001800f5d80     TxPowerTable.obj
 0002:00028d90       __real@c055c00000000000    00000001800f5d90     TxPowerTable.obj
 0002:00028da0       __real@4044000000000000    00000001800f5da0     TxPowerTable.obj
 0002:00028db0       __real@c054800000000000    00000001800f5db0     TxPowerTable.obj
 0002:00028dc0       __real@4041800000000000    00000001800f5dc0     TxPowerTable.obj
 0002:00028dd0       __real@c053400000000000    00000001800f5dd0     TxPowerTable.obj
 0002:00028de0       __real@404b800000000000    00000001800f5de0     TxPowerTable.obj
 0002:00028df0       __real@c052000000000000    00000001800f5df0     TxPowerTable.obj
 0002:00028e00       __real@4049000000000000    00000001800f5e00     TxPowerTable.obj
 0002:00028e10       __real@c050c00000000000    00000001800f5e10     TxPowerTable.obj
 0002:00028e20       __real@c04f000000000000    00000001800f5e20     TxPowerTable.obj
 0002:00028e30       __real@c04c800000000000    00000001800f5e30     TxPowerTable.obj
 0002:00028e40       __real@c047800000000000    00000001800f5e40     TxPowerTable.obj
 0002:00028e50       __real@c045000000000000    00000001800f5e50     TxPowerTable.obj
 0002:00028e60       __real@c03b000000000000    00000001800f5e60     TxPowerTable.obj
 0002:00028fd0       ??_7TxSidebandTableR1C@@6B@ 00000001800f5fd0     TxSidebandTable.obj
 0002:00028fe8       ??_C@_0P@GHFPNOJB@bad?5allocation?$AA@ 00000001800f5fe8     msvcprtd:newaop_s.obj
 0002:00029000       ??_7type_info@@6B@         00000001800f6000     MSVCRTD:ti_inst.obj
 0002:00029008       _pDefaultRawDllMain        00000001800f6008     MSVCRTD:crtdll.obj
 0002:00029008       _pRawDllMain               00000001800f6008     MSVCRTD:crtdll.obj
 0002:00029010       ??_C@_0DF@EBFKANAI@f?3?2dd?2vctools?2crt_bld?2self_64_am@ 00000001800f6010     MSVCRTD:crtdll.obj
 0002:00029058       ?ProcessDetach@NativeDll@<CrtImplementationDetails>@@0IB 00000001800f6058     MSVCRTD:tncleanup.obj
 0002:0002905c       ?ProcessAttach@NativeDll@<CrtImplementationDetails>@@0IB 00000001800f605c     MSVCRTD:tncleanup.obj
 0002:00029060       ?ThreadAttach@NativeDll@<CrtImplementationDetails>@@0IB 00000001800f6060     MSVCRTD:tncleanup.obj
 0002:00029064       ?ThreadDetach@NativeDll@<CrtImplementationDetails>@@0IB 00000001800f6064     MSVCRTD:tncleanup.obj
 0002:00029068       ?ProcessVerifier@NativeDll@<CrtImplementationDetails>@@0IB 00000001800f6068     MSVCRTD:tncleanup.obj
 0002:00029480       ??_R4out_of_range@std@@6B@ 00000001800f6480     ArbReader.obj
 0002:000294b0       ??_R3out_of_range@std@@8   00000001800f64b0     ArbReader.obj
 0002:000294c8       ??_R2out_of_range@std@@8   00000001800f64c8     ArbReader.obj
 0002:000294f0       ??_R1A@?0A@EA@out_of_range@std@@8 00000001800f64f0     ArbReader.obj
 0002:00029520       ??_R1A@?0A@EA@logic_error@std@@8 00000001800f6520     ArbReader.obj
 0002:00029550       ??_R3logic_error@std@@8    00000001800f6550     ArbReader.obj
 0002:00029568       ??_R2logic_error@std@@8    00000001800f6568     ArbReader.obj
 0002:00029580       ??_R1A@?0A@EA@exception@std@@8 00000001800f6580     ArbReader.obj
 0002:000295b0       ??_R3exception@std@@8      00000001800f65b0     ArbReader.obj
 0002:000295c8       ??_R2exception@std@@8      00000001800f65c8     ArbReader.obj
 0002:000295d8       ??_R4logic_error@std@@6B@  00000001800f65d8     ArbReader.obj
 0002:00029608       ??_R4length_error@std@@6B@ 00000001800f6608     ArbReader.obj
 0002:00029638       ??_R3length_error@std@@8   00000001800f6638     ArbReader.obj
 0002:00029650       ??_R2length_error@std@@8   00000001800f6650     ArbReader.obj
 0002:00029678       ??_R1A@?0A@EA@length_error@std@@8 00000001800f6678     ArbReader.obj
 0002:000296a8       ??_R4bad_alloc@std@@6B@    00000001800f66a8     ArbReader.obj
 0002:000296d8       ??_R3bad_alloc@std@@8      00000001800f66d8     ArbReader.obj
 0002:000296f0       ??_R2bad_alloc@std@@8      00000001800f66f0     ArbReader.obj
 0002:00029708       ??_R1A@?0A@EA@bad_alloc@std@@8 00000001800f6708     ArbReader.obj
 0002:00029738       ??_R4CalFileR1A@@6B@       00000001800f6738     CalFileR1A.obj
 0002:00029768       ??_R3CalFileR1A@@8         00000001800f6768     CalFileR1A.obj
 0002:00029780       ??_R2CalFileR1A@@8         00000001800f6780     CalFileR1A.obj
 0002:00029798       ??_R1A@?0A@EA@CalFileR1A@@8 00000001800f6798     CalFileR1A.obj
 0002:000297c8       ??_R1A@?0A@EA@ICalFile@@8  00000001800f67c8     CalFileR1A.obj
 0002:000297f8       ??_R3ICalFile@@8           00000001800f67f8     CalFileR1A.obj
 0002:00029810       ??_R2ICalFile@@8           00000001800f6810     CalFileR1A.obj
 0002:00029820       ??_R4TxSidebandTableR1A@@6B@ 00000001800f6820     CalFileR1A.obj
 0002:00029850       ??_R3TxSidebandTableR1A@@8 00000001800f6850     CalFileR1A.obj
 0002:00029868       ??_R2TxSidebandTableR1A@@8 00000001800f6868     CalFileR1A.obj
 0002:00029878       ??_R1A@?0A@EA@TxSidebandTableR1A@@8 00000001800f6878     CalFileR1A.obj
 0002:000298a8       ??_R4TxLOLeakageTableR1A@@6B@ 00000001800f68a8     CalFileR1A.obj
 0002:000298d8       ??_R3TxLOLeakageTableR1A@@8 00000001800f68d8     CalFileR1A.obj
 0002:000298f0       ??_R2TxLOLeakageTableR1A@@8 00000001800f68f0     CalFileR1A.obj
 0002:00029900       ??_R1A@?0A@EA@TxLOLeakageTableR1A@@8 00000001800f6900     CalFileR1A.obj
 0002:00029930       ??_R4TxAttTableR1A@@6B@    00000001800f6930     CalFileR1A.obj
 0002:00029960       ??_R3TxAttTableR1A@@8      00000001800f6960     CalFileR1A.obj
 0002:00029978       ??_R2TxAttTableR1A@@8      00000001800f6978     CalFileR1A.obj
 0002:00029988       ??_R1A@?0A@EA@TxAttTableR1A@@8 00000001800f6988     CalFileR1A.obj
 0002:000299b8       ??_R4TxPowerTableR1A@@6B@  00000001800f69b8     CalFileR1A.obj
 0002:000299e8       ??_R3TxPowerTableR1A@@8    00000001800f69e8     CalFileR1A.obj
 0002:00029a00       ??_R2TxPowerTableR1A@@8    00000001800f6a00     CalFileR1A.obj
 0002:00029a10       ??_R1A@?0A@EA@TxPowerTableR1A@@8 00000001800f6a10     CalFileR1A.obj
 0002:00029a40       ??_R4RxRefTableR1A@@6B@    00000001800f6a40     CalFileR1A.obj
 0002:00029a70       ??_R3RxRefTableR1A@@8      00000001800f6a70     CalFileR1A.obj
 0002:00029a88       ??_R2RxRefTableR1A@@8      00000001800f6a88     CalFileR1A.obj
 0002:00029a98       ??_R1A@?0A@EA@RxRefTableR1A@@8 00000001800f6a98     CalFileR1A.obj
 0002:00029ac8       ??_R4CalFileR1C@@6B@       00000001800f6ac8     CalFileR1C.obj
 0002:00029af8       ??_R3CalFileR1C@@8         00000001800f6af8     CalFileR1C.obj
 0002:00029b10       ??_R2CalFileR1C@@8         00000001800f6b10     CalFileR1C.obj
 0002:00029b28       ??_R1A@?0A@EA@CalFileR1C@@8 00000001800f6b28     CalFileR1C.obj
 0002:00029b58       ??_R4TxAttOPTableR1C@@6B@  00000001800f6b58     CalFileR1C.obj
 0002:00029b88       ??_R3TxAttOPTableR1C@@8    00000001800f6b88     CalFileR1C.obj
 0002:00029ba0       ??_R2TxAttOPTableR1C@@8    00000001800f6ba0     CalFileR1C.obj
 0002:00029bb0       ??_R1A@?0A@EA@TxAttOPTableR1C@@8 00000001800f6bb0     CalFileR1C.obj
 0002:00029be0       ??_R4TxAttIOTableR1C@@6B@  00000001800f6be0     CalFileR1C.obj
 0002:00029c10       ??_R3TxAttIOTableR1C@@8    00000001800f6c10     CalFileR1C.obj
 0002:00029c28       ??_R2TxAttIOTableR1C@@8    00000001800f6c28     CalFileR1C.obj
 0002:00029c38       ??_R1A@?0A@EA@TxAttIOTableR1C@@8 00000001800f6c38     CalFileR1C.obj
 0002:00029c68       ??_R4TxPowerOPTableR1C@@6B@ 00000001800f6c68     CalFileR1C.obj
 0002:00029c98       ??_R3TxPowerOPTableR1C@@8  00000001800f6c98     CalFileR1C.obj
 0002:00029cb0       ??_R2TxPowerOPTableR1C@@8  00000001800f6cb0     CalFileR1C.obj
 0002:00029cc0       ??_R1A@?0A@EA@TxPowerOPTableR1C@@8 00000001800f6cc0     CalFileR1C.obj
 0002:00029cf0       ??_R4TxPowerIOTableR1C@@6B@ 00000001800f6cf0     CalFileR1C.obj
 0002:00029d20       ??_R3TxPowerIOTableR1C@@8  00000001800f6d20     CalFileR1C.obj
 0002:00029d38       ??_R2TxPowerIOTableR1C@@8  00000001800f6d38     CalFileR1C.obj
 0002:00029d48       ??_R1A@?0A@EA@TxPowerIOTableR1C@@8 00000001800f6d48     CalFileR1C.obj
 0002:00029d78       ??_R4RxRefOPTableR1C@@6B@  00000001800f6d78     CalFileR1C.obj
 0002:00029da8       ??_R3RxRefOPTableR1C@@8    00000001800f6da8     CalFileR1C.obj
 0002:00029dc0       ??_R2RxRefOPTableR1C@@8    00000001800f6dc0     CalFileR1C.obj
 0002:00029dd0       ??_R1A@?0A@EA@RxRefOPTableR1C@@8 00000001800f6dd0     CalFileR1C.obj
 0002:00029e00       ??_R4RxRefIOTableR1C@@6B@  00000001800f6e00     CalFileR1C.obj
 0002:00029e30       ??_R3RxRefIOTableR1C@@8    00000001800f6e30     CalFileR1C.obj
 0002:00029e48       ??_R2RxRefIOTableR1C@@8    00000001800f6e48     CalFileR1C.obj
 0002:00029e58       ??_R1A@?0A@EA@RxRefIOTableR1C@@8 00000001800f6e58     CalFileR1C.obj
 0002:00029e88       ??_R4RxAttOPTableR1C@@6B@  00000001800f6e88     CalFileR1C.obj
 0002:00029eb8       ??_R3RxAttOPTableR1C@@8    00000001800f6eb8     CalFileR1C.obj
 0002:00029ed0       ??_R2RxAttOPTableR1C@@8    00000001800f6ed0     CalFileR1C.obj
 0002:00029ee0       ??_R1A@?0A@EA@RxAttOPTableR1C@@8 00000001800f6ee0     CalFileR1C.obj
 0002:00029f10       ??_R4RxAttIOTableR1C@@6B@  00000001800f6f10     CalFileR1C.obj
 0002:00029f40       ??_R3RxAttIOTableR1C@@8    00000001800f6f40     CalFileR1C.obj
 0002:00029f58       ??_R2RxAttIOTableR1C@@8    00000001800f6f58     CalFileR1C.obj
 0002:00029f68       ??_R1A@?0A@EA@RxAttIOTableR1C@@8 00000001800f6f68     CalFileR1C.obj
 0002:00029f98       ??_R4TxFilter_80M_TableR1C@@6B@ 00000001800f6f98     CalFileR1C.obj
 0002:00029fc8       ??_R3TxFilter_80M_TableR1C@@8 00000001800f6fc8     CalFileR1C.obj
 0002:00029fe0       ??_R2TxFilter_80M_TableR1C@@8 00000001800f6fe0     CalFileR1C.obj
 0002:00029ff0       ??_R1A@?0A@EA@TxFilter_80M_TableR1C@@8 00000001800f6ff0     CalFileR1C.obj
 0002:0002a020       ??_R4TxFilter_160M_TableR1C@@6B@ 00000001800f7020     CalFileR1C.obj
 0002:0002a050       ??_R3TxFilter_160M_TableR1C@@8 00000001800f7050     CalFileR1C.obj
 0002:0002a068       ??_R2TxFilter_160M_TableR1C@@8 00000001800f7068     CalFileR1C.obj
 0002:0002a078       ??_R1A@?0A@EA@TxFilter_160M_TableR1C@@8 00000001800f7078     CalFileR1C.obj
 0002:0002a0a8       ??_R4RxFilter_80M_TableR1C@@6B@ 00000001800f70a8     CalFileR1C.obj
 0002:0002a0d8       ??_R3RxFilter_80M_TableR1C@@8 00000001800f70d8     CalFileR1C.obj
 0002:0002a0f0       ??_R2RxFilter_80M_TableR1C@@8 00000001800f70f0     CalFileR1C.obj
 0002:0002a100       ??_R1A@?0A@EA@RxFilter_80M_TableR1C@@8 00000001800f7100     CalFileR1C.obj
 0002:0002a130       ??_R4RxFilter_160M_TableR1C@@6B@ 00000001800f7130     CalFileR1C.obj
 0002:0002a160       ??_R3RxFilter_160M_TableR1C@@8 00000001800f7160     CalFileR1C.obj
 0002:0002a178       ??_R2RxFilter_160M_TableR1C@@8 00000001800f7178     CalFileR1C.obj
 0002:0002a188       ??_R1A@?0A@EA@RxFilter_160M_TableR1C@@8 00000001800f7188     CalFileR1C.obj
 0002:0002a1b8       ??_R4TxFilterOffTableR1C@@6B@ 00000001800f71b8     CalFileR1C.obj
 0002:0002a1e8       ??_R3TxFilterOffTableR1C@@8 00000001800f71e8     CalFileR1C.obj
 0002:0002a200       ??_R2TxFilterOffTableR1C@@8 00000001800f7200     CalFileR1C.obj
 0002:0002a210       ??_R1A@?0A@EA@TxFilterOffTableR1C@@8 00000001800f7210     CalFileR1C.obj
 0002:0002a240       ??_R4RxFilterOffTableR1C@@6B@ 00000001800f7240     CalFileR1C.obj
 0002:0002a270       ??_R3RxFilterOffTableR1C@@8 00000001800f7270     CalFileR1C.obj
 0002:0002a288       ??_R2RxFilterOffTableR1C@@8 00000001800f7288     CalFileR1C.obj
 0002:0002a298       ??_R1A@?0A@EA@RxFilterOffTableR1C@@8 00000001800f7298     CalFileR1C.obj
 0002:0002a2c8       ??_R4TxIFFrTableR1C@@6B@   00000001800f72c8     CalFileR1C.obj
 0002:0002a2f8       ??_R3TxIFFrTableR1C@@8     00000001800f72f8     CalFileR1C.obj
 0002:0002a310       ??_R2TxIFFrTableR1C@@8     00000001800f7310     CalFileR1C.obj
 0002:0002a320       ??_R1A@?0A@EA@TxIFFrTableR1C@@8 00000001800f7320     CalFileR1C.obj
 0002:0002a350       ??_R4RxRFFrTableR1C@@6B@   00000001800f7350     CalFileR1C.obj
 0002:0002a380       ??_R3RxRFFrTableR1C@@8     00000001800f7380     CalFileR1C.obj
 0002:0002a398       ??_R2RxRFFrTableR1C@@8     00000001800f7398     CalFileR1C.obj
 0002:0002a3a8       ??_R1A@?0A@EA@RxRFFrTableR1C@@8 00000001800f73a8     CalFileR1C.obj
 0002:0002a3d8       ??_R4RxIFFrTableR1C@@6B@   00000001800f73d8     CalFileR1C.obj
 0002:0002a408       ??_R3RxIFFrTableR1C@@8     00000001800f7408     CalFileR1C.obj
 0002:0002a420       ??_R2RxIFFrTableR1C@@8     00000001800f7420     CalFileR1C.obj
 0002:0002a430       ??_R1A@?0A@EA@RxIFFrTableR1C@@8 00000001800f7430     CalFileR1C.obj
 0002:0002a460       ??_R4TxRFFr_0_TableR1C@@6B@ 00000001800f7460     CalFileR1C.obj
 0002:0002a490       ??_R3TxRFFr_0_TableR1C@@8  00000001800f7490     CalFileR1C.obj
 0002:0002a4a8       ??_R2TxRFFr_0_TableR1C@@8  00000001800f74a8     CalFileR1C.obj
 0002:0002a4c0       ??_R1A@?0A@EA@TxRFFr_0_TableR1C@@8 00000001800f74c0     CalFileR1C.obj
 0002:0002a4f0       ??_R1A@?0A@EA@TxRFFrTable@@8 00000001800f74f0     CalFileR1C.obj
 0002:0002a520       ??_R3TxRFFrTable@@8        00000001800f7520     CalFileR1C.obj
 0002:0002a538       ??_R2TxRFFrTable@@8        00000001800f7538     CalFileR1C.obj
 0002:0002a548       ??_R4TxRFFrTable@@6B@      00000001800f7548     CalFileR1C.obj
 0002:0002a578       ??_R4TxRFFr_1_TableR1C@@6B@ 00000001800f7578     CalFileR1C.obj
 0002:0002a5a8       ??_R3TxRFFr_1_TableR1C@@8  00000001800f75a8     CalFileR1C.obj
 0002:0002a5c0       ??_R2TxRFFr_1_TableR1C@@8  00000001800f75c0     CalFileR1C.obj
 0002:0002a5d8       ??_R1A@?0A@EA@TxRFFr_1_TableR1C@@8 00000001800f75d8     CalFileR1C.obj
 0002:0002a608       ??_R4ICalFile@@6B@         00000001800f7608     ICalFile.obj
 0002:0002a638       ??_R4CfvCtrl@@6B@          00000001800f7638     ICalFile.obj
 0002:0002a668       ??_R3CfvCtrl@@8            00000001800f7668     ICalFile.obj
 0002:0002a680       ??_R2CfvCtrl@@8            00000001800f7680     ICalFile.obj
 0002:0002a690       ??_R1A@?0A@EA@CfvCtrl@@8   00000001800f7690     ICalFile.obj
 0002:0002a6c0       ??_R4ISP1401@@6B@          00000001800f76c0     ISP1401.obj
 0002:0002a6f0       ??_R3ISP1401@@8            00000001800f76f0     ISP1401.obj
 0002:0002a708       ??_R2ISP1401@@8            00000001800f7708     ISP1401.obj
 0002:0002a718       ??_R1A@?0A@EA@ISP1401@@8   00000001800f7718     ISP1401.obj
 0002:0002a748       ??_R4CSGPMMFile@@6B@       00000001800f7748     sgpmm.obj
 0002:0002a778       ??_R3CSGPMMFile@@8         00000001800f7778     sgpmm.obj
 0002:0002a790       ??_R2CSGPMMFile@@8         00000001800f7790     sgpmm.obj
 0002:0002a7a0       ??_R1A@?0A@EA@CSGPMMFile@@8 00000001800f77a0     sgpmm.obj
 0002:0002a7d0       ??_R4CSP1401R1A@@6B@       00000001800f77d0     SP1401R1A.obj
 0002:0002a800       ??_R3CSP1401R1A@@8         00000001800f7800     SP1401R1A.obj
 0002:0002a818       ??_R2CSP1401R1A@@8         00000001800f7818     SP1401R1A.obj
 0002:0002a830       ??_R1A@?0A@EA@CSP1401R1A@@8 00000001800f7830     SP1401R1A.obj
 0002:0002a860       ??_R4CSP1401R1C@@6B@       00000001800f7860     SP1401R1C.obj
 0002:0002a890       ??_R3CSP1401R1C@@8         00000001800f7890     SP1401R1C.obj
 0002:0002a8a8       ??_R2CSP1401R1C@@8         00000001800f78a8     SP1401R1C.obj
 0002:0002a8c0       ??_R1A@?0A@EA@CSP1401R1C@@8 00000001800f78c0     SP1401R1C.obj
 0002:0002a8f0       ??_R4TxLOLeakageTableR1C@@6B@ 00000001800f78f0     TxLoLeakageTable.obj
 0002:0002a920       ??_R3TxLOLeakageTableR1C@@8 00000001800f7920     TxLoLeakageTable.obj
 0002:0002a938       ??_R2TxLOLeakageTableR1C@@8 00000001800f7938     TxLoLeakageTable.obj
 0002:0002a948       ??_R1A@?0A@EA@TxLOLeakageTableR1C@@8 00000001800f7948     TxLoLeakageTable.obj
 0002:0002a978       ??_R4TxSidebandTableR1C@@6B@ 00000001800f7978     TxSidebandTable.obj
 0002:0002a9a8       ??_R3TxSidebandTableR1C@@8 00000001800f79a8     TxSidebandTable.obj
 0002:0002a9c0       ??_R2TxSidebandTableR1C@@8 00000001800f79c0     TxSidebandTable.obj
 0002:0002a9d0       ??_R1A@?0A@EA@TxSidebandTableR1C@@8 00000001800f79d0     TxSidebandTable.obj
 0002:0002aa00       ??_R4type_info@@6B@        00000001800f7a00     MSVCRTD:ti_inst.obj
 0002:0002aa28       ??_R3type_info@@8          00000001800f7a28     MSVCRTD:ti_inst.obj
 0002:0002aa40       ??_R2type_info@@8          00000001800f7a40     MSVCRTD:ti_inst.obj
 0002:0002aa50       ??_R1A@?0A@EA@type_info@@8 00000001800f7a50     MSVCRTD:ti_inst.obj
 0002:0002ac08       __rtc_iaa                  00000001800f7c08     MSVCRTD:_initsect_.obj
 0002:0002ad18       __rtc_izz                  00000001800f7d18     MSVCRTD:_initsect_.obj
 0002:0002ae28       __rtc_taa                  00000001800f7e28     MSVCRTD:_initsect_.obj
 0002:0002af38       __rtc_tzz                  00000001800f7f38     MSVCRTD:_initsect_.obj
 0002:00034310       _TI3?AVout_of_range@std@@  0000000180101310     ArbReader.obj
 0002:00034330       _CTA3?AVout_of_range@std@@ 0000000180101330     ArbReader.obj
 0002:00034350       _CT??_R0?AVout_of_range@std@@@8??0out_of_range@std@@QEAA@AEBV01@@Z72 0000000180101350     ArbReader.obj
 0002:00034378       _CT??_R0?AVlogic_error@std@@@8??0logic_error@std@@QEAA@AEBV01@@Z72 0000000180101378     ArbReader.obj
 0002:000343a0       _CT??_R0?AVexception@std@@@8??0exception@std@@QEAA@AEBV01@@Z24 00000001801013a0     ArbReader.obj
 0002:000343c8       _TI3?AVlength_error@std@@  00000001801013c8     ArbReader.obj
 0002:000343e8       _CTA3?AVlength_error@std@@ 00000001801013e8     ArbReader.obj
 0002:00034408       _CT??_R0?AVlength_error@std@@@8??0length_error@std@@QEAA@AEBV01@@Z72 0000000180101408     ArbReader.obj
 0002:00034430       _TI2?AVbad_alloc@std@@     0000000180101430     ArbReader.obj
 0002:00034450       _CTA2?AVbad_alloc@std@@    0000000180101450     ArbReader.obj
 0002:00034468       _CT??_R0?AVbad_alloc@std@@@8??0bad_alloc@std@@QEAA@AEBV01@@Z24 0000000180101468     ArbReader.obj
 0003:00000010       ??_R0?AVout_of_range@std@@@8 000000018010a010     ArbReader.obj
 0003:00000040       ??_R0?AVlogic_error@std@@@8 000000018010a040     ArbReader.obj
 0003:00000070       ??_R0?AVexception@std@@@8  000000018010a070     ArbReader.obj
 0003:000000a0       ??_R0?AVlength_error@std@@@8 000000018010a0a0     ArbReader.obj
 0003:000000d0       ??_R0?AVbad_alloc@std@@@8  000000018010a0d0     ArbReader.obj
 0003:00000110       ??_R0?AVCalFileR1A@@@8     000000018010a110     CalFileR1A.obj
 0003:00000138       ??_R0?AVICalFile@@@8       000000018010a138     CalFileR1A.obj
 0003:00000160       ??_R0?AVTxSidebandTableR1A@@@8 000000018010a160     CalFileR1A.obj
 0003:00000198       ??_R0?AVTxLOLeakageTableR1A@@@8 000000018010a198     CalFileR1A.obj
 0003:000001d0       ??_R0?AVTxAttTableR1A@@@8  000000018010a1d0     CalFileR1A.obj
 0003:00000200       ??_R0?AVTxPowerTableR1A@@@8 000000018010a200     CalFileR1A.obj
 0003:00000230       ??_R0?AVRxRefTableR1A@@@8  000000018010a230     CalFileR1A.obj
 0003:00000270       ??_R0?AVCalFileR1C@@@8     000000018010a270     CalFileR1C.obj
 0003:00000298       ??_R0?AVTxAttOPTableR1C@@@8 000000018010a298     CalFileR1C.obj
 0003:000002c8       ??_R0?AVTxAttIOTableR1C@@@8 000000018010a2c8     CalFileR1C.obj
 0003:000002f8       ??_R0?AVTxPowerOPTableR1C@@@8 000000018010a2f8     CalFileR1C.obj
 0003:00000328       ??_R0?AVTxPowerIOTableR1C@@@8 000000018010a328     CalFileR1C.obj
 0003:00000358       ??_R0?AVRxRefOPTableR1C@@@8 000000018010a358     CalFileR1C.obj
 0003:00000388       ??_R0?AVRxRefIOTableR1C@@@8 000000018010a388     CalFileR1C.obj
 0003:000003b8       ??_R0?AVRxAttOPTableR1C@@@8 000000018010a3b8     CalFileR1C.obj
 0003:000003e8       ??_R0?AVRxAttIOTableR1C@@@8 000000018010a3e8     CalFileR1C.obj
 0003:00000418       ??_R0?AVTxFilter_80M_TableR1C@@@8 000000018010a418     CalFileR1C.obj
 0003:00000450       ??_R0?AVTxFilter_160M_TableR1C@@@8 000000018010a450     CalFileR1C.obj
 0003:00000488       ??_R0?AVRxFilter_80M_TableR1C@@@8 000000018010a488     CalFileR1C.obj
 0003:000004c0       ??_R0?AVRxFilter_160M_TableR1C@@@8 000000018010a4c0     CalFileR1C.obj
 0003:000004f8       ??_R0?AVTxFilterOffTableR1C@@@8 000000018010a4f8     CalFileR1C.obj
 0003:00000530       ??_R0?AVRxFilterOffTableR1C@@@8 000000018010a530     CalFileR1C.obj
 0003:00000568       ??_R0?AVTxIFFrTableR1C@@@8 000000018010a568     CalFileR1C.obj
 0003:00000598       ??_R0?AVRxRFFrTableR1C@@@8 000000018010a598     CalFileR1C.obj
 0003:000005c8       ??_R0?AVRxIFFrTableR1C@@@8 000000018010a5c8     CalFileR1C.obj
 0003:000005f8       ??_R0?AVTxRFFr_0_TableR1C@@@8 000000018010a5f8     CalFileR1C.obj
 0003:00000628       ??_R0?AVTxRFFrTable@@@8    000000018010a628     CalFileR1C.obj
 0003:00000650       ??_R0?AVTxRFFr_1_TableR1C@@@8 000000018010a650     CalFileR1C.obj
 0003:000006b0       ??_R0?AVCfvCtrl@@@8        000000018010a6b0     ICalFile.obj
 0003:000006e0       ?g_IQBufLock@@3PEAUpthread_mutex_t_@@EA 000000018010a6e0     IQBufMgr.obj
 0003:00000700       ??_R0?AVISP1401@@@8        000000018010a700     ISP1401.obj
 0003:00000778       ??_R0?AVCSGPMMFile@@@8     000000018010a778     sgpmm.obj
 0003:000007b0       ??_R0?AVCSP1401R1A@@@8     000000018010a7b0     SP1401R1A.obj
 0003:000007e8       ??_R0?AVCSP1401R1C@@@8     000000018010a7e8     SP1401R1C.obj
 0003:00000850       ??_R0?AVTxLOLeakageTableR1C@@@8 000000018010a850     TxLoLeakageTable.obj
 0003:000008a8       ??_R0?AVTxSidebandTableR1C@@@8 000000018010a8a8     TxSidebandTable.obj
 0003:000008e8       __security_cookie          000000018010a8e8     MSVCRTD:gs_cookie.obj
 0003:000008f0       __security_cookie_complement 000000018010a8f0     MSVCRTD:gs_cookie.obj
 0003:000008f8       _fltused                   000000018010a8f8     MSVCRTD:dllsupp.obj
 0003:00000900       ??_R0?AVtype_info@@@8      000000018010a900     MSVCRTD:ti_inst.obj
 0003:00000920       __native_dllmain_reason    000000018010a920     MSVCRTD:natstart.obj
 0003:00000924       __native_vcclrit_reason    000000018010a924     MSVCRTD:natstart.obj
 0003:00000b40       ?g_pX9119@ICalFile@@2PEAVX9119Table@@EA 000000018010ab40     ICalFile.obj
 0003:00000b48       ?g_ItemBuf@ICalFile@@1UItemBuf@1@A 000000018010ab48     ICalFile.obj
 0003:00001110       _forceCRTManifestRTM       000000018010b110     MSVCRTD:crtmanifestrtm.obj
 0003:00001118       ?__type_info_root_node@@3U__type_info_node@@A 000000018010b118     MSVCRTD:tncleanup.obj
 0003:00001128       __native_startup_state     000000018010b128     <common>
 0003:00001138       __native_startup_lock      000000018010b138     <common>
 0003:00001140       __dyn_tls_init_callback    000000018010b140     <common>
 0003:00001158       __onexitend                000000018010b158     <common>
 0003:00001170       __onexitbegin              000000018010b170     <common>
 0005:00000000       __IMPORT_DESCRIPTOR_libLog 0000000180112000     libLog:libLog.dll
 0005:00000014       __IMPORT_DESCRIPTOR_libBusDriver 0000000180112014     libBusDriver:libBusDriver.dll
 0005:00000028       __IMPORT_DESCRIPTOR_MSVCP90D 0000000180112028     msvcprtd:MSVCP90D.dll
 0005:0000003c       __IMPORT_DESCRIPTOR_MSVCR90D 000000018011203c     MSVCRTD:MSVCR90D.dll
 0005:00000050       __IMPORT_DESCRIPTOR_pthreadVC2 0000000180112050     pthreadVC2:pthreadVC2.dll
 0005:00000064       __IMPORT_DESCRIPTOR_libfftw3-3 0000000180112064     libfftw3-3:libfftw3-3.dll
 0005:00000078       __IMPORT_DESCRIPTOR_KERNEL32 0000000180112078     kernel32:KERNEL32.dll
 0005:0000008c       __NULL_IMPORT_DESCRIPTOR   000000018011208c     libLog:libLog.dll
 0005:00000748       __imp_DisableThreadLibraryCalls 0000000180112748     kernel32:KERNEL32.dll
 0005:00000750       __imp_GetSystemTimeAsFileTime 0000000180112750     kernel32:KERNEL32.dll
 0005:00000758       __imp_GetCurrentProcessId  0000000180112758     kernel32:KERNEL32.dll
 0005:00000760       __imp_GetCurrentThreadId   0000000180112760     kernel32:KERNEL32.dll
 0005:00000768       __imp_GetTickCount         0000000180112768     kernel32:KERNEL32.dll
 0005:00000770       __imp_QueryPerformanceCounter 0000000180112770     kernel32:KERNEL32.dll
 0005:00000778       __imp_RtlCaptureContext    0000000180112778     kernel32:KERNEL32.dll
 0005:00000780       __imp_RtlLookupFunctionEntry 0000000180112780     kernel32:KERNEL32.dll
 0005:00000788       __imp_RtlVirtualUnwind     0000000180112788     kernel32:KERNEL32.dll
 0005:00000790       __imp_IsDebuggerPresent    0000000180112790     kernel32:KERNEL32.dll
 0005:00000798       __imp_SetUnhandledExceptionFilter 0000000180112798     kernel32:KERNEL32.dll
 0005:000007a0       __imp_UnhandledExceptionFilter 00000001801127a0     kernel32:KERNEL32.dll
 0005:000007a8       __imp_GetCurrentProcess    00000001801127a8     kernel32:KERNEL32.dll
 0005:000007b0       __imp_TerminateProcess     00000001801127b0     kernel32:KERNEL32.dll
 0005:000007b8       __imp_Sleep                00000001801127b8     kernel32:KERNEL32.dll
 0005:000007c0       \177KERNEL32_NULL_THUNK_DATA 00000001801127c0     kernel32:KERNEL32.dll
 0005:00000830       __imp_??0?$basic_string@DU?$char_traits@D@std@@V?$allocator@D@2@@std@@QEAA@PEBD@Z 0000000180112830     msvcprtd:MSVCP90D.dll
 0005:00000838       __imp_?_Swap_all@_Container_base_secure@std@@QEBAXAEAV12@@Z 0000000180112838     msvcprtd:MSVCP90D.dll
 0005:00000840       __imp_??1_Lockit@std@@QEAA@XZ 0000000180112840     msvcprtd:MSVCP90D.dll
 0005:00000848       __imp_??0_Lockit@std@@QEAA@H@Z 0000000180112848     msvcprtd:MSVCP90D.dll
 0005:00000850       __imp_?_Debug_message@std@@YAXPEB_W0I@Z 0000000180112850     msvcprtd:MSVCP90D.dll
 0005:00000858       __imp_??1_Container_base_secure@std@@QEAA@XZ 0000000180112858     msvcprtd:MSVCP90D.dll
 0005:00000860       __imp_??1?$basic_string@DU?$char_traits@D@std@@V?$allocator@D@2@@std@@QEAA@XZ 0000000180112860     msvcprtd:MSVCP90D.dll
 0005:00000868       __imp_??0?$basic_string@DU?$char_traits@D@std@@V?$allocator@D@2@@std@@QEAA@AEBV01@@Z 0000000180112868     msvcprtd:MSVCP90D.dll
 0005:00000870       __imp_?c_str@?$basic_string@DU?$char_traits@D@std@@V?$allocator@D@2@@std@@QEBAPEBDXZ 0000000180112870     msvcprtd:MSVCP90D.dll
 0005:00000878       __imp_?_Orphan_all@_Container_base_secure@std@@QEBAXXZ 0000000180112878     msvcprtd:MSVCP90D.dll
 0005:00000880       __imp_??0_Container_base_secure@std@@QEAA@XZ 0000000180112880     msvcprtd:MSVCP90D.dll
 0005:00000888       __imp_?_Swap_aux@_Container_base_secure@std@@QEAAXAEAV12@@Z 0000000180112888     msvcprtd:MSVCP90D.dll
 0005:00000890       \177MSVCP90D_NULL_THUNK_DATA 0000000180112890     msvcprtd:MSVCP90D.dll
 0005:000008f8       __imp___clean_type_info_names_internal 00000001801128f8     MSVCRTD:MSVCR90D.dll
 0005:00000900       __imp_?_type_info_dtor_internal_method@type_info@@QEAAXXZ 0000000180112900     MSVCRTD:MSVCR90D.dll
 0005:00000908       __imp_fclose               0000000180112908     MSVCRTD:MSVCR90D.dll
 0005:00000910       __imp_fopen                0000000180112910     MSVCRTD:MSVCR90D.dll
 0005:00000918       __imp_fread                0000000180112918     MSVCRTD:MSVCR90D.dll
 0005:00000920       __imp_ftell                0000000180112920     MSVCRTD:MSVCR90D.dll
 0005:00000928       __imp_fseek                0000000180112928     MSVCRTD:MSVCR90D.dll
 0005:00000930       __imp___CxxFrameHandler3   0000000180112930     MSVCRTD:MSVCR90D.dll
 0005:00000938       __imp_strcat               0000000180112938     MSVCRTD:MSVCR90D.dll
 0005:00000940       __imp_sprintf              0000000180112940     MSVCRTD:MSVCR90D.dll
 0005:00000948       __imp__CxxThrowException   0000000180112948     MSVCRTD:MSVCR90D.dll
 0005:00000950       __imp_??3@YAXPEAX@Z        0000000180112950     MSVCRTD:MSVCR90D.dll
 0005:00000958       __imp_??0exception@std@@QEAA@AEBV01@@Z 0000000180112958     MSVCRTD:MSVCR90D.dll
 0005:00000960       __imp_??1exception@std@@UEAA@XZ 0000000180112960     MSVCRTD:MSVCR90D.dll
 0005:00000968       __imp_??0exception@std@@QEAA@XZ 0000000180112968     MSVCRTD:MSVCR90D.dll
 0005:00000970       __imp__invalid_parameter   0000000180112970     MSVCRTD:MSVCR90D.dll
 0005:00000978       __imp__CrtDbgReportW       0000000180112978     MSVCRTD:MSVCR90D.dll
 0005:00000980       __imp_??2@YAPEAX_K@Z       0000000180112980     MSVCRTD:MSVCR90D.dll
 0005:00000988       __imp_??0exception@std@@QEAA@AEBQEBD@Z 0000000180112988     MSVCRTD:MSVCR90D.dll
 0005:00000990       __imp_?what@exception@std@@UEBAPEBDXZ 0000000180112990     MSVCRTD:MSVCR90D.dll
 0005:00000998       __imp_??_V@YAXPEAX@Z       0000000180112998     MSVCRTD:MSVCR90D.dll
 0005:000009a0       __imp_memset               00000001801129a0     MSVCRTD:MSVCR90D.dll
 0005:000009a8       __imp_fwrite               00000001801129a8     MSVCRTD:MSVCR90D.dll
 0005:000009b0       __imp_strerror             00000001801129b0     MSVCRTD:MSVCR90D.dll
 0005:000009b8       __imp__errno               00000001801129b8     MSVCRTD:MSVCR90D.dll
 0005:000009c0       __imp__mkdir               00000001801129c0     MSVCRTD:MSVCR90D.dll
 0005:000009c8       __imp__access              00000001801129c8     MSVCRTD:MSVCR90D.dll
 0005:000009d0       __imp_rename               00000001801129d0     MSVCRTD:MSVCR90D.dll
 0005:000009d8       __imp_remove               00000001801129d8     MSVCRTD:MSVCR90D.dll
 0005:000009e0       __imp_strcpy               00000001801129e0     MSVCRTD:MSVCR90D.dll
 0005:000009e8       __imp_strrchr              00000001801129e8     MSVCRTD:MSVCR90D.dll
 0005:000009f0       __imp_fprintf              00000001801129f0     MSVCRTD:MSVCR90D.dll
 0005:000009f8       __imp__set_fmode           00000001801129f8     MSVCRTD:MSVCR90D.dll
 0005:00000a00       __imp__purecall            0000000180112a00     MSVCRTD:MSVCR90D.dll
 0005:00000a08       __imp_log10                0000000180112a08     MSVCRTD:MSVCR90D.dll
 0005:00000a10       __imp_strcmp               0000000180112a10     MSVCRTD:MSVCR90D.dll
 0005:00000a18       __imp_strstr               0000000180112a18     MSVCRTD:MSVCR90D.dll
 0005:00000a20       __imp__write               0000000180112a20     MSVCRTD:MSVCR90D.dll
 0005:00000a28       __imp__close               0000000180112a28     MSVCRTD:MSVCR90D.dll
 0005:00000a30       __imp__sopen_s             0000000180112a30     MSVCRTD:MSVCR90D.dll
 0005:00000a38       __imp__commit              0000000180112a38     MSVCRTD:MSVCR90D.dll
 0005:00000a40       __imp__read                0000000180112a40     MSVCRTD:MSVCR90D.dll
 0005:00000a48       __imp__locking             0000000180112a48     MSVCRTD:MSVCR90D.dll
 0005:00000a50       __imp__tell                0000000180112a50     MSVCRTD:MSVCR90D.dll
 0005:00000a58       __imp__lseek               0000000180112a58     MSVCRTD:MSVCR90D.dll
 0005:00000a60       __imp_memmove_s            0000000180112a60     MSVCRTD:MSVCR90D.dll
 0005:00000a68       __imp_abs                  0000000180112a68     MSVCRTD:MSVCR90D.dll
 0005:00000a70       __imp_fabs                 0000000180112a70     MSVCRTD:MSVCR90D.dll
 0005:00000a78       __imp___C_specific_handler 0000000180112a78     MSVCRTD:MSVCR90D.dll
 0005:00000a80       __imp__unlock              0000000180112a80     MSVCRTD:MSVCR90D.dll
 0005:00000a88       __imp___dllonexit          0000000180112a88     MSVCRTD:MSVCR90D.dll
 0005:00000a90       __imp__encode_pointer      0000000180112a90     MSVCRTD:MSVCR90D.dll
 0005:00000a98       __imp__lock                0000000180112a98     MSVCRTD:MSVCR90D.dll
 0005:00000aa0       __imp__onexit              0000000180112aa0     MSVCRTD:MSVCR90D.dll
 0005:00000aa8       __imp__decode_pointer      0000000180112aa8     MSVCRTD:MSVCR90D.dll
 0005:00000ab0       __imp__malloc_dbg          0000000180112ab0     MSVCRTD:MSVCR90D.dll
 0005:00000ab8       __imp__free_dbg            0000000180112ab8     MSVCRTD:MSVCR90D.dll
 0005:00000ac0       __imp__encoded_null        0000000180112ac0     MSVCRTD:MSVCR90D.dll
 0005:00000ac8       __imp__CrtSetCheckCount    0000000180112ac8     MSVCRTD:MSVCR90D.dll
 0005:00000ad0       __imp__initterm            0000000180112ad0     MSVCRTD:MSVCR90D.dll
 0005:00000ad8       __imp__initterm_e          0000000180112ad8     MSVCRTD:MSVCR90D.dll
 0005:00000ae0       __imp__amsg_exit           0000000180112ae0     MSVCRTD:MSVCR90D.dll
 0005:00000ae8       __imp___CppXcptFilter      0000000180112ae8     MSVCRTD:MSVCR90D.dll
 0005:00000af0       __imp___crt_debugger_hook  0000000180112af0     MSVCRTD:MSVCR90D.dll
 0005:00000af8       __imp_?terminate@@YAXXZ    0000000180112af8     MSVCRTD:MSVCR90D.dll
 0005:00000b00       \177MSVCR90D_NULL_THUNK_DATA 0000000180112b00     MSVCRTD:MSVCR90D.dll
 0005:00000bc0       __imp_?mcp3208ad2vol@@YANI@Z 0000000180112bc0     libBusDriver:libBusDriver.dll
 0005:00000bc8       __imp_??0viMemIO@@QEAA@XZ  0000000180112bc8     libBusDriver:libBusDriver.dll
 0005:00000bd0       __imp_?Release@viMemIO@@QEAAHXZ 0000000180112bd0     libBusDriver:libBusDriver.dll
 0005:00000bd8       __imp_?Alloc@viMemIO@@QEAAHI@Z 0000000180112bd8     libBusDriver:libBusDriver.dll
 0005:00000be0       __imp_?round@@YANNH@Z      0000000180112be0     libBusDriver:libBusDriver.dll
 0005:00000be8       __imp_?dBc2ad@@YA_J_JN@Z   0000000180112be8     libBusDriver:libBusDriver.dll
 0005:00000bf0       __imp_?ad2dBc@@YANNN@Z     0000000180112bf0     libBusDriver:libBusDriver.dll
 0005:00000bf8       __imp_?adf5355para2reg2@@YAIII@Z 0000000180112bf8     libBusDriver:libBusDriver.dll
 0005:00000c00       __imp_?adf5355para2reg1@@YAII@Z 0000000180112c00     libBusDriver:libBusDriver.dll
 0005:00000c08       __imp_?adf5355para2reg0@@YAIIII@Z 0000000180112c08     libBusDriver:libBusDriver.dll
 0005:00000c10       __imp_?tc1407vol2temp@@YANN@Z 0000000180112c10     libBusDriver:libBusDriver.dll
 0005:00000c18       __imp_?adf5355_freq_formula@@YAH_KI_N1IIAEAI2222@Z 0000000180112c18     libBusDriver:libBusDriver.dll
 0005:00000c20       \177libBusDriver_NULL_THUNK_DATA 0000000180112c20     libBusDriver:libBusDriver.dll
 0005:00000c88       __imp_?SetLastError@CLog@@QEAAXPEBDZZ 0000000180112c88     libLog:libLog.dll
 0005:00000c90       __imp_?GetLastError@CLog@@QEAAPEADXZ 0000000180112c90     libLog:libLog.dll
 0005:00000c98       __imp_?Instance@CLog@@SAAEAV1@XZ 0000000180112c98     libLog:libLog.dll
 0005:00000ca0       __imp_?SetLastError@CLog@@QEAAXHPEBDZZ 0000000180112ca0     libLog:libLog.dll
 0005:00000ca8       \177libLog_NULL_THUNK_DATA 0000000180112ca8     libLog:libLog.dll
 0005:00000d00       __imp_fftw_execute         0000000180112d00     libfftw3-3:libfftw3-3.dll
 0005:00000d08       __imp_fftw_plan_dft_1d     0000000180112d08     libfftw3-3:libfftw3-3.dll
 0005:00000d10       __imp_fftw_malloc          0000000180112d10     libfftw3-3:libfftw3-3.dll
 0005:00000d18       __imp_fftw_free            0000000180112d18     libfftw3-3:libfftw3-3.dll
 0005:00000d20       __imp_fftw_destroy_plan    0000000180112d20     libfftw3-3:libfftw3-3.dll
 0005:00000d28       \177libfftw3-3_NULL_THUNK_DATA 0000000180112d28     libfftw3-3:libfftw3-3.dll
 0005:00000d88       __imp_pthread_mutex_lock   0000000180112d88     pthreadVC2:pthreadVC2.dll
 0005:00000d90       __imp_pthread_mutex_unlock 0000000180112d90     pthreadVC2:pthreadVC2.dll
 0005:00000d98       \177pthreadVC2_NULL_THUNK_DATA 0000000180112d98     pthreadVC2:pthreadVC2.dll

 entry point at        0001:000c0dd0

